(lp0
S'/MembersSection/MemberDirectory/107944.aspx'
p1
aS'/MembersSection/MemberDirectory/30595.aspx'
p2
aS'/MembersSection/MemberDirectory/30973.aspx'
p3
aS'/MembersSection/MemberDirectory/28190.aspx'
p4
aS'/MembersSection/MemberDirectory/29798.aspx'
p5
aS'/MembersSection/MemberDirectory/29870.aspx'
p6
aS'/MembersSection/MemberDirectory/30265.aspx'
p7
aS'/MembersSection/MemberDirectory/29797.aspx'
p8
aS'/MembersSection/MemberDirectory/30080.aspx'
p9
aS'/MembersSection/MemberDirectory/29795.aspx'
p10
aS'/MembersSection/MemberDirectory/56131.aspx'
p11
aS'/MembersSection/MemberDirectory/69253.aspx'
p12
aS'/MembersSection/Sections/Electronics/167363/167367/167369/29997.aspx'
p13
aS'/MembersSection/MemberDirectory/30864.aspx'
p14
aS'/MembersSection/MemberDirectory/30191.aspx'
p15
aS'/MembersSection/MemberDirectory/30135.aspx'
p16
aS'/MembersSection/MemberDirectory/69232.aspx'
p17
aS'/MembersSection/MemberDirectory/29791.aspx'
p18
aS'/MembersSection/MemberDirectory/29789.aspx'
p19
aS'/MembersSection/MemberDirectory/30264.aspx'
p20
aS'/MembersSection/MemberDirectory/30628.aspx'
p21
aS'/MembersSection/MemberDirectory/30921.aspx'
p22
aS'/MembersSection/MemberDirectory/31141.aspx'
p23
aS'/MembersSection/MemberDirectory/30262.aspx'
p24
aS'/MembersSection/MemberDirectory/28014.aspx'
p25
aS'/MembersSection/MemberDirectory/29788.aspx'
p26
aS'/MembersSection/MemberDirectory/31054.aspx'
p27
aS'/MembersSection/MemberDirectory/30865.aspx'
p28
aS'/MembersSection/MemberDirectory/27794.aspx'
p29
aS'/MembersSection/MemberDirectory/42060.aspx'
p30
aS'/MembersSection/MemberDirectory/165677.aspx'
p31
aS'/MembersSection/MemberDirectory/30976.aspx'
p32
aS'/MembersSection/MemberDirectory/30974.aspx'
p33
aS'/MembersSection/MemberDirectory/30749.aspx'
p34
aS'/MembersSection/MemberDirectory/27581.aspx'
p35
aS'/MembersSection/MemberDirectory/30322.aspx'
p36
aS'/MembersSection/MemberDirectory/31112.aspx'
p37
aS'/MembersSection/MemberDirectory/29784.aspx'
p38
aS'/MembersSection/MemberDirectory/30192.aspx'
p39
aS'/MembersSection/MemberDirectory/107943.aspx'
p40
aS'/MembersSection/MemberDirectory/107868.aspx'
p41
aS'/MembersSection/MemberDirectory/56132.aspx'
p42
aS'/MembersSection/MemberDirectory/165612.aspx'
p43
aS'/MembersSection/MemberDirectory/27854.aspx'
p44
aS'/MembersSection/MemberDirectory/29782.aspx'
p45
aS'/MembersSection/MemberDirectory/29783.aspx'
p46
aS'/MembersSection/MemberDirectory/30866.aspx'
p47
aS'/MembersSection/MemberDirectory/42048.aspx'
p48
aS'/MembersSection/Sections/CivilEngineering/167546/167550/167558/29937.aspx'
p49
aS'/MembersSection/MemberDirectory/27621.aspx'
p50
aS'/MembersSection/MemberDirectory/149903.aspx'
p51
aS'/MembersSection/MemberDirectory/149904.aspx'
p52
aS'/MembersSection/MemberDirectory/30592.aspx'
p53
aS'/MembersSection/MemberDirectory/29775.aspx'
p54
aS'/MembersSection/MemberDirectory/29774.aspx'
p55
aS'/MembersSection/MemberDirectory/69244.aspx'
p56
aS'/MembersSection/MemberDirectory/149853.aspx'
p57
aS'/MembersSection/MemberDirectory/149854.aspx'
p58
aS'/MembersSection/MemberDirectory/27559.aspx'
p59
aS'/MembersSection/MemberDirectory/162085/28282.aspx'
p60
aS'/MembersSection/MemberDirectory/29771.aspx'
p61
aS'/MembersSection/MemberDirectory/29773.aspx'
p62
aS'/MembersSection/MemberDirectory/30596.aspx'
p63
aS'/MembersSection/MemberDirectory/30259.aspx'
p64
aS'/MembersSection/MemberDirectory/149905.aspx'
p65
aS'/MembersSection/MemberDirectory/69254.aspx'
p66
aS'/MembersSection/MemberDirectory/29770.aspx'
p67
aS'/MembersSection/MemberDirectory/27717.aspx'
p68
aS'/MembersSection/MemberDirectory/27877.aspx'
p69
aS'/MembersSection/Sections/Bioengineering/167021/167027/167042/30918.aspx'
p70
aS'/MembersSection/MemberDirectory/27620.aspx'
p71
aS'/MembersSection/MemberDirectory/30922.aspx'
p72
aS'/MembersSection/MemberDirectory/30238.aspx'
p73
aS'/MembersSection/MemberDirectory/29769.aspx'
p74
aS'/MembersSection/MemberDirectory/27698.aspx'
p75
aS'/MembersSection/MemberDirectory/27897.aspx'
p76
aS'/MembersSection/MemberDirectory/165678.aspx'
p77
aS'/MembersSection/MemberDirectory/27891.aspx'
p78
aS'/MembersSection/MemberDirectory/29766.aspx'
p79
aS'/MembersSection/MemberDirectory/29764.aspx'
p80
aS'/MembersSection/MemberDirectory/31020.aspx'
p81
aS'/MembersSection/MemberDirectory/27784.aspx'
p82
aS'/MembersSection/MemberDirectory/30147.aspx'
p83
aS'/MembersSection/MemberDirectory/165613.aspx'
p84
aS'/MembersSection/MemberDirectory/30923.aspx'
p85
aS'/MembersSection/MemberDirectory/31019.aspx'
p86
aS'/MembersSection/MemberDirectory/107884.aspx'
p87
aS'/MembersSection/MemberDirectory/165679.aspx'
p88
aS'/MembersSection/MemberDirectory/30000.aspx'
p89
aS'/MembersSection/MemberDirectory/30975.aspx'
p90
aS'/MembersSection/MemberDirectory/30577.aspx'
p91
aS'/MembersSection/MemberDirectory/27580.aspx'
p92
aS'/MembersSection/MemberDirectory/29759.aspx'
p93
aS'/MembersSection/MemberDirectory/30750.aspx'
p94
aS'/MembersSection/MemberDirectory/165614.aspx'
p95
aS'/MembersSection/MemberDirectory/31021.aspx'
p96
aS'/MembersSection/MemberDirectory/30126.aspx'
p97
aS'/MembersSection/MemberDirectory/27852.aspx'
p98
aS'/MembersSection/MemberDirectory/107878.aspx'
p99
aS'/MembersSection/MemberDirectory/30193.aspx'
p100
aS'/MembersSection/MemberDirectory/130202.aspx'
p101
aS'/MembersSection/MemberDirectory/42034.aspx'
p102
aS'/MembersSection/MemberDirectory/29752.aspx'
p103
aS'/MembersSection/MemberDirectory/30194.aspx'
p104
aS'/MembersSection/MemberDirectory/30462.aspx'
p105
aS'/MembersSection/MemberDirectory/172713/30797.aspx'
p106
aS'/MembersSection/MemberDirectory/27696.aspx'
p107
aS'/MembersSection/MemberDirectory/31069.aspx'
p108
aS'/MembersSection/MemberDirectory/31063.aspx'
p109
aS'/MembersSection/MemberDirectory/31070.aspx'
p110
aS'/MembersSection/MemberDirectory/42023.aspx'
p111
aS'/MembersSection/MemberDirectory/30802.aspx'
p112
aS'/MembersSection/MemberDirectory/30195.aspx'
p113
aS'/MembersSection/MemberDirectory/28291.aspx'
p114
aS'/MembersSection/MemberDirectory/30139.aspx'
p115
aS'/MembersSection/MemberDirectory/28276.aspx'
p116
aS'/MembersSection/MemberDirectory/30183.aspx'
p117
aS'/MembersSection/MemberDirectory/29801.aspx'
p118
aS'/MembersSection/MemberDirectory/29740.aspx'
p119
aS'/MembersSection/MemberDirectory/28305.aspx'
p120
aS'/MembersSection/MemberDirectory/31108.aspx'
p121
aS'/MembersSection/Sections/CivilEngineering/167546/167548/167566/42061.aspx'
p122
aS'/MembersSection/MemberDirectory/107942.aspx'
p123
aS'/MembersSection/MemberDirectory/27902.aspx'
p124
aS'/MembersSection/MemberDirectory/130136.aspx'
p125
aS'/MembersSection/MemberDirectory/30924.aspx'
p126
aS'/MembersSection/MemberDirectory/29946.aspx'
p127
aS'/MembersSection/MemberDirectory/27856.aspx'
p128
aS'/MembersSection/MemberDirectory/107873.aspx'
p129
aS'/MembersSection/MemberDirectory/162027/30803.aspx'
p130
aS'/MembersSection/MemberDirectory/30629.aspx'
p131
aS'/MembersSection/MemberDirectory/27630.aspx'
p132
aS'/MembersSection/MemberDirectory/107941.aspx'
p133
aS'/MembersSection/MemberDirectory/149849.aspx'
p134
aS'/MembersSection/MemberDirectory/30542.aspx'
p135
aS'/MembersSection/MemberDirectory/130221.aspx'
p136
aS'/MembersSection/MemberDirectory/29918.aspx'
p137
aS'/MembersSection/MemberDirectory/42062.aspx'
p138
aS'/MembersSection/MemberDirectory/30148.aspx'
p139
aS'/MembersSection/MemberDirectory/30164.aspx'
p140
aS'/MembersSection/MemberDirectory/29728.aspx'
p141
aS'/MembersSection/MemberDirectory/30009.aspx'
p142
aS'/MembersSection/MemberDirectory/107877.aspx'
p143
aS'/MembersSection/MemberDirectory/27643.aspx'
p144
aS'/MembersSection/MemberDirectory/29724.aspx'
p145
aS'/MembersSection/MemberDirectory/30081.aspx'
p146
aS'/MembersSection/MemberDirectory/29723.aspx'
p147
aS'/MembersSection/MemberDirectory/30400.aspx'
p148
aS'/MembersSection/MemberDirectory/56114.aspx'
p149
aS'/MembersSection/MemberDirectory/29926.aspx'
p150
aS'/MembersSection/MemberDirectory/29721.aspx'
p151
aS'/MembersSection/MemberDirectory/28034.aspx'
p152
aS'/MembersSection/MemberDirectory/149843.aspx'
p153
aS'/MembersSection/MemberDirectory/30849.aspx'
p154
aS'/MembersSection/MemberDirectory/31102.aspx'
p155
aS'/MembersSection/MemberDirectory/30463.aspx'
p156
aS'/MembersSection/MemberDirectory/31022.aspx'
p157
aS'/MembersSection/MemberDirectory/27858.aspx'
p158
aS'/MembersSection/MemberDirectory/30197.aspx'
p159
aS'/MembersSection/MemberDirectory/29716.aspx'
p160
aS'/MembersSection/MemberDirectory/69255.aspx'
p161
aS'/MembersSection/MemberDirectory/29712.aspx'
p162
aS'/MembersSection/MemberDirectory/30454.aspx'
p163
aS'/MembersSection/MemberDirectory/29708.aspx'
p164
aS'/MembersSection/MemberDirectory/27859.aspx'
p165
aS'/MembersSection/MemberDirectory/30522.aspx'
p166
aS'/MembersSection/MemberDirectory/28272.aspx'
p167
aS'/MembersSection/MemberDirectory/29707.aspx'
p168
aS'/MembersSection/MemberDirectory/30247.aspx'
p169
aS'/MembersSection/MemberDirectory/29702.aspx'
p170
aS'/MembersSection/MemberDirectory/29944.aspx'
p171
aS'/MembersSection/Sections/CivilEngineering/167546/167550/167558/56112.aspx'
p172
aS'/MembersSection/MemberDirectory/30464.aspx'
p173
aS'/MembersSection/MemberDirectory/164250/30544.aspx'
p174
aS'/MembersSection/MemberDirectory/29699.aspx'
p175
aS'/MembersSection/MemberDirectory/149855.aspx'
p176
aS'/MembersSection/MemberDirectory/30178.aspx'
p177
aS'/MembersSection/MemberDirectory/30149.aspx'
p178
aS'/MembersSection/MemberDirectory/30741.aspx'
p179
aS'/MembersSection/MemberDirectory/29696.aspx'
p180
aS'/MembersSection/MemberDirectory/29695.aspx'
p181
aS'/MembersSection/MemberDirectory/31006.aspx'
p182
aS'/MembersSection/MemberDirectory/30751.aspx'
p183
aS'/MembersSection/MemberDirectory/107940.aspx'
p184
aS'/MembersSection/MemberDirectory/30543.aspx'
p185
aS'/MembersSection/MemberDirectory/27545.aspx'
p186
aS'/MembersSection/MemberDirectory/29919.aspx'
p187
aS'/MembersSection/MemberDirectory/107939.aspx'
p188
aS'/MembersSection/MemberDirectory/27912.aspx'
p189
aS'/MembersSection/MemberDirectory/165680.aspx'
p190
aS'/MembersSection/Sections/AerospaceEngineering/166925/166982/166984/30867.aspx'
p191
aS'/MembersSection/MemberDirectory/30925.aspx'
p192
aS'/MembersSection/MemberDirectory/130131.aspx'
p193
aS'/MembersSection/MemberDirectory/31023.aspx'
p194
aS'/MembersSection/MemberDirectory/69256.aspx'
p195
aS'/MembersSection/MemberDirectory/29802.aspx'
p196
aS'/MembersSection/MemberDirectory/69233.aspx'
p197
aS'/MembersSection/MemberDirectory/28010.aspx'
p198
aS'/MembersSection/MemberDirectory/28001.aspx'
p199
aS'/MembersSection/MemberDirectory/31007.aspx'
p200
aS'/MembersSection/MemberDirectory/107898.aspx'
p201
aS'/MembersSection/MemberDirectory/29691.aspx'
p202
aS'/MembersSection/MemberDirectory/30239.aspx'
p203
aS'/MembersSection/MemberDirectory/42049.aspx'
p204
aS'/MembersSection/MemberDirectory/27924.aspx'
p205
aS'/MembersSection/MemberDirectory/29688.aspx'
p206
aS'/MembersSection/MemberDirectory/30266.aspx'
p207
aS'/MembersSection/MemberDirectory/30386.aspx'
p208
aS'/MembersSection/MemberDirectory/69252.aspx'
p209
aS'/MembersSection/MemberDirectory/28248.aspx'
p210
aS'/MembersSection/MemberDirectory/28191.aspx'
p211
aS'/MembersSection/MemberDirectory/28250.aspx'
p212
aS'/MembersSection/MemberDirectory/130133.aspx'
p213
aS'/MembersSection/MemberDirectory/149856.aspx'
p214
aS'/MembersSection/MemberDirectory/30868.aspx'
p215
aS'/MembersSection/MemberDirectory/29684.aspx'
p216
aS'/MembersSection/MemberDirectory/30401.aspx'
p217
aS'/MembersSection/MemberDirectory/30733.aspx'
p218
aS'/MembersSection/MemberDirectory/30972.aspx'
p219
aS'/MembersSection/MemberDirectory/27908.aspx'
p220
aS'/MembersSection/MemberDirectory/21857.aspx'
p221
aS'/MembersSection/MemberDirectory/107938.aspx'
p222
aS'/MembersSection/MemberDirectory/21856.aspx'
p223
aS'/MembersSection/MemberDirectory/30735.aspx'
p224
aS'/MembersSection/MemberDirectory/29677.aspx'
p225
aS'/MembersSection/MemberDirectory/27887.aspx'
p226
aS'/MembersSection/MemberDirectory/30174.aspx'
p227
aS'/MembersSection/MemberDirectory/165615.aspx'
p228
aS'/MembersSection/MemberDirectory/162036/27551.aspx'
p229
aS'/MembersSection/MemberDirectory/30869.aspx'
p230
aS'/MembersSection/MemberDirectory/29672.aspx'
p231
aS'/MembersSection/MemberDirectory/30237.aspx'
p232
aS'/MembersSection/MemberDirectory/30977.aspx'
p233
aS'/MembersSection/MemberDirectory/149864.aspx'
p234
aS'/MembersSection/MemberDirectory/69229.aspx'
p235
aS'/MembersSection/MemberDirectory/27695.aspx'
p236
aS'/MembersSection/MemberDirectory/29668.aspx'
p237
aS'/MembersSection/MemberDirectory/107937.aspx'
p238
aS'/MembersSection/MemberDirectory/27873.aspx'
p239
aS'/MembersSection/MemberDirectory/30533.aspx'
p240
aS'/MembersSection/MemberDirectory/165616.aspx'
p241
aS'/MembersSection/MemberDirectory/165617.aspx'
p242
aS'/MembersSection/MemberDirectory/30752.aspx'
p243
aS'/MembersSection/MemberDirectory/165618.aspx'
p244
aS'/MembersSection/MemberDirectory/107936.aspx'
p245
aS'/MembersSection/MemberDirectory/165619.aspx'
p246
aS'/MembersSection/MemberDirectory/107889.aspx'
p247
aS'/MembersSection/MemberDirectory/130130.aspx'
p248
aS'/MembersSection/MemberDirectory/29663.aspx'
p249
aS'/MembersSection/MemberDirectory/30465.aspx'
p250
aS'/MembersSection/MemberDirectory/28240.aspx'
p251
aS'/MembersSection/MemberDirectory/30915.aspx'
p252
aS'/MembersSection/MemberDirectory/69257.aspx'
p253
aS'/MembersSection/MemberDirectory/30394.aspx'
p254
aS'/MembersSection/MemberDirectory/56123.aspx'
p255
aS'/MembersSection/MemberDirectory/56119.aspx'
p256
aS'/MembersSection/MemberDirectory/107935.aspx'
p257
aS'/MembersSection/MemberDirectory/162017/30138.aspx'
p258
aS'/MembersSection/MemberDirectory/27618.aspx'
p259
aS'/MembersSection/MemberDirectory/29656.aspx'
p260
aS'/MembersSection/MemberDirectory/28308.aspx'
p261
aS'/MembersSection/MemberDirectory/162065/107893.aspx'
p262
aS'/MembersSection/MemberDirectory/130124.aspx'
p263
aS'/MembersSection/MemberDirectory/29947.aspx'
p264
aS'/MembersSection/MemberDirectory/29653.aspx'
p265
aS'/MembersSection/MemberDirectory/29652.aspx'
p266
aS'/MembersSection/MemberDirectory/56113.aspx'
p267
aS'/MembersSection/MemberDirectory/30538.aspx'
p268
aS'/MembersSection/MemberDirectory/29649.aspx'
p269
aS'/MembersSection/MemberDirectory/30069.aspx'
p270
aS'/MembersSection/MemberDirectory/30753.aspx'
p271
aS'/MembersSection/MemberDirectory/29648.aspx'
p272
aS'/MembersSection/MemberDirectory/29647.aspx'
p273
aS'/MembersSection/MemberDirectory/27646.aspx'
p274
aS'/MembersSection/MemberDirectory/30517.aspx'
p275
aS'/MembersSection/MemberDirectory/30268.aspx'
p276
aS'/MembersSection/MemberDirectory/27640.aspx'
p277
aS'/MembersSection/MemberDirectory/31062.aspx'
p278
aS'/MembersSection/MemberDirectory/29876.aspx'
p279
aS'/MembersSection/MemberDirectory/107934.aspx'
p280
aS'/MembersSection/MemberDirectory/27850.aspx'
p281
aS'/MembersSection/MemberDirectory/27944.aspx'
p282
aS'/MembersSection/MemberDirectory/162031/31109.aspx'
p283
aS'/MembersSection/MemberDirectory/27762.aspx'
p284
aS'/MembersSection/MemberDirectory/29929.aspx'
p285
aS'/MembersSection/MemberDirectory/30052.aspx'
p286
aS'/MembersSection/MemberDirectory/29642.aspx'
p287
aS'/MembersSection/MemberDirectory/29644.aspx'
p288
aS'/MembersSection/MemberDirectory/30520.aspx'
p289
aS'/MembersSection/MemberDirectory/27863.aspx'
p290
aS'/MembersSection/MemberDirectory/27565.aspx'
p291
aS'/MembersSection/MemberDirectory/29635.aspx'
p292
aS'/MembersSection/MemberDirectory/30630.aspx'
p293
aS'/MembersSection/MemberDirectory/30970.aspx'
p294
aS'/MembersSection/MemberDirectory/130132.aspx'
p295
aS'/MembersSection/MemberDirectory/29920.aspx'
p296
aS'/MembersSection/MemberDirectory/28043.aspx'
p297
aS'/MembersSection/MemberDirectory/31024.aspx'
p298
aS'/MembersSection/MemberDirectory/27776.aspx'
p299
aS'/MembersSection/MemberDirectory/27558.aspx'
p300
aS'/MembersSection/MemberDirectory/29631.aspx'
p301
aS'/MembersSection/MemberDirectory/30269.aspx'
p302
aS'/MembersSection/MemberDirectory/29628.aspx'
p303
aS'/MembersSection/MemberDirectory/27571.aspx'
p304
aS'/MembersSection/MemberDirectory/165620.aspx'
p305
aS'/MembersSection/MemberDirectory/30198.aspx'
p306
aS'/MembersSection/MemberDirectory/42091.aspx'
p307
aS'/MembersSection/MemberDirectory/149906.aspx'
p308
aS'/MembersSection/MemberDirectory/27617.aspx'
p309
aS'/MembersSection/MemberDirectory/69258.aspx'
p310
aS'/MembersSection/MemberDirectory/30804.aspx'
p311
aS'/MembersSection/MemberDirectory/42064.aspx'
p312
aS'/MembersSection/MemberDirectory/30978.aspx'
p313
aS'/MembersSection/MemberDirectory/149820.aspx'
p314
aS'/MembersSection/MemberDirectory/130137.aspx'
p315
aS'/MembersSection/MemberDirectory/28081.aspx'
p316
aS'/MembersSection/MemberDirectory/30545.aspx'
p317
aS'/MembersSection/MemberDirectory/30754.aspx'
p318
aS'/MembersSection/MemberDirectory/28004.aspx'
p319
aS'/MembersSection/MemberDirectory/165621.aspx'
p320
aS'/MembersSection/MemberDirectory/30967.aspx'
p321
aS'/MembersSection/MemberDirectory/30339.aspx'
p322
aS'/MembersSection/MemberDirectory/27616.aspx'
p323
aS'/MembersSection/MemberDirectory/30631.aspx'
p324
aS'/MembersSection/MemberDirectory/31103.aspx'
p325
aS'/MembersSection/MemberDirectory/42035.aspx'
p326
aS'/MembersSection/MemberDirectory/27788.aspx'
p327
aS'/MembersSection/MemberDirectory/31104.aspx'
p328
aS'/MembersSection/MemberDirectory/30083.aspx'
p329
aS'/MembersSection/MemberDirectory/29948.aspx'
p330
aS'/MembersSection/MemberDirectory/56133.aspx'
p331
aS'/MembersSection/MemberDirectory/107897.aspx'
p332
aS'/MembersSection/MemberDirectory/29612.aspx'
p333
aS'/MembersSection/MemberDirectory/30165.aspx'
p334
aS'/MembersSection/MemberDirectory/28099.aspx'
p335
aS'/MembersSection/MemberDirectory/30199.aspx'
p336
aS'/MembersSection/MemberDirectory/42032.aspx'
p337
aS'/MembersSection/MemberDirectory/27843.aspx'
p338
aS'/MembersSection/MemberDirectory/149850.aspx'
p339
aS'/MembersSection/MemberDirectory/27693.aspx'
p340
aS'/MembersSection/MemberDirectory/27613.aspx'
p341
aS'/MembersSection/MemberDirectory/162070/28000.aspx'
p342
aS'/MembersSection/MemberDirectory/29859.aspx'
p343
aS'/MembersSection/MemberDirectory/30084.aspx'
p344
aS'/MembersSection/MemberDirectory/28244.aspx'
p345
aS'/MembersSection/MemberDirectory/30404.aspx'
p346
aS'/MembersSection/MemberDirectory/30254.aspx'
p347
aS'/MembersSection/MemberDirectory/27761.aspx'
p348
aS'/MembersSection/MemberDirectory/130205.aspx'
p349
aS'/MembersSection/MemberDirectory/30546.aspx'
p350
aS'/MembersSection/MemberDirectory/165622.aspx'
p351
aS'/MembersSection/MemberDirectory/149857.aspx'
p352
aS'/MembersSection/MemberDirectory/27625.aspx'
p353
aS'/MembersSection/MemberDirectory/31071.aspx'
p354
aS'/MembersSection/MemberDirectory/30011.aspx'
p355
aS'/MembersSection/MemberDirectory/30181.aspx'
p356
aS'/MembersSection/MemberDirectory/27700.aspx'
p357
aS'/MembersSection/MemberDirectory/30270.aspx'
p358
aS'/MembersSection/MemberDirectory/30796.aspx'
p359
aS'/MembersSection/MemberDirectory/107890.aspx'
p360
aS'/MembersSection/MemberDirectory/130222.aspx'
p361
aS'/MembersSection/MemberDirectory/30979.aspx'
p362
aS'/MembersSection/MemberDirectory/28292.aspx'
p363
aS'/MembersSection/MemberDirectory/149841.aspx'
p364
aS'/MembersSection/MemberDirectory/30632.aspx'
p365
aS'/MembersSection/MemberDirectory/30448.aspx'
p366
aS'/MembersSection/MemberDirectory/31025.aspx'
p367
aS'/MembersSection/MemberDirectory/30342.aspx'
p368
aS'/MembersSection/MemberDirectory/30077.aspx'
p369
aS'/MembersSection/MemberDirectory/165681.aspx'
p370
aS'/MembersSection/MemberDirectory/30805.aspx'
p371
aS'/MembersSection/MemberDirectory/30271.aspx'
p372
aS'/MembersSection/MemberDirectory/69259.aspx'
p373
aS'/MembersSection/MemberDirectory/165623.aspx'
p374
aS'/MembersSection/MemberDirectory/27926.aspx'
p375
aS'/MembersSection/MemberDirectory/30085.aspx'
p376
aS'/MembersSection/MemberDirectory/30806.aspx'
p377
aS'/MembersSection/MemberDirectory/30795.aspx'
p378
aS'/MembersSection/MemberDirectory/30871.aspx'
p379
aS'/MembersSection/MemberDirectory/27845.aspx'
p380
aS'/MembersSection/MemberDirectory/30175.aspx'
p381
aS'/MembersSection/MemberDirectory/172713/30331.aspx'
p382
aS'/MembersSection/MemberDirectory/69237.aspx'
p383
aS'/MembersSection/MemberDirectory/149858.aspx'
p384
aS'/MembersSection/MemberDirectory/162034/30736.aspx'
p385
aS'/MembersSection/MemberDirectory/102862/69214.aspx'
p386
aS'/MembersSection/MemberDirectory/27632.aspx'
p387
aS'/MembersSection/MemberDirectory/27645.aspx'
p388
aS'/MembersSection/MemberDirectory/27847.aspx'
p389
aS'/MembersSection/MemberDirectory/28238.aspx'
p390
aS'/MembersSection/MemberDirectory/165624.aspx'
p391
aS'/MembersSection/MemberDirectory/29591.aspx'
p392
aS'/MembersSection/MemberDirectory/30807.aspx'
p393
aS'/MembersSection/MemberDirectory/30980.aspx'
p394
aS'/MembersSection/MemberDirectory/165699.aspx'
p395
aS'/MembersSection/MemberDirectory/30065.aspx'
p396
aS'/MembersSection/MemberDirectory/30633.aspx'
p397
aS'/MembersSection/MemberDirectory/29590.aspx'
p398
aS'/MembersSection/MemberDirectory/162030/28245.aspx'
p399
aS'/MembersSection/MemberDirectory/30388.aspx'
p400
aS'/MembersSection/MemberDirectory/56128.aspx'
p401
aS'/MembersSection/MemberDirectory/42043.aspx'
p402
aS'/MembersSection/MemberDirectory/107908.aspx'
p403
aS'/MembersSection/MemberDirectory/30397.aspx'
p404
aS'/MembersSection/MemberDirectory/30426.aspx'
p405
aS'/MembersSection/MemberDirectory/27760.aspx'
p406
aS'/MembersSection/MemberDirectory/29587.aspx'
p407
aS'/MembersSection/MemberDirectory/27768.aspx'
p408
aS'/MembersSection/MemberDirectory/27778.aspx'
p409
aS'/MembersSection/MemberDirectory/30343.aspx'
p410
aS'/MembersSection/MemberDirectory/31110.aspx'
p411
aS'/MembersSection/MemberDirectory/30467.aspx'
p412
aS'/MembersSection/MemberDirectory/30873.aspx'
p413
aS'/MembersSection/MemberDirectory/29583.aspx'
p414
aS'/MembersSection/MemberDirectory/162038/30798.aspx'
p415
aS'/MembersSection/MemberDirectory/28027.aspx'
p416
aS'/MembersSection/MemberDirectory/29949.aspx'
p417
aS'/MembersSection/MemberDirectory/27614.aspx'
p418
aS'/MembersSection/MemberDirectory/29579.aspx'
p419
aS'/MembersSection/MemberDirectory/30273.aspx'
p420
aS'/MembersSection/MemberDirectory/29573.aspx'
p421
aS'/MembersSection/MemberDirectory/31111.aspx'
p422
aS'/MembersSection/MemberDirectory/56100.aspx'
p423
aS'/MembersSection/MemberDirectory/30012.aspx'
p424
aS'/MembersSection/MemberDirectory/30261.aspx'
p425
aS'/MembersSection/MemberDirectory/56134.aspx'
p426
aS'/MembersSection/MemberDirectory/29566.aspx'
p427
aS'/MembersSection/MemberDirectory/149823.aspx'
p428
aS'/MembersSection/MemberDirectory/162028/42059.aspx'
p429
aS'/MembersSection/MemberDirectory/29806.aspx'
p430
aS'/MembersSection/MemberDirectory/30634.aspx'
p431
aS'/MembersSection/MemberDirectory/30525.aspx'
p432
aS'/MembersSection/MemberDirectory/30905.aspx'
p433
aS'/MembersSection/MemberDirectory/28236.aspx'
p434
aS'/MembersSection/MemberDirectory/165625.aspx'
p435
aS'/MembersSection/MemberDirectory/27917.aspx'
p436
aS'/MembersSection/MemberDirectory/27842.aspx'
p437
aS'/MembersSection/MemberDirectory/149839.aspx'
p438
aS'/MembersSection/MemberDirectory/31113.aspx'
p439
aS'/MembersSection/MemberDirectory/27692.aspx'
p440
aS'/MembersSection/MemberDirectory/27999.aspx'
p441
aS'/MembersSection/MemberDirectory/29881.aspx'
p442
aS'/MembersSection/MemberDirectory/28235.aspx'
p443
aS'/MembersSection/MemberDirectory/29985.aspx'
p444
aS'/MembersSection/MemberDirectory/29558.aspx'
p445
aS'/MembersSection/MemberDirectory/31072.aspx'
p446
aS'/MembersSection/Sections/Industrial/167387/167389/167403/42065.aspx'
p447
aS'/MembersSection/MemberDirectory/162047/42042.aspx'
p448
aS'/MembersSection/MemberDirectory/31114.aspx'
p449
aS'/MembersSection/MemberDirectory/29551.aspx'
p450
aS'/MembersSection/MemberDirectory/29549.aspx'
p451
aS'/MembersSection/MemberDirectory/31008.aspx'
p452
aS'/MembersSection/MemberDirectory/149859.aspx'
p453
aS'/MembersSection/MemberDirectory/29546.aspx'
p454
aS'/MembersSection/MemberDirectory/30344.aspx'
p455
aS'/MembersSection/MemberDirectory/30981.aspx'
p456
aS'/MembersSection/MemberDirectory/30547.aspx'
p457
aS'/MembersSection/MemberDirectory/31073.aspx'
p458
aS'/MembersSection/MemberDirectory/130211.aspx'
p459
aS'/MembersSection/MemberDirectory/29869.aspx'
p460
aS'/MembersSection/MemberDirectory/56125.aspx'
p461
aS'/MembersSection/MemberDirectory/30013.aspx'
p462
aS'/MembersSection/MemberDirectory/30627.aspx'
p463
aS'/MembersSection/MemberDirectory/30014.aspx'
p464
aS'/MembersSection/MemberDirectory/29540.aspx'
p465
aS'/MembersSection/MemberDirectory/30586.aspx'
p466
aS'/MembersSection/MemberDirectory/107933.aspx'
p467
aS'/MembersSection/MemberDirectory/162215/30548.aspx'
p468
aS'/MembersSection/MemberDirectory/30626.aspx'
p469
aS'/MembersSection/MemberDirectory/29535.aspx'
p470
aS'/MembersSection/MemberDirectory/56121.aspx'
p471
aS'/MembersSection/MemberDirectory/30625.aspx'
p472
aS'/MembersSection/MemberDirectory/165627.aspx'
p473
aS'/MembersSection/MemberDirectory/29531.aspx'
p474
aS'/MembersSection/MemberDirectory/69216.aspx'
p475
aS'/MembersSection/MemberDirectory/30346.aspx'
p476
aS'/MembersSection/MemberDirectory/30874.aspx'
p477
aS'/MembersSection/MemberDirectory/29528.aspx'
p478
aS'/MembersSection/MemberDirectory/30166.aspx'
p479
aS'/MembersSection/MemberDirectory/31028.aspx'
p480
aS'/MembersSection/MemberDirectory/27718.aspx'
p481
aS'/MembersSection/MemberDirectory/29525.aspx'
p482
aS'/MembersSection/MemberDirectory/30809.aspx'
p483
aS'/MembersSection/MemberDirectory/27913.aspx'
p484
aS'/MembersSection/MemberDirectory/30015.aspx'
p485
aS'/MembersSection/MemberDirectory/30406.aspx'
p486
aS'/MembersSection/MemberDirectory/107932.aspx'
p487
aS'/MembersSection/MemberDirectory/27548.aspx'
p488
aS'/MembersSection/MemberDirectory/29517.aspx'
p489
aS'/MembersSection/MemberDirectory/30747.aspx'
p490
aS'/MembersSection/MemberDirectory/28290.aspx'
p491
aS'/MembersSection/MemberDirectory/28298.aspx'
p492
aS'/MembersSection/MemberDirectory/29993.aspx'
p493
aS'/MembersSection/MemberDirectory/165628.aspx'
p494
aS'/MembersSection/MemberDirectory/30810.aspx'
p495
aS'/MembersSection/MemberDirectory/130207.aspx'
p496
aS'/MembersSection/MemberDirectory/165629.aspx'
p497
aS'/MembersSection/MemberDirectory/56135.aspx'
p498
aS'/MembersSection/MemberDirectory/56120.aspx'
p499
aS'/MembersSection/MemberDirectory/130126.aspx'
p500
aS'/MembersSection/MemberDirectory/107931.aspx'
p501
aS'/MembersSection/MemberDirectory/30459.aspx'
p502
aS'/MembersSection/MemberDirectory/28175.aspx'
p503
aS'/MembersSection/MemberDirectory/30468.aspx'
p504
aS'/MembersSection/MemberDirectory/28307.aspx'
p505
aS'/MembersSection/MemberDirectory/162215/29872.aspx'
p506
aS'/MembersSection/MemberDirectory/29508.aspx'
p507
aS'/MembersSection/MemberDirectory/30274.aspx'
p508
aS'/MembersSection/MemberDirectory/162032/30926.aspx'
p509
aS'/MembersSection/MemberDirectory/31142.aspx'
p510
aS'/MembersSection/MemberDirectory/30136.aspx'
p511
aS'/MembersSection/MemberDirectory/27649.aspx'
p512
aS'/MembersSection/MemberDirectory/30070.aspx'
p513
aS'/MembersSection/MemberDirectory/29503.aspx'
p514
aS'/MembersSection/MemberDirectory/149832.aspx'
p515
aS'/MembersSection/MemberDirectory/29502.aspx'
p516
aS'/MembersSection/MemberDirectory/30572.aspx'
p517
aS'/MembersSection/MemberDirectory/31074.aspx'
p518
aS'/MembersSection/MemberDirectory/30275.aspx'
p519
aS'/MembersSection/MemberDirectory/30167.aspx'
p520
aS'/MembersSection/MemberDirectory/29506.aspx'
p521
aS'/MembersSection/MemberDirectory/29499.aspx'
p522
aS'/MembersSection/MemberDirectory/29498.aspx'
p523
aS'/MembersSection/MemberDirectory/29497.aspx'
p524
aS'/MembersSection/MemberDirectory/69260.aspx'
p525
aS'/MembersSection/MemberDirectory/69230.aspx'
p526
aS'/MembersSection/MemberDirectory/56105.aspx'
p527
aS'/MembersSection/MemberDirectory/149860.aspx'
p528
aS'/MembersSection/MemberDirectory/29504.aspx'
p529
aS'/MembersSection/MemberDirectory/30469.aspx'
p530
aS'/MembersSection/MemberDirectory/56130.aspx'
p531
aS'/MembersSection/MemberDirectory/27997.aspx'
p532
aS'/MembersSection/MemberDirectory/29493.aspx'
p533
aS'/MembersSection/MemberDirectory/31075.aspx'
p534
aS'/MembersSection/MemberDirectory/42066.aspx'
p535
aS'/MembersSection/MemberDirectory/30179.aspx'
p536
aS'/MembersSection/MemberDirectory/149836.aspx'
p537
aS'/MembersSection/MemberDirectory/30088.aspx'
p538
aS'/MembersSection/MemberDirectory/27719.aspx'
p539
aS'/MembersSection/MemberDirectory/30334.aspx'
p540
aS'/MembersSection/MemberDirectory/30927.aspx'
p541
aS'/MembersSection/MemberDirectory/30875.aspx'
p542
aS'/MembersSection/MemberDirectory/29487.aspx'
p543
aS'/MembersSection/MemberDirectory/29486.aspx'
p544
aS'/MembersSection/Sections/Industrial/167387/167389/174764/107894.aspx'
p545
aS'/MembersSection/MemberDirectory/165700.aspx'
p546
aS'/MembersSection/MemberDirectory/69261.aspx'
p547
aS'/MembersSection/MemberDirectory/27610.aspx'
p548
aS'/MembersSection/MemberDirectory/149833.aspx'
p549
aS'/MembersSection/MemberDirectory/165701.aspx'
p550
aS'/MembersSection/MemberDirectory/27690.aspx'
p551
aS'/MembersSection/MemberDirectory/56136.aspx'
p552
aS'/MembersSection/MemberDirectory/130138.aspx'
p553
aS'/MembersSection/MemberDirectory/30928.aspx'
p554
aS'/MembersSection/MemberDirectory/29480.aspx'
p555
aS'/MembersSection/MemberDirectory/31029.aspx'
p556
aS'/MembersSection/MemberDirectory/165702.aspx'
p557
aS'/MembersSection/MemberDirectory/149861.aspx'
p558
aS'/MembersSection/MemberDirectory/149907.aspx'
p559
aS'/MembersSection/MemberDirectory/29479.aspx'
p560
aS'/MembersSection/MemberDirectory/27773.aspx'
p561
aS'/MembersSection/MemberDirectory/30089.aspx'
p562
aS'/MembersSection/MemberDirectory/29475.aspx'
p563
aS'/MembersSection/MemberDirectory/30347.aspx'
p564
aS'/MembersSection/MemberDirectory/30982.aspx'
p565
aS'/MembersSection/MemberDirectory/29474.aspx'
p566
aS'/MembersSection/MemberDirectory/21855.aspx'
p567
aS'/MembersSection/MemberDirectory/31055.aspx'
p568
aS'/MembersSection/MemberDirectory/149828.aspx'
p569
aS'/MembersSection/MemberDirectory/28166.aspx'
p570
aS'/MembersSection/MemberDirectory/29470.aspx'
p571
aS'/MembersSection/MemberDirectory/29471.aspx'
p572
aS'/MembersSection/MemberDirectory/31076.aspx'
p573
aS'/MembersSection/MemberDirectory/28286.aspx'
p574
aS'/MembersSection/MemberDirectory/29465.aspx'
p575
aS'/MembersSection/MemberDirectory/165626.aspx'
p576
aS'/MembersSection/MemberDirectory/29885.aspx'
p577
aS'/MembersSection/MemberDirectory/27844.aspx'
p578
aS'/MembersSection/MemberDirectory/29978.aspx'
p579
aS'/MembersSection/MemberDirectory/31115.aspx'
p580
aS'/MembersSection/MemberDirectory/42038.aspx'
p581
aS'/MembersSection/MemberDirectory/30349.aspx'
p582
aS'/MembersSection/MemberDirectory/30258.aspx'
p583
aS'/MembersSection/MemberDirectory/28233.aspx'
p584
aS'/MembersSection/MemberDirectory/27688.aspx'
p585
aS'/MembersSection/MemberDirectory/29459.aspx'
p586
aS'/MembersSection/MemberDirectory/30811.aspx'
p587
aS'/MembersSection/MemberDirectory/29458.aspx'
p588
aS'/MembersSection/MemberDirectory/30091.aspx'
p589
aS'/MembersSection/MemberDirectory/30969.aspx'
p590
aS'/MembersSection/MemberDirectory/29950.aspx'
p591
aS'/MembersSection/MemberDirectory/30176.aspx'
p592
aS'/MembersSection/MemberDirectory/29455.aspx'
p593
aS'/MembersSection/MemberDirectory/29454.aspx'
p594
aS'/MembersSection/MemberDirectory/29453.aspx'
p595
aS'/MembersSection/MemberDirectory/27754.aspx'
p596
aS'/MembersSection/MemberDirectory/29451.aspx'
p597
aS'/MembersSection/MemberDirectory/29448.aspx'
p598
aS'/MembersSection/MemberDirectory/30016.aspx'
p599
aS'/MembersSection/MemberDirectory/56126.aspx'
p600
aS'/MembersSection/MemberDirectory/42067.aspx'
p601
aS'/MembersSection/MemberDirectory/107881.aspx'
p602
aS'/MembersSection/MemberDirectory/107879.aspx'
p603
aS'/MembersSection/MemberDirectory/30549.aspx'
p604
aS'/MembersSection/MemberDirectory/30748.aspx'
p605
aS'/MembersSection/MemberDirectory/30756.aspx'
p606
aS'/MembersSection/MemberDirectory/29887.aspx'
p607
aS'/MembersSection/MemberDirectory/69262.aspx'
p608
aS'/MembersSection/MemberDirectory/27687.aspx'
p609
aS'/MembersSection/MemberDirectory/30513.aspx'
p610
aS'/MembersSection/MemberDirectory/29442.aspx'
p611
aS'/MembersSection/MemberDirectory/107930.aspx'
p612
aS'/MembersSection/MemberDirectory/29440.aspx'
p613
aS'/MembersSection/MemberDirectory/30850.aspx'
p614
aS'/MembersSection/MemberDirectory/30968.aspx'
p615
aS'/MembersSection/MemberDirectory/27635.aspx'
p616
aS'/MembersSection/MemberDirectory/69263.aspx'
p617
aS'/MembersSection/MemberDirectory/149862.aspx'
p618
aS'/MembersSection/MemberDirectory/130223.aspx'
p619
aS'/MembersSection/MemberDirectory/29430.aspx'
p620
aS'/MembersSection/MemberDirectory/27815.aspx'
p621
aS'/MembersSection/MemberDirectory/29429.aspx'
p622
aS'/MembersSection/MemberDirectory/28232.aspx'
p623
aS'/MembersSection/MemberDirectory/30916.aspx'
p624
aS'/MembersSection/MemberDirectory/30202.aspx'
p625
aS'/MembersSection/MemberDirectory/30757.aspx'
p626
aS'/MembersSection/MemberDirectory/56102.aspx'
p627
aS'/MembersSection/MemberDirectory/165630.aspx'
p628
aS'/MembersSection/MemberDirectory/29424.aspx'
p629
aS'/MembersSection/MemberDirectory/29967.aspx'
p630
aS'/MembersSection/MemberDirectory/107929.aspx'
p631
aS'/MembersSection/MemberDirectory/31116.aspx'
p632
aS'/MembersSection/MemberDirectory/28169.aspx'
p633
aS'/MembersSection/MemberDirectory/30812.aspx'
p634
aS'/MembersSection/MemberDirectory/30449.aspx'
p635
aS'/MembersSection/MemberDirectory/42092.aspx'
p636
aS'/MembersSection/MemberDirectory/29927.aspx'
p637
aS'/MembersSection/MemberDirectory/162044/30407.aspx'
p638
aS'/MembersSection/MemberDirectory/27634.aspx'
p639
aS'/MembersSection/MemberDirectory/29413.aspx'
p640
aS'/MembersSection/MemberDirectory/29414.aspx'
p641
aS'/MembersSection/MemberDirectory/29415.aspx'
p642
aS'/MembersSection/MemberDirectory/130224.aspx'
p643
aS'/MembersSection/MemberDirectory/29411.aspx'
p644
aS'/MembersSection/MemberDirectory/29412.aspx'
p645
aS'/MembersSection/MemberDirectory/29410.aspx'
p646
aS'/MembersSection/MemberDirectory/165631.aspx'
p647
aS'/MembersSection/MemberDirectory/107928.aspx'
p648
aS'/MembersSection/MemberDirectory/29405.aspx'
p649
aS'/MembersSection/MemberDirectory/29404.aspx'
p650
aS'/MembersSection/MemberDirectory/29846.aspx'
p651
aS'/MembersSection/MemberDirectory/30550.aspx'
p652
aS'/MembersSection/MemberDirectory/27686.aspx'
p653
aS'/MembersSection/MemberDirectory/69228.aspx'
p654
aS'/MembersSection/MemberDirectory/31077.aspx'
p655
aS'/MembersSection/MemberDirectory/56122.aspx'
p656
aS'/MembersSection/MemberDirectory/56137.aspx'
p657
aS'/MembersSection/MemberDirectory/30017.aspx'
p658
aS'/MembersSection/MemberDirectory/149863.aspx'
p659
aS'/MembersSection/MemberDirectory/27996.aspx'
p660
aS'/MembersSection/MemberDirectory/29399.aspx'
p661
aS'/MembersSection/MemberDirectory/69239.aspx'
p662
aS'/MembersSection/MemberDirectory/30758.aspx'
p663
aS'/MembersSection/MemberDirectory/29396.aspx'
p664
aS'/MembersSection/MemberDirectory/107871.aspx'
p665
aS'/MembersSection/MemberDirectory/107927.aspx'
p666
aS'/MembersSection/MemberDirectory/30876.aspx'
p667
aS'/MembersSection/MemberDirectory/30127.aspx'
p668
aS'/MembersSection/MemberDirectory/29391.aspx'
p669
aS'/MembersSection/MemberDirectory/56138.aspx'
p670
aS'/MembersSection/MemberDirectory/31078.aspx'
p671
aS'/MembersSection/MemberDirectory/29951.aspx'
p672
aS'/MembersSection/MemberDirectory/28036.aspx'
p673
aS'/MembersSection/MemberDirectory/29952.aspx'
p674
aS'/MembersSection/MemberDirectory/30018.aspx'
p675
aS'/MembersSection/MemberDirectory/30008.aspx'
p676
aS'/MembersSection/MemberDirectory/30252.aspx'
p677
aS'/MembersSection/MemberDirectory/42068.aspx'
p678
aS'/MembersSection/MemberDirectory/27685.aspx'
p679
aS'/MembersSection/MemberDirectory/27995.aspx'
p680
aS'/MembersSection/MemberDirectory/30019.aspx'
p681
aS'/MembersSection/MemberDirectory/29856.aspx'
p682
aS'/MembersSection/MemberDirectory/29381.aspx'
p683
aS'/MembersSection/MemberDirectory/29382.aspx'
p684
aS'/MembersSection/MemberDirectory/30092.aspx'
p685
aS'/MembersSection/MemberDirectory/28023.aspx'
p686
aS'/MembersSection/MemberDirectory/29808.aspx'
p687
aS'/MembersSection/MemberDirectory/107907.aspx'
p688
aS'/MembersSection/MemberDirectory/29377.aspx'
p689
aS'/MembersSection/MemberDirectory/29375.aspx'
p690
aS'/MembersSection/MemberDirectory/29373.aspx'
p691
aS'/MembersSection/MemberDirectory/30020.aspx'
p692
aS'/MembersSection/MemberDirectory/107888.aspx'
p693
aS'/MembersSection/MemberDirectory/30587.aspx'
p694
aS'/MembersSection/MemberDirectory/31030.aspx'
p695
aS'/MembersSection/MemberDirectory/30539.aspx'
p696
aS'/MembersSection/MemberDirectory/130127.aspx'
p697
aS'/MembersSection/MemberDirectory/30624.aspx'
p698
aS'/MembersSection/MemberDirectory/30278.aspx'
p699
aS'/MembersSection/MemberDirectory/29370.aspx'
p700
aS'/MembersSection/MemberDirectory/30399.aspx'
p701
aS'/MembersSection/MemberDirectory/30053.aspx'
p702
aS'/MembersSection/MemberDirectory/30579.aspx'
p703
aS'/MembersSection/MemberDirectory/30597.aspx'
p704
aS'/MembersSection/MemberDirectory/30204.aspx'
p705
aS'/MembersSection/MemberDirectory/31079.aspx'
p706
aS'/MembersSection/MemberDirectory/69212.aspx'
p707
aS'/MembersSection/MemberDirectory/165682.aspx'
p708
aS'/MembersSection/MemberDirectory/29368.aspx'
p709
aS'/MembersSection/MemberDirectory/27704.aspx'
p710
aS'/MembersSection/MemberDirectory/27609.aspx'
p711
aS'/MembersSection/MemberDirectory/29365.aspx'
p712
aS'/MembersSection/MemberDirectory/69219.aspx'
p713
aS'/MembersSection/MemberDirectory/30189.aspx'
p714
aS'/MembersSection/MemberDirectory/29362.aspx'
p715
aS'/MembersSection/MemberDirectory/29363.aspx'
p716
aS'/MembersSection/MemberDirectory/30408.aspx'
p717
aS'/MembersSection/MemberDirectory/30168.aspx'
p718
aS'/MembersSection/MemberDirectory/130220.aspx'
p719
aS'/MembersSection/MemberDirectory/30710.aspx'
p720
aS'/MembersSection/MemberDirectory/30279.aspx'
p721
aS'/MembersSection/MemberDirectory/28009.aspx'
p722
aS'/MembersSection/MemberDirectory/69284.aspx'
p723
aS'/MembersSection/MemberDirectory/29953.aspx'
p724
aS'/MembersSection/MemberDirectory/30409.aspx'
p725
aS'/MembersSection/MemberDirectory/30507.aspx'
p726
aS'/MembersSection/MemberDirectory/30813.aspx'
p727
aS'/MembersSection/MemberDirectory/29357.aspx'
p728
aS'/MembersSection/MemberDirectory/28003.aspx'
p729
aS'/MembersSection/MemberDirectory/31032.aspx'
p730
aS'/MembersSection/MemberDirectory/29996.aspx'
p731
aS'/MembersSection/MemberDirectory/29352.aspx'
p732
aS'/MembersSection/MemberDirectory/30759.aspx'
p733
aS'/MembersSection/MemberDirectory/30141.aspx'
p734
aS'/MembersSection/MemberDirectory/165683.aspx'
p735
aS'/MembersSection/MemberDirectory/27922.aspx'
p736
aS'/MembersSection/MemberDirectory/30877.aspx'
p737
aS'/MembersSection/MemberDirectory/29350.aspx'
p738
aS'/MembersSection/MemberDirectory/30983.aspx'
p739
aS'/MembersSection/MemberDirectory/165684.aspx'
p740
aS'/MembersSection/MemberDirectory/30760.aspx'
p741
aS'/MembersSection/MemberDirectory/69264.aspx'
p742
aS'/MembersSection/MemberDirectory/30793.aspx'
p743
aS'/MembersSection/MemberDirectory/29346.aspx'
p744
aS'/MembersSection/MemberDirectory/30814.aspx'
p745
aS'/MembersSection/MemberDirectory/29345.aspx'
p746
aS'/MembersSection/MemberDirectory/29342.aspx'
p747
aS'/MembersSection/MemberDirectory/29343.aspx'
p748
aS'/MembersSection/MemberDirectory/30815.aspx'
p749
aS'/MembersSection/MemberDirectory/28056.aspx'
p750
aS'/MembersSection/MemberDirectory/107906.aspx'
p751
aS'/MembersSection/MemberDirectory/56129.aspx'
p752
aS'/MembersSection/MemberDirectory/27637.aspx'
p753
aS'/MembersSection/MemberDirectory/30734.aspx'
p754
aS'/MembersSection/MemberDirectory/29340.aspx'
p755
aS'/MembersSection/MemberDirectory/27880.aspx'
p756
aS'/MembersSection/MemberDirectory/29338.aspx'
p757
aS'/MembersSection/MemberDirectory/29337.aspx'
p758
aS'/MembersSection/MemberDirectory/27642.aspx'
p759
aS'/MembersSection/MemberDirectory/30206.aspx'
p760
aS'/MembersSection/MemberDirectory/30145.aspx'
p761
aS'/MembersSection/MemberDirectory/29334.aspx'
p762
aS'/MembersSection/MemberDirectory/69217.aspx'
p763
aS'/MembersSection/MemberDirectory/29332.aspx'
p764
aS'/MembersSection/MemberDirectory/29330.aspx'
p765
aS'/MembersSection/MemberDirectory/31117.aspx'
p766
aS'/MembersSection/MemberDirectory/172713/149846.aspx'
p767
aS'/MembersSection/MemberDirectory/29328.aspx'
p768
aS'/MembersSection/MemberDirectory/30352.aspx'
p769
aS'/MembersSection/MemberDirectory/56139.aspx'
p770
aS'/MembersSection/MemberDirectory/30169.aspx'
p771
aS'/MembersSection/MemberDirectory/165632.aspx'
p772
aS'/MembersSection/MemberDirectory/30471.aspx'
p773
aS'/MembersSection/MemberDirectory/30005.aspx'
p774
aS'/MembersSection/MemberDirectory/27684.aspx'
p775
aS'/MembersSection/MemberDirectory/130225.aspx'
p776
aS'/MembersSection/MemberDirectory/172713/130226.aspx'
p777
aS'/MembersSection/MemberDirectory/31080.aspx'
p778
aS'/MembersSection/MemberDirectory/29322.aspx'
p779
aS'/MembersSection/MemberDirectory/28025.aspx'
p780
aS'/MembersSection/MemberDirectory/29321.aspx'
p781
aS'/MembersSection/MemberDirectory/30472.aspx'
p782
aS'/MembersSection/MemberDirectory/29319.aspx'
p783
aS'/MembersSection/MemberDirectory/30023.aspx'
p784
aS'/MembersSection/MemberDirectory/30280.aspx'
p785
aS'/MembersSection/MemberDirectory/31105.aspx'
p786
aS'/MembersSection/MemberDirectory/31119.aspx'
p787
aS'/MembersSection/MemberDirectory/165633.aspx'
p788
aS'/MembersSection/MemberDirectory/130227.aspx'
p789
aS'/MembersSection/MemberDirectory/31081.aspx'
p790
aS'/MembersSection/MemberDirectory/42053.aspx'
p791
aS'/MembersSection/MemberDirectory/30878.aspx'
p792
aS'/MembersSection/MemberDirectory/130219.aspx'
p793
aS'/MembersSection/Sections/ChemicalEngineering/167519/167522/174786/27557.aspx'
p794
aS'/MembersSection/MemberDirectory/27903.aspx'
p795
aS'/MembersSection/MemberDirectory/29312.aspx'
p796
aS'/MembersSection/MemberDirectory/130139.aspx'
p797
aS'/MembersSection/MemberDirectory/27608.aspx'
p798
aS'/MembersSection/MemberDirectory/30851.aspx'
p799
aS'/MembersSection/MemberDirectory/29310.aspx'
p800
aS'/MembersSection/MemberDirectory/30623.aspx'
p801
aS'/MembersSection/MemberDirectory/30930.aspx'
p802
aS'/MembersSection/MemberDirectory/29309.aspx'
p803
aS'/MembersSection/MemberDirectory/56098.aspx'
p804
aS'/MembersSection/MemberDirectory/130228.aspx'
p805
aS'/MembersSection/MemberDirectory/27606.aspx'
p806
aS'/MembersSection/MemberDirectory/29940.aspx'
p807
aS'/MembersSection/MemberDirectory/29988.aspx'
p808
aS'/MembersSection/MemberDirectory/165601.aspx'
p809
aS'/MembersSection/MemberDirectory/27604.aspx'
p810
aS'/MembersSection/MemberDirectory/27941.aspx'
p811
aS'/MembersSection/MemberDirectory/28228.aspx'
p812
aS'/MembersSection/MemberDirectory/30879.aspx'
p813
aS'/MembersSection/MemberDirectory/30861.aspx'
p814
aS'/MembersSection/MemberDirectory/29304.aspx'
p815
aS'/MembersSection/MemberDirectory/29303.aspx'
p816
aS'/MembersSection/MemberDirectory/29302.aspx'
p817
aS'/MembersSection/MemberDirectory/28052.aspx'
p818
aS'/MembersSection/MemberDirectory/27639.aspx'
p819
aS'/MembersSection/MemberDirectory/30246.aspx'
p820
aS'/MembersSection/MemberDirectory/69265.aspx'
p821
aS'/MembersSection/MemberDirectory/29811.aspx'
p822
aS'/MembersSection/MemberDirectory/30094.aspx'
p823
aS'/MembersSection/MemberDirectory/42070.aspx'
p824
aS'/MembersSection/MemberDirectory/56109.aspx'
p825
aS'/MembersSection/MemberDirectory/30859.aspx'
p826
aS'/MembersSection/MemberDirectory/28301.aspx'
p827
aS'/MembersSection/MemberDirectory/149819.aspx'
p828
aS'/MembersSection/MemberDirectory/29296.aspx'
p829
aS'/MembersSection/MemberDirectory/27792.aspx'
p830
aS'/MembersSection/MemberDirectory/29935.aspx'
p831
aS'/MembersSection/MemberDirectory/30095.aspx'
p832
aS'/MembersSection/MemberDirectory/165602.aspx'
p833
aS'/MembersSection/MemberDirectory/27603.aspx'
p834
aS'/MembersSection/MemberDirectory/30150.aspx'
p835
aS'/MembersSection/MemberDirectory/30024.aspx'
p836
aS'/MembersSection/MemberDirectory/29289.aspx'
p837
aS'/MembersSection/MemberDirectory/149865.aspx'
p838
aS'/MembersSection/MemberDirectory/29813.aspx'
p839
aS'/MembersSection/MemberDirectory/30761.aspx'
p840
aS'/MembersSection/MemberDirectory/30170.aspx'
p841
aS'/MembersSection/MemberDirectory/30001.aspx'
p842
aS'/MembersSection/MemberDirectory/69266.aspx'
p843
aS'/MembersSection/MemberDirectory/30096.aspx'
p844
aS'/MembersSection/MemberDirectory/31033.aspx'
p845
aS'/MembersSection/MemberDirectory/30075.aspx'
p846
aS'/MembersSection/MemberDirectory/30762.aspx'
p847
aS'/MembersSection/MemberDirectory/42050.aspx'
p848
aS'/MembersSection/MemberDirectory/56141.aspx'
p849
aS'/MembersSection/MemberDirectory/30508.aspx'
p850
aS'/MembersSection/MemberDirectory/31026.aspx'
p851
aS'/MembersSection/MemberDirectory/29288.aspx'
p852
aS'/MembersSection/MemberDirectory/29863.aspx'
p853
aS'/MembersSection/MemberDirectory/30061.aspx'
p854
aS'/MembersSection/MemberDirectory/130206.aspx'
p855
aS'/MembersSection/MemberDirectory/27708.aspx'
p856
aS'/MembersSection/MemberDirectory/130229.aspx'
p857
aS'/MembersSection/MemberDirectory/165634.aspx'
p858
aS'/MembersSection/MemberDirectory/149908.aspx'
p859
aS'/MembersSection/MemberDirectory/28226.aspx'
p860
aS'/MembersSection/MemberDirectory/165635.aspx'
p861
aS'/MembersSection/MemberDirectory/69226.aspx'
p862
aS'/MembersSection/MemberDirectory/27647.aspx'
p863
aS'/MembersSection/MemberDirectory/31120.aspx'
p864
aS'/MembersSection/MemberDirectory/27950.aspx'
p865
aS'/MembersSection/MemberDirectory/30026.aspx'
p866
aS'/MembersSection/MemberDirectory/31034.aspx'
p867
aS'/MembersSection/MemberDirectory/165685.aspx'
p868
aS'/MembersSection/MemberDirectory/28073.aspx'
p869
aS'/MembersSection/MemberDirectory/30281.aspx'
p870
aS'/MembersSection/MemberDirectory/165686.aspx'
p871
aS'/MembersSection/MemberDirectory/29280.aspx'
p872
aS'/MembersSection/MemberDirectory/30248.aspx'
p873
aS'/MembersSection/MemberDirectory/107882.aspx'
p874
aS'/MembersSection/Sections/ChemicalEngineering/167519/167522/167534/27920.aspx'
p875
aS'/MembersSection/MemberDirectory/29272.aspx'
p876
aS'/MembersSection/MemberDirectory/30151.aspx'
p877
aS'/MembersSection/MemberDirectory/30985.aspx'
p878
aS'/MembersSection/MemberDirectory/130140.aspx'
p879
aS'/MembersSection/MemberDirectory/165606.aspx'
p880
aS'/MembersSection/MemberDirectory/29266.aspx'
p881
aS'/MembersSection/MemberDirectory/29269.aspx'
p882
aS'/MembersSection/MemberDirectory/30210.aspx'
p883
aS'/MembersSection/MemberDirectory/29265.aspx'
p884
aS'/MembersSection/MemberDirectory/42071.aspx'
p885
aS'/MembersSection/MemberDirectory/30245.aspx'
p886
aS'/MembersSection/MemberDirectory/27869.aspx'
p887
aS'/MembersSection/MemberDirectory/29259.aspx'
p888
aS'/MembersSection/MemberDirectory/30128.aspx'
p889
aS'/MembersSection/MemberDirectory/69235.aspx'
p890
aS'/MembersSection/MemberDirectory/29258.aspx'
p891
aS'/MembersSection/MemberDirectory/29257.aspx'
p892
aS'/MembersSection/MemberDirectory/30622.aspx'
p893
aS'/MembersSection/MemberDirectory/69267.aspx'
p894
aS'/MembersSection/MemberDirectory/107905.aspx'
p895
aS'/MembersSection/MemberDirectory/30283.aspx'
p896
aS'/MembersSection/MemberDirectory/29252.aspx'
p897
aS'/MembersSection/MemberDirectory/27644.aspx'
p898
aS'/MembersSection/MemberDirectory/29249.aspx'
p899
aS'/MembersSection/Sections/CivilEngineering/167546/167550/167552/30880.aspx'
p900
aS'/MembersSection/Sections/Electronics/167363/167365/174769/42027.aspx'
p901
aS'/MembersSection/MemberDirectory/31035.aspx'
p902
aS'/MembersSection/MemberDirectory/29814.aspx'
p903
aS'/MembersSection/MemberDirectory/30552.aspx'
p904
aS'/MembersSection/MemberDirectory/29247.aspx'
p905
aS'/MembersSection/MemberDirectory/27680.aspx'
p906
aS'/MembersSection/MemberDirectory/165636.aspx'
p907
aS'/MembersSection/MemberDirectory/149866.aspx'
p908
aS'/MembersSection/MemberDirectory/27703.aspx'
p909
aS'/MembersSection/MemberDirectory/29243.aspx'
p910
aS'/MembersSection/MemberDirectory/29242.aspx'
p911
aS'/MembersSection/MemberDirectory/28225.aspx'
p912
aS'/MembersSection/MemberDirectory/30523.aspx'
p913
aS'/MembersSection/MemberDirectory/149867.aspx'
p914
aS'/MembersSection/MemberDirectory/162047/56108.aspx'
p915
aS'/MembersSection/MemberDirectory/31056.aspx'
p916
aS'/MembersSection/MemberDirectory/28075.aspx'
p917
aS'/MembersSection/MemberDirectory/107926.aspx'
p918
aS'/MembersSection/MemberDirectory/27879.aspx'
p919
aS'/MembersSection/MemberDirectory/31014.aspx'
p920
aS'/MembersSection/MemberDirectory/28252.aspx'
p921
aS'/MembersSection/MemberDirectory/30067.aspx'
p922
aS'/MembersSection/MemberDirectory/29227.aspx'
p923
aS'/MembersSection/MemberDirectory/42025.aspx'
p924
aS'/MembersSection/MemberDirectory/29224.aspx'
p925
aS'/MembersSection/MemberDirectory/29223.aspx'
p926
aS'/MembersSection/MemberDirectory/30816.aspx'
p927
aS'/MembersSection/MemberDirectory/27775.aspx'
p928
aS'/MembersSection/MemberDirectory/130230.aspx'
p929
aS'/MembersSection/MemberDirectory/29875.aspx'
p930
aS'/MembersSection/MemberDirectory/69213.aspx'
p931
aS'/MembersSection/MemberDirectory/130125.aspx'
p932
aS'/MembersSection/MemberDirectory/69247.aspx'
p933
aS'/MembersSection/MemberDirectory/29219.aspx'
p934
aS'/MembersSection/MemberDirectory/29214.aspx'
p935
aS'/MembersSection/MemberDirectory/29868.aspx'
p936
aS'/MembersSection/MemberDirectory/28289.aspx'
p937
aS'/MembersSection/MemberDirectory/30391.aspx'
p938
aS'/MembersSection/MemberDirectory/30284.aspx'
p939
aS'/MembersSection/MemberDirectory/30072.aspx'
p940
aS'/MembersSection/MemberDirectory/69220.aspx'
p941
aS'/MembersSection/MemberDirectory/30509.aspx'
p942
aS'/MembersSection/MemberDirectory/27839.aspx'
p943
aS'/MembersSection/MemberDirectory/30318.aspx'
p944
aS'/MembersSection/MemberDirectory/30324.aspx'
p945
aS'/MembersSection/MemberDirectory/28150.aspx'
p946
aS'/MembersSection/MemberDirectory/56164.aspx'
p947
aS'/MembersSection/MemberDirectory/30553.aspx'
p948
aS'/MembersSection/MemberDirectory/27749.aspx'
p949
aS'/MembersSection/MemberDirectory/149909.aspx'
p950
aS'/MembersSection/MemberDirectory/149910.aspx'
p951
aS'/MembersSection/MemberDirectory/149868.aspx'
p952
aS'/MembersSection/MemberDirectory/29815.aspx'
p953
aS'/MembersSection/MemberDirectory/30580.aspx'
p954
aS'/MembersSection/MemberDirectory/165637.aspx'
p955
aS'/MembersSection/MemberDirectory/29209.aspx'
p956
aS'/MembersSection/MemberDirectory/30285.aspx'
p957
aS'/MembersSection/MemberDirectory/149869.aspx'
p958
aS'/MembersSection/MemberDirectory/27838.aspx'
p959
aS'/MembersSection/MemberDirectory/30286.aspx'
p960
aS'/MembersSection/MemberDirectory/30621.aspx'
p961
aS'/MembersSection/MemberDirectory/30957.aspx'
p962
aS'/MembersSection/MemberDirectory/29203.aspx'
p963
aS'/MembersSection/MemberDirectory/30152.aspx'
p964
aS'/MembersSection/MemberDirectory/29983.aspx'
p965
aS'/MembersSection/MemberDirectory/30958.aspx'
p966
aS'/MembersSection/MemberDirectory/29202.aspx'
p967
aS'/MembersSection/MemberDirectory/30881.aspx'
p968
aS'/MembersSection/MemberDirectory/42036.aspx'
p969
aS'/MembersSection/MemberDirectory/56124.aspx'
p970
aS'/MembersSection/MemberDirectory/30097.aspx'
p971
aS'/MembersSection/MemberDirectory/29195.aspx'
p972
aS'/MembersSection/MemberDirectory/161973/30742.aspx'
p973
aS'/MembersSection/MemberDirectory/165638.aspx'
p974
aS'/MembersSection/MemberDirectory/165639.aspx'
p975
aS'/MembersSection/MemberDirectory/29187.aspx'
p976
aS'/MembersSection/MemberDirectory/69285.aspx'
p977
aS'/MembersSection/MemberDirectory/30882.aspx'
p978
aS'/MembersSection/MemberDirectory/28024.aspx'
p979
aS'/MembersSection/MemberDirectory/29183.aspx'
p980
aS'/MembersSection/MemberDirectory/29184.aspx'
p981
aS'/MembersSection/MemberDirectory/28083.aspx'
p982
aS'/MembersSection/MemberDirectory/107883.aspx'
p983
aS'/MembersSection/MemberDirectory/29867.aspx'
p984
aS'/MembersSection/MemberDirectory/30620.aspx'
p985
aS'/MembersSection/MemberDirectory/30986.aspx'
p986
aS'/MembersSection/MemberDirectory/29179.aspx'
p987
aS'/MembersSection/MemberDirectory/30153.aspx'
p988
aS'/MembersSection/MemberDirectory/30319.aspx'
p989
aS'/MembersSection/MemberDirectory/29871.aspx'
p990
aS'/MembersSection/MemberDirectory/30098.aspx'
p991
aS'/MembersSection/MemberDirectory/30524.aspx'
p992
aS'/MembersSection/MemberDirectory/69241.aspx'
p993
aS'/MembersSection/MemberDirectory/29177.aspx'
p994
aS'/MembersSection/MemberDirectory/29172.aspx'
p995
aS'/MembersSection/MemberDirectory/30475.aspx'
p996
aS'/MembersSection/MemberDirectory/30883.aspx'
p997
aS'/MembersSection/MemberDirectory/165640.aspx'
p998
aS'/MembersSection/MemberDirectory/30884.aspx'
p999
aS'/MembersSection/MemberDirectory/30931.aspx'
p1000
aS'/MembersSection/MemberDirectory/130231.aspx'
p1001
aS'/MembersSection/MemberDirectory/130232.aspx'
p1002
aS'/MembersSection/MemberDirectory/29998.aspx'
p1003
aS'/MembersSection/MemberDirectory/30288.aspx'
p1004
aS'/MembersSection/MemberDirectory/130233.aspx'
p1005
aS'/MembersSection/MemberDirectory/165641.aspx'
p1006
aS'/MembersSection/MemberDirectory/30411.aspx'
p1007
aS'/MembersSection/MemberDirectory/30554.aspx'
p1008
aS'/MembersSection/MemberDirectory/149821.aspx'
p1009
aS'/MembersSection/MemberDirectory/31121.aspx'
p1010
aS'/MembersSection/MemberDirectory/69268.aspx'
p1011
aS'/MembersSection/MemberDirectory/28148.aspx'
p1012
aS'/MembersSection/MemberDirectory/29165.aspx'
p1013
aS'/MembersSection/MemberDirectory/42058.aspx'
p1014
aS'/MembersSection/MemberDirectory/29163.aspx'
p1015
aS'/MembersSection/MemberDirectory/27622.aspx'
p1016
aS'/MembersSection/MemberDirectory/29161.aspx'
p1017
aS'/MembersSection/MemberDirectory/30187.aspx'
p1018
aS'/MembersSection/MemberDirectory/29160.aspx'
p1019
aS'/MembersSection/MemberDirectory/29159.aspx'
p1020
aS'/MembersSection/MemberDirectory/30354.aspx'
p1021
aS'/MembersSection/MemberDirectory/27992.aspx'
p1022
aS'/MembersSection/MemberDirectory/30476.aspx'
p1023
aS'/MembersSection/MemberDirectory/28243.aspx'
p1024
aS'/MembersSection/MemberDirectory/31009.aspx'
p1025
aS'/MembersSection/MemberDirectory/30140.aspx'
p1026
aS'/MembersSection/MemberDirectory/30461.aspx'
p1027
aS'/MembersSection/MemberDirectory/30959.aspx'
p1028
aS'/MembersSection/MemberDirectory/31012.aspx'
p1029
aS'/MembersSection/MemberDirectory/165642.aspx'
p1030
aS'/MembersSection/MemberDirectory/29922.aspx'
p1031
aS'/MembersSection/MemberDirectory/30450.aspx'
p1032
aS'/MembersSection/MemberDirectory/27769.aspx'
p1033
aS'/MembersSection/MemberDirectory/31057.aspx'
p1034
aS'/MembersSection/MemberDirectory/56165.aspx'
p1035
aS'/MembersSection/MemberDirectory/28005.aspx'
p1036
aS'/MembersSection/MemberDirectory/28222.aspx'
p1037
aS'/MembersSection/MemberDirectory/56142.aspx'
p1038
aS'/MembersSection/MemberDirectory/30515.aspx'
p1039
aS'/MembersSection/MemberDirectory/30477.aspx'
p1040
aS'/MembersSection/MemberDirectory/28247.aspx'
p1041
aS'/MembersSection/MemberDirectory/28266.aspx'
p1042
aS'/MembersSection/MemberDirectory/30240.aspx'
p1043
aS'/MembersSection/MemberDirectory/28294.aspx'
p1044
aS'/MembersSection/MemberDirectory/29152.aspx'
p1045
aS'/MembersSection/MemberDirectory/30241.aspx'
p1046
aS'/MembersSection/MemberDirectory/30412.aspx'
p1047
aS'/MembersSection/MemberDirectory/30852.aspx'
p1048
aS'/MembersSection/MemberDirectory/29150.aspx'
p1049
aS'/MembersSection/MemberDirectory/29151.aspx'
p1050
aS'/MembersSection/MemberDirectory/29816.aspx'
p1051
aS'/MembersSection/MemberDirectory/31082.aspx'
p1052
aS'/MembersSection/MemberDirectory/149870.aspx'
p1053
aS'/MembersSection/MemberDirectory/29149.aspx'
p1054
aS'/MembersSection/MemberDirectory/30818.aspx'
p1055
aS'/MembersSection/MemberDirectory/42056.aspx'
p1056
aS'/MembersSection/MemberDirectory/30932.aspx'
p1057
aS'/MembersSection/MemberDirectory/130194.aspx'
p1058
aS'/MembersSection/MemberDirectory/149845.aspx'
p1059
aS'/MembersSection/MemberDirectory/30801.aspx'
p1060
aS'/MembersSection/MemberDirectory/31083.aspx'
p1061
aS'/MembersSection/MemberDirectory/29144.aspx'
p1062
aS'/MembersSection/MemberDirectory/130218.aspx'
p1063
aS'/MembersSection/MemberDirectory/28051.aspx'
p1064
aS'/MembersSection/MemberDirectory/30908.aspx'
p1065
aS'/MembersSection/MemberDirectory/29143.aspx'
p1066
aS'/MembersSection/MemberDirectory/30355.aspx'
p1067
aS'/MembersSection/MemberDirectory/30211.aspx'
p1068
aS'/MembersSection/MemberDirectory/29140.aspx'
p1069
aS'/MembersSection/MemberDirectory/30555.aspx'
p1070
aS'/MembersSection/MemberDirectory/29137.aspx'
p1071
aS'/MembersSection/MemberDirectory/28042.aspx'
p1072
aS'/MembersSection/MemberDirectory/27748.aspx'
p1073
aS'/MembersSection/MemberDirectory/30987.aspx'
p1074
aS'/MembersSection/MemberDirectory/149911.aspx'
p1075
aS'/MembersSection/MemberDirectory/30478.aspx'
p1076
aS'/MembersSection/MemberDirectory/29136.aspx'
p1077
aS'/MembersSection/MemberDirectory/149871.aspx'
p1078
aS'/MembersSection/MemberDirectory/149824.aspx'
p1079
aS'/MembersSection/MemberDirectory/27747.aspx'
p1080
aS'/MembersSection/MemberDirectory/27572.aspx'
p1081
aS'/MembersSection/MemberDirectory/29130.aspx'
p1082
aS'/MembersSection/MemberDirectory/29962.aspx'
p1083
aS'/MembersSection/MemberDirectory/29963.aspx'
p1084
aS'/MembersSection/MemberDirectory/30479.aspx'
p1085
aS'/MembersSection/MemberDirectory/30413.aspx'
p1086
aS'/MembersSection/MemberDirectory/31122.aspx'
p1087
aS'/MembersSection/MemberDirectory/42040.aspx'
p1088
aS'/MembersSection/MemberDirectory/27677.aspx'
p1089
aS'/MembersSection/MemberDirectory/56143.aspx'
p1090
aS'/MembersSection/MemberDirectory/27636.aspx'
p1091
aS'/MembersSection/MemberDirectory/29861.aspx'
p1092
aS'/MembersSection/MemberDirectory/29121.aspx'
p1093
aS'/MembersSection/MemberDirectory/31123.aspx'
p1094
aS'/MembersSection/MemberDirectory/30481.aspx'
p1095
aS'/MembersSection/MemberDirectory/107872.aspx'
p1096
aS'/MembersSection/Sections/ComputerScience/167315/167317/167331/107925.aspx'
p1097
aS'/MembersSection/MemberDirectory/29116.aspx'
p1098
aS'/MembersSection/MemberDirectory/130234.aspx'
p1099
aS'/MembersSection/MemberDirectory/30482.aspx'
p1100
aS'/MembersSection/MemberDirectory/30290.aspx'
p1101
aS'/MembersSection/MemberDirectory/107924.aspx'
p1102
aS'/MembersSection/MemberDirectory/30819.aspx'
p1103
aS'/MembersSection/MemberDirectory/27721.aspx'
p1104
aS'/MembersSection/MemberDirectory/27555.aspx'
p1105
aS'/MembersSection/MemberDirectory/30934.aspx'
p1106
aS'/MembersSection/MemberDirectory/30909.aspx'
p1107
aS'/MembersSection/MemberDirectory/31124.aspx'
p1108
aS'/MembersSection/MemberDirectory/28046.aspx'
p1109
aS'/MembersSection/MemberDirectory/69269.aspx'
p1110
aS'/MembersSection/MemberDirectory/29114.aspx'
p1111
aS'/MembersSection/MemberDirectory/27626.aspx'
p1112
aS'/MembersSection/MemberDirectory/149838.aspx'
p1113
aS'/MembersSection/MemberDirectory/162047/30456.aspx'
p1114
aS'/MembersSection/MemberDirectory/29112.aspx'
p1115
aS'/MembersSection/MemberDirectory/29925.aspx'
p1116
aS'/MembersSection/MemberDirectory/27857.aspx'
p1117
aS'/MembersSection/MemberDirectory/28071.aspx'
p1118
aS'/MembersSection/MemberDirectory/28015.aspx'
p1119
aS'/MembersSection/MemberDirectory/30320.aspx'
p1120
aS'/MembersSection/MemberDirectory/27837.aspx'
p1121
aS'/MembersSection/MemberDirectory/28011.aspx'
p1122
aS'/MembersSection/MemberDirectory/42072.aspx'
p1123
aS'/MembersSection/MemberDirectory/29995.aspx'
p1124
aS'/MembersSection/MemberDirectory/31106.aspx'
p1125
aS'/MembersSection/MemberDirectory/29819.aspx'
p1126
aS'/MembersSection/MemberDirectory/27910.aspx'
p1127
aS'/MembersSection/MemberDirectory/31125.aspx'
p1128
aS'/MembersSection/MemberDirectory/29893.aspx'
p1129
aS'/MembersSection/MemberDirectory/29106.aspx'
p1130
aS'/MembersSection/MemberDirectory/30028.aspx'
p1131
aS'/MembersSection/MemberDirectory/28013.aspx'
p1132
aS'/MembersSection/MemberDirectory/165643.aspx'
p1133
aS'/MembersSection/MemberDirectory/165687.aspx'
p1134
aS'/MembersSection/MemberDirectory/29930.aspx'
p1135
aS'/MembersSection/MemberDirectory/30129.aspx'
p1136
aS'/MembersSection/Sections/SpecialFields/167493/167495/167511/27627.aspx'
p1137
aS'/MembersSection/MemberDirectory/165644.aspx'
p1138
aS'/MembersSection/MemberDirectory/27556.aspx'
p1139
aS'/MembersSection/MemberDirectory/30820.aspx'
p1140
aS'/MembersSection/MemberDirectory/28019.aspx'
p1141
aS'/MembersSection/MemberDirectory/69243.aspx'
p1142
aS'/MembersSection/MemberDirectory/30291.aspx'
p1143
aS'/MembersSection/MemberDirectory/29104.aspx'
p1144
aS'/MembersSection/MemberDirectory/30483.aspx'
p1145
aS'/MembersSection/MemberDirectory/30885.aspx'
p1146
aS'/MembersSection/MemberDirectory/29103.aspx'
p1147
aS'/MembersSection/MemberDirectory/31016.aspx'
p1148
aS'/MembersSection/MemberDirectory/29102.aspx'
p1149
aS'/MembersSection/MemberDirectory/30910.aspx'
p1150
aS'/MembersSection/MemberDirectory/29101.aspx'
p1151
aS'/MembersSection/MemberDirectory/29864.aspx'
p1152
aS'/MembersSection/MemberDirectory/27886.aspx'
p1153
aS'/MembersSection/MemberDirectory/29099.aspx'
p1154
aS'/MembersSection/MemberDirectory/149873.aspx'
p1155
aS'/MembersSection/MemberDirectory/30414.aspx'
p1156
aS'/MembersSection/MemberDirectory/69248.aspx'
p1157
aS'/MembersSection/MemberDirectory/56166.aspx'
p1158
aS'/MembersSection/MemberDirectory/30743.aspx'
p1159
aS'/MembersSection/MemberDirectory/28285.aspx'
p1160
aS'/MembersSection/MemberDirectory/30971.aspx'
p1161
aS'/MembersSection/MemberDirectory/30184.aspx'
p1162
aS'/MembersSection/MemberDirectory/29096.aspx'
p1163
aS'/MembersSection/MemberDirectory/30416.aspx'
p1164
aS'/MembersSection/MemberDirectory/31126.aspx'
p1165
aS'/MembersSection/MemberDirectory/30528.aspx'
p1166
aS'/MembersSection/MemberDirectory/30863.aspx'
p1167
aS'/MembersSection/MemberDirectory/165688.aspx'
p1168
aS'/MembersSection/MemberDirectory/27812.aspx'
p1169
aS'/MembersSection/MemberDirectory/162038/27947.aspx'
p1170
aS'/MembersSection/MemberDirectory/56167.aspx'
p1171
aS'/MembersSection/MemberDirectory/149834.aspx'
p1172
aS'/MembersSection/MemberDirectory/30589.aspx'
p1173
aS'/MembersSection/MemberDirectory/30521.aspx'
p1174
aS'/MembersSection/MemberDirectory/30185.aspx'
p1175
aS'/MembersSection/MemberDirectory/30171.aspx'
p1176
aS'/MembersSection/MemberDirectory/29082.aspx'
p1177
aS'/MembersSection/MemberDirectory/29083.aspx'
p1178
aS'/MembersSection/MemberDirectory/30763.aspx'
p1179
aS'/MembersSection/MemberDirectory/30765.aspx'
p1180
aS'/MembersSection/MemberDirectory/27597.aspx'
p1181
aS'/MembersSection/MemberDirectory/165689.aspx'
p1182
aS'/MembersSection/MemberDirectory/30935.aspx'
p1183
aS'/MembersSection/MemberDirectory/31107.aspx'
p1184
aS'/MembersSection/MemberDirectory/30988.aspx'
p1185
aS'/MembersSection/MemberDirectory/107923.aspx'
p1186
aS'/MembersSection/MemberDirectory/42073.aspx'
p1187
aS'/MembersSection/MemberDirectory/149874.aspx'
p1188
aS'/MembersSection/MemberDirectory/30936.aspx'
p1189
aS'/MembersSection/MemberDirectory/30536.aspx'
p1190
aS'/MembersSection/MemberDirectory/130235.aspx'
p1191
aS'/MembersSection/MemberDirectory/29075.aspx'
p1192
aS'/MembersSection/MemberDirectory/29964.aspx'
p1193
aS'/MembersSection/MemberDirectory/130141.aspx'
p1194
aS'/MembersSection/MemberDirectory/107867.aspx'
p1195
aS'/MembersSection/MemberDirectory/30357.aspx'
p1196
aS'/MembersSection/MemberDirectory/30785.aspx'
p1197
aS'/MembersSection/MemberDirectory/29072.aspx'
p1198
aS'/MembersSection/MemberDirectory/27988.aspx'
p1199
aS'/MembersSection/MemberDirectory/69227.aspx'
p1200
aS'/MembersSection/MemberDirectory/30937.aspx'
p1201
aS'/MembersSection/MemberDirectory/31084.aspx'
p1202
aS'/MembersSection/MemberDirectory/30485.aspx'
p1203
aS'/MembersSection/MemberDirectory/30417.aspx'
p1204
aS'/MembersSection/MemberDirectory/30358.aspx'
p1205
aS'/MembersSection/MemberDirectory/27745.aspx'
p1206
aS'/MembersSection/MemberDirectory/28140.aspx'
p1207
aS'/MembersSection/MemberDirectory/30213.aspx'
p1208
aS'/MembersSection/MemberDirectory/69215.aspx'
p1209
aS'/MembersSection/MemberDirectory/42046.aspx'
p1210
aS'/MembersSection/MemberDirectory/130195.aspx'
p1211
aS'/MembersSection/MemberDirectory/42074.aspx'
p1212
aS'/MembersSection/MemberDirectory/30821.aspx'
p1213
aS'/MembersSection/MemberDirectory/30418.aspx'
p1214
aS'/MembersSection/MemberDirectory/31010.aspx'
p1215
aS'/MembersSection/MemberDirectory/149875.aspx'
p1216
aS'/MembersSection/MemberDirectory/30938.aspx'
p1217
aS'/MembersSection/MemberDirectory/29066.aspx'
p1218
aS'/MembersSection/MemberDirectory/30486.aspx'
p1219
aS'/MembersSection/MemberDirectory/29063.aspx'
p1220
aS'/MembersSection/MemberDirectory/149876.aspx'
p1221
aS'/MembersSection/MemberDirectory/30292.aspx'
p1222
aS'/MembersSection/MemberDirectory/30585.aspx'
p1223
aS'/MembersSection/MemberDirectory/29062.aspx'
p1224
aS'/MembersSection/MemberDirectory/107895.aspx'
p1225
aS'/MembersSection/MemberDirectory/30556.aspx'
p1226
aS'/MembersSection/MemberDirectory/29061.aspx'
p1227
aS'/MembersSection/MemberDirectory/30328.aspx'
p1228
aS'/MembersSection/MemberDirectory/30029.aspx'
p1229
aS'/MembersSection/MemberDirectory/56146.aspx'
p1230
aS'/MembersSection/MemberDirectory/27923.aspx'
p1231
aS'/MembersSection/MemberDirectory/30332.aspx'
p1232
aS'/MembersSection/MemberDirectory/30598.aspx'
p1233
aS'/MembersSection/MemberDirectory/27855.aspx'
p1234
aS'/MembersSection/MemberDirectory/30919.aspx'
p1235
aS'/MembersSection/MemberDirectory/130209.aspx'
p1236
aS'/MembersSection/MemberDirectory/69234.aspx'
p1237
aS'/MembersSection/MemberDirectory/30154.aspx'
p1238
aS'/MembersSection/MemberDirectory/42093.aspx'
p1239
aS'/MembersSection/MemberDirectory/29056.aspx'
p1240
aS'/MembersSection/MemberDirectory/30420.aspx'
p1241
aS'/MembersSection/MemberDirectory/29992.aspx'
p1242
aS'/MembersSection/MemberDirectory/30030.aspx'
p1243
aS'/MembersSection/MemberDirectory/30557.aspx'
p1244
aS'/MembersSection/MemberDirectory/42021.aspx'
p1245
aS'/MembersSection/MemberDirectory/31127.aspx'
p1246
aS'/MembersSection/MemberDirectory/30457.aspx'
p1247
aS'/MembersSection/MemberDirectory/30581.aspx'
p1248
aS'/MembersSection/MemberDirectory/27578.aspx'
p1249
aS'/MembersSection/MemberDirectory/29052.aspx'
p1250
aS'/MembersSection/MemberDirectory/30155.aspx'
p1251
aS'/MembersSection/MemberDirectory/29050.aspx'
p1252
aS'/MembersSection/MemberDirectory/30031.aspx'
p1253
aS'/MembersSection/MemberDirectory/30214.aspx'
p1254
aS'/MembersSection/MemberDirectory/30293.aspx'
p1255
aS'/MembersSection/MemberDirectory/30989.aspx'
p1256
aS'/MembersSection/MemberDirectory/30939.aspx'
p1257
aS'/MembersSection/MemberDirectory/29954.aspx'
p1258
aS'/MembersSection/MemberDirectory/29821.aspx'
p1259
aS'/MembersSection/MemberDirectory/29045.aspx'
p1260
aS'/MembersSection/MemberDirectory/29041.aspx'
p1261
aS'/MembersSection/MemberDirectory/27638.aspx'
p1262
aS'/MembersSection/MemberDirectory/30360.aspx'
p1263
aS'/MembersSection/MemberDirectory/29955.aspx'
p1264
aS'/MembersSection/MemberDirectory/29033.aspx'
p1265
aS'/MembersSection/MemberDirectory/30541.aspx'
p1266
aS'/MembersSection/MemberDirectory/31128.aspx'
p1267
aS'/MembersSection/MemberDirectory/29965.aspx'
p1268
aS'/MembersSection/MemberDirectory/30766.aspx'
p1269
aS'/MembersSection/MemberDirectory/56147.aspx'
p1270
aS'/MembersSection/MemberDirectory/30822.aspx'
p1271
aS'/MembersSection/MemberDirectory/29028.aspx'
p1272
aS'/MembersSection/MemberDirectory/27986.aspx'
p1273
aS'/MembersSection/MemberDirectory/27931.aspx'
p1274
aS'/MembersSection/MemberDirectory/29934.aspx'
p1275
aS'/MembersSection/MemberDirectory/42033.aspx'
p1276
aS'/MembersSection/MemberDirectory/162053/69225.aspx'
p1277
aS'/MembersSection/MemberDirectory/30618.aspx'
p1278
aS'/MembersSection/MemberDirectory/30215.aspx'
p1279
aS'/MembersSection/MemberDirectory/30558.aspx'
p1280
aS'/MembersSection/MemberDirectory/30767.aspx'
p1281
aS'/MembersSection/MemberDirectory/27712.aspx'
p1282
aS'/MembersSection/MemberDirectory/27836.aspx'
p1283
aS'/MembersSection/MemberDirectory/30102.aspx'
p1284
aS'/MembersSection/MemberDirectory/28082.aspx'
p1285
aS'/MembersSection/MemberDirectory/165608.aspx'
p1286
aS'/MembersSection/MemberDirectory/114634/69223.aspx'
p1287
aS'/MembersSection/MemberDirectory/28220.aspx'
p1288
aS'/MembersSection/MemberDirectory/29966.aspx'
p1289
aS'/MembersSection/MemberDirectory/29016.aspx'
p1290
aS'/MembersSection/MemberDirectory/30340.aspx'
p1291
aS'/MembersSection/MemberDirectory/30421.aspx'
p1292
aS'/MembersSection/MemberDirectory/42075.aspx'
p1293
aS'/MembersSection/MemberDirectory/31145.aspx'
p1294
aS'/MembersSection/MemberDirectory/30990.aspx'
p1295
aS'/MembersSection/MemberDirectory/30853.aspx'
p1296
aS'/MembersSection/MemberDirectory/27552.aspx'
p1297
aS'/MembersSection/MemberDirectory/30823.aspx'
p1298
aS'/MembersSection/MemberDirectory/149877.aspx'
p1299
aS'/MembersSection/MemberDirectory/29010.aspx'
p1300
aS'/MembersSection/MemberDirectory/27744.aspx'
p1301
aS'/MembersSection/MemberDirectory/29924.aspx'
p1302
aS'/MembersSection/MemberDirectory/29933.aspx'
p1303
aS'/MembersSection/MemberDirectory/29009.aspx'
p1304
aS'/MembersSection/MemberDirectory/30739.aspx'
p1305
aS'/MembersSection/MemberDirectory/27786.aspx'
p1306
aS'/MembersSection/MemberDirectory/69249.aspx'
p1307
aS'/MembersSection/MemberDirectory/31058.aspx'
p1308
aS'/MembersSection/MemberDirectory/27835.aspx'
p1309
aS'/MembersSection/MemberDirectory/165690.aspx'
p1310
aS'/MembersSection/MemberDirectory/30329.aspx'
p1311
aS'/MembersSection/MemberDirectory/30768.aspx'
p1312
aS'/MembersSection/MemberDirectory/29874.aspx'
p1313
aS'/MembersSection/MemberDirectory/165646.aspx'
p1314
aS'/MembersSection/MemberDirectory/29910.aspx'
p1315
aS'/MembersSection/MemberDirectory/28026.aspx'
p1316
aS'/MembersSection/MemberDirectory/29005.aspx'
p1317
aS'/MembersSection/MemberDirectory/27648.aspx'
p1318
aS'/MembersSection/MemberDirectory/30616.aspx'
p1319
aS'/MembersSection/MemberDirectory/30824.aspx'
p1320
aS'/MembersSection/MemberDirectory/30216.aspx'
p1321
aS'/MembersSection/MemberDirectory/42076.aspx'
p1322
aS'/MembersSection/MemberDirectory/165609.aspx'
p1323
aS'/MembersSection/MemberDirectory/56148.aspx'
p1324
aS'/MembersSection/MemberDirectory/27596.aspx'
p1325
aS'/MembersSection/MemberDirectory/30940.aspx'
p1326
aS'/MembersSection/MemberDirectory/69250.aspx'
p1327
aS'/MembersSection/MemberDirectory/28998.aspx'
p1328
aS'/MembersSection/MemberDirectory/27566.aspx'
p1329
aS'/MembersSection/MemberDirectory/30769.aspx'
p1330
aS'/MembersSection/MemberDirectory/165597.aspx'
p1331
aS'/MembersSection/MemberDirectory/30886.aspx'
p1332
aS'/MembersSection/MemberDirectory/28993.aspx'
p1333
aS'/MembersSection/MemberDirectory/30422.aspx'
p1334
aS'/MembersSection/MemberDirectory/31038.aspx'
p1335
aS'/MembersSection/MemberDirectory/130135.aspx'
p1336
aS'/MembersSection/MemberDirectory/31129.aspx'
p1337
aS'/MembersSection/MemberDirectory/149878.aspx'
p1338
aS'/MembersSection/MemberDirectory/30294.aspx'
p1339
aS'/MembersSection/MemberDirectory/162015/29941.aspx'
p1340
aS'/MembersSection/MemberDirectory/28984.aspx'
p1341
aS'/MembersSection/MemberDirectory/165598.aspx'
p1342
aS'/MembersSection/MemberDirectory/31039.aspx'
p1343
aS'/MembersSection/MemberDirectory/28983.aspx'
p1344
aS'/MembersSection/MemberDirectory/27743.aspx'
p1345
aS'/MembersSection/MemberDirectory/30451.aspx'
p1346
aS'/MembersSection/MemberDirectory/27675.aspx'
p1347
aS'/MembersSection/MemberDirectory/30295.aspx'
p1348
aS'/MembersSection/MemberDirectory/56168.aspx'
p1349
aS'/MembersSection/MemberDirectory/149879.aspx'
p1350
aS'/MembersSection/MemberDirectory/165645.aspx'
p1351
aS'/MembersSection/MemberDirectory/27833.aspx'
p1352
aS'/MembersSection/MemberDirectory/28080.aspx'
p1353
aS'/MembersSection/MemberDirectory/30615.aspx'
p1354
aS'/MembersSection/MemberDirectory/42037.aspx'
p1355
aS'/MembersSection/MemberDirectory/130129.aspx'
p1356
aS'/MembersSection/MemberDirectory/31040.aspx'
p1357
aS'/MembersSection/MemberDirectory/30032.aspx'
p1358
aS'/MembersSection/MemberDirectory/30854.aspx'
p1359
aS'/MembersSection/MemberDirectory/31041.aspx'
p1360
aS'/MembersSection/MemberDirectory/28980.aspx'
p1361
aS'/MembersSection/MemberDirectory/29822.aspx'
p1362
aS'/MembersSection/MemberDirectory/28979.aspx'
p1363
aS'/MembersSection/MemberDirectory/162034/31085.aspx'
p1364
aS'/MembersSection/MemberDirectory/69270.aspx'
p1365
aS'/MembersSection/MemberDirectory/30786.aspx'
p1366
aS'/MembersSection/MemberDirectory/165691.aspx'
p1367
aS'/MembersSection/MemberDirectory/130142.aspx'
p1368
aS'/MembersSection/MemberDirectory/30333.aspx'
p1369
aS'/MembersSection/MemberDirectory/27674.aspx'
p1370
aS'/MembersSection/MemberDirectory/28972.aspx'
p1371
aS'/MembersSection/MemberDirectory/30825.aspx'
p1372
aS'/MembersSection/MemberDirectory/30487.aspx'
p1373
aS'/MembersSection/MemberDirectory/30488.aspx'
p1374
aS'/MembersSection/MemberDirectory/107922.aspx'
p1375
aS'/MembersSection/MemberDirectory/28967.aspx'
p1376
aS'/MembersSection/MemberDirectory/28966.aspx'
p1377
aS'/MembersSection/MemberDirectory/28963.aspx'
p1378
aS'/MembersSection/MemberDirectory/28257.aspx'
p1379
aS'/MembersSection/MemberDirectory/30156.aspx'
p1380
aS'/MembersSection/MemberDirectory/42094.aspx'
p1381
aS'/MembersSection/MemberDirectory/28959.aspx'
p1382
aS'/MembersSection/MemberDirectory/162085/30073.aspx'
p1383
aS'/MembersSection/MemberDirectory/69271.aspx'
p1384
aS'/MembersSection/MemberDirectory/42052.aspx'
p1385
aS'/MembersSection/MemberDirectory/28957.aspx'
p1386
aS'/MembersSection/MemberDirectory/30526.aspx'
p1387
aS'/MembersSection/MemberDirectory/30076.aspx'
p1388
aS'/MembersSection/MemberDirectory/28219.aspx'
p1389
aS'/MembersSection/MemberDirectory/30540.aspx'
p1390
aS'/MembersSection/MemberDirectory/28218.aspx'
p1391
aS'/MembersSection/MemberDirectory/28956.aspx'
p1392
aS'/MembersSection/MemberDirectory/27914.aspx'
p1393
aS'/MembersSection/MemberDirectory/28953.aspx'
p1394
aS'/MembersSection/MemberDirectory/28951.aspx'
p1395
aS'/MembersSection/MemberDirectory/30006.aspx'
p1396
aS'/MembersSection/MemberDirectory/28950.aspx'
p1397
aS'/MembersSection/MemberDirectory/29898.aspx'
p1398
aS'/MembersSection/MemberDirectory/30217.aspx'
p1399
aS'/MembersSection/MemberDirectory/30559.aspx'
p1400
aS'/MembersSection/MemberDirectory/27742.aspx'
p1401
aS'/MembersSection/MemberDirectory/30737.aspx'
p1402
aS'/MembersSection/MemberDirectory/29971.aspx'
p1403
aS'/MembersSection/MemberDirectory/30325.aspx'
p1404
aS'/MembersSection/MemberDirectory/42077.aspx'
p1405
aS'/MembersSection/MemberDirectory/27918.aspx'
p1406
aS'/MembersSection/MemberDirectory/29823.aspx'
p1407
aS'/MembersSection/MemberDirectory/149880.aspx'
p1408
aS'/MembersSection/MemberDirectory/42078.aspx'
p1409
aS'/MembersSection/MemberDirectory/27787.aspx'
p1410
aS'/MembersSection/MemberDirectory/149835.aspx'
p1411
aS'/MembersSection/MemberDirectory/30787.aspx'
p1412
aS'/MembersSection/MemberDirectory/162036/30887.aspx'
p1413
aS'/MembersSection/MemberDirectory/42079.aspx'
p1414
aS'/MembersSection/MemberDirectory/30361.aspx'
p1415
aS'/MembersSection/MemberDirectory/165692.aspx'
p1416
aS'/MembersSection/MemberDirectory/29899.aspx'
p1417
aS'/MembersSection/MemberDirectory/149881.aspx'
p1418
aS'/MembersSection/MemberDirectory/28944.aspx'
p1419
aS'/MembersSection/MemberDirectory/56149.aspx'
p1420
aS'/MembersSection/MemberDirectory/29824.aspx'
p1421
aS'/MembersSection/MemberDirectory/27899.aspx'
p1422
aS'/MembersSection/MemberDirectory/30855.aspx'
p1423
aS'/MembersSection/MemberDirectory/29923.aspx'
p1424
aS'/MembersSection/MemberDirectory/28938.aspx'
p1425
aS'/MembersSection/MemberDirectory/28242.aspx'
p1426
aS'/MembersSection/MemberDirectory/29825.aspx'
p1427
aS'/MembersSection/MemberDirectory/28936.aspx'
p1428
aS'/MembersSection/MemberDirectory/30826.aspx'
p1429
aS'/MembersSection/MemberDirectory/27567.aspx'
p1430
aS'/MembersSection/MemberDirectory/56101.aspx'
p1431
aS'/MembersSection/MemberDirectory/31043.aspx'
p1432
aS'/MembersSection/MemberDirectory/30415.aspx'
p1433
aS'/MembersSection/MemberDirectory/30788.aspx'
p1434
aS'/MembersSection/MemberDirectory/155021/31130.aspx'
p1435
aS'/MembersSection/MemberDirectory/27892.aspx'
p1436
aS'/MembersSection/MemberDirectory/29900.aspx'
p1437
aS'/MembersSection/MemberDirectory/31044.aspx'
p1438
aS'/MembersSection/MemberDirectory/130217.aspx'
p1439
aS'/MembersSection/MemberDirectory/30789.aspx'
p1440
aS'/MembersSection/MemberDirectory/42080.aspx'
p1441
aS'/MembersSection/MemberDirectory/42095.aspx'
p1442
aS'/MembersSection/MemberDirectory/27807.aspx'
p1443
aS'/MembersSection/MemberDirectory/27878.aspx'
p1444
aS'/MembersSection/MemberDirectory/28930.aspx'
p1445
aS'/MembersSection/MemberDirectory/28135.aspx'
p1446
aS'/MembersSection/MemberDirectory/30103.aspx'
p1447
aS'/MembersSection/MemberDirectory/28928.aspx'
p1448
aS'/MembersSection/MemberDirectory/28251.aspx'
p1449
aS'/MembersSection/MemberDirectory/30157.aspx'
p1450
aS'/MembersSection/MemberDirectory/28926.aspx'
p1451
aS'/MembersSection/MemberDirectory/29902.aspx'
p1452
aS'/MembersSection/MemberDirectory/30363.aspx'
p1453
aS'/MembersSection/MemberDirectory/28078.aspx'
p1454
aS'/MembersSection/MemberDirectory/30364.aspx'
p1455
aS'/MembersSection/MemberDirectory/28923.aspx'
p1456
aS'/MembersSection/MemberDirectory/56150.aspx'
p1457
aS'/MembersSection/MemberDirectory/165647.aspx'
p1458
aS'/MembersSection/MemberDirectory/30827.aspx'
p1459
aS'/MembersSection/MemberDirectory/28915.aspx'
p1460
aS'/MembersSection/MemberDirectory/130143.aspx'
p1461
aS'/MembersSection/MemberDirectory/30218.aspx'
p1462
aS'/MembersSection/MemberDirectory/28912.aspx'
p1463
aS'/MembersSection/MemberDirectory/28007.aspx'
p1464
aS'/MembersSection/MemberDirectory/30423.aspx'
p1465
aS'/MembersSection/MemberDirectory/30366.aspx'
p1466
aS'/MembersSection/MemberDirectory/29829.aspx'
p1467
aS'/MembersSection/MemberDirectory/27806.aspx'
p1468
aS'/MembersSection/MemberDirectory/28304.aspx'
p1469
aS'/MembersSection/MemberDirectory/30396.aspx'
p1470
aS'/MembersSection/MemberDirectory/28908.aspx'
p1471
aS'/MembersSection/MemberDirectory/29855.aspx'
p1472
aS'/MembersSection/MemberDirectory/42051.aspx'
p1473
aS'/MembersSection/MemberDirectory/28905.aspx'
p1474
aS'/MembersSection/MemberDirectory/28904.aspx'
p1475
aS'/MembersSection/MemberDirectory/56106.aspx'
p1476
aS'/MembersSection/MemberDirectory/28902.aspx'
p1477
aS'/MembersSection/MemberDirectory/30888.aspx'
p1478
aS'/MembersSection/MemberDirectory/30889.aspx'
p1479
aS'/MembersSection/MemberDirectory/28898.aspx'
p1480
aS'/MembersSection/MemberDirectory/28897.aspx'
p1481
aS'/MembersSection/MemberDirectory/30219.aspx'
p1482
aS'/MembersSection/MemberDirectory/107904.aspx'
p1483
aS'/MembersSection/MemberDirectory/28894.aspx'
p1484
aS'/MembersSection/MemberDirectory/28893.aspx'
p1485
aS'/MembersSection/MemberDirectory/27983.aspx'
p1486
aS'/MembersSection/MemberDirectory/29994.aspx'
p1487
aS'/MembersSection/MemberDirectory/28892.aspx'
p1488
aS'/MembersSection/MemberDirectory/30794.aspx'
p1489
aS'/MembersSection/MemberDirectory/69272.aspx'
p1490
aS'/MembersSection/MemberDirectory/28887.aspx'
p1491
aS'/MembersSection/MemberDirectory/27628.aspx'
p1492
aS'/MembersSection/MemberDirectory/28215.aspx'
p1493
aS'/MembersSection/MemberDirectory/56169.aspx'
p1494
aS'/MembersSection/MemberDirectory/27925.aspx'
p1495
aS'/MembersSection/MemberDirectory/30104.aspx'
p1496
aS'/MembersSection/MemberDirectory/30614.aspx'
p1497
aS'/MembersSection/MemberDirectory/30991.aspx'
p1498
aS'/MembersSection/MemberDirectory/149912.aspx'
p1499
aS'/MembersSection/MemberDirectory/107880.aspx'
p1500
aS'/MembersSection/MemberDirectory/30242.aspx'
p1501
aS'/MembersSection/MemberDirectory/31011.aspx'
p1502
aS'/MembersSection/MemberDirectory/56151.aspx'
p1503
aS'/MembersSection/MemberDirectory/30489.aspx'
p1504
aS'/MembersSection/MemberDirectory/30296.aspx'
p1505
aS'/MembersSection/MemberDirectory/149913.aspx'
p1506
aS'/MembersSection/MemberDirectory/42039.aspx'
p1507
aS'/MembersSection/MemberDirectory/30105.aspx'
p1508
aS'/MembersSection/MemberDirectory/28878.aspx'
p1509
aS'/MembersSection/MemberDirectory/56110.aspx'
p1510
aS'/MembersSection/MemberDirectory/27650.aspx'
p1511
aS'/MembersSection/MemberDirectory/29981.aspx'
p1512
aS'/MembersSection/MemberDirectory/30635.aspx'
p1513
aS'/MembersSection/MemberDirectory/30518.aspx'
p1514
aS'/MembersSection/MemberDirectory/31045.aspx'
p1515
aS'/MembersSection/MemberDirectory/31086.aspx'
p1516
aS'/MembersSection/MemberDirectory/27594.aspx'
p1517
aS'/MembersSection/MemberDirectory/27864.aspx'
p1518
aS'/MembersSection/MemberDirectory/27982.aspx'
p1519
aS'/MembersSection/MemberDirectory/30860.aspx'
p1520
aS'/MembersSection/MemberDirectory/31087.aspx'
p1521
aS'/MembersSection/MemberDirectory/107921.aspx'
p1522
aS'/MembersSection/MemberDirectory/56152.aspx'
p1523
aS'/MembersSection/MemberDirectory/28296.aspx'
p1524
aS'/MembersSection/MemberDirectory/28869.aspx'
p1525
aS'/MembersSection/MemberDirectory/30398.aspx'
p1526
aS'/MembersSection/MemberDirectory/30158.aspx'
p1527
aS'/MembersSection/MemberDirectory/30770.aspx'
p1528
aS'/MembersSection/MemberDirectory/130144.aspx'
p1529
aS'/MembersSection/MemberDirectory/27893.aspx'
p1530
aS'/MembersSection/MemberDirectory/27809.aspx'
p1531
aS'/MembersSection/MemberDirectory/30941.aspx'
p1532
aS'/MembersSection/MemberDirectory/28122.aspx'
p1533
aS'/MembersSection/MemberDirectory/107920.aspx'
p1534
aS'/MembersSection/MemberDirectory/31088.aspx'
p1535
aS'/MembersSection/MemberDirectory/107919.aspx'
p1536
aS'/MembersSection/MemberDirectory/30297.aspx'
p1537
aS'/MembersSection/MemberDirectory/28867.aspx'
p1538
aS'/MembersSection/MemberDirectory/29989.aspx'
p1539
aS'/MembersSection/MemberDirectory/165648.aspx'
p1540
aS'/MembersSection/MemberDirectory/69240.aspx'
p1541
aS'/MembersSection/MemberDirectory/28865.aspx'
p1542
aS'/MembersSection/MemberDirectory/165649.aspx'
p1543
aS'/MembersSection/MemberDirectory/28864.aspx'
p1544
aS'/MembersSection/MemberDirectory/29831.aspx'
p1545
aS'/MembersSection/MemberDirectory/69273.aspx'
p1546
aS'/MembersSection/MemberDirectory/30368.aspx'
p1547
aS'/MembersSection/MemberDirectory/30560.aspx'
p1548
aS'/MembersSection/MemberDirectory/29858.aspx'
p1549
aS'/MembersSection/MemberDirectory/31131.aspx'
p1550
aS'/MembersSection/MemberDirectory/27810.aspx'
p1551
aS'/MembersSection/MemberDirectory/28860.aspx'
p1552
aS'/MembersSection/MemberDirectory/30992.aspx'
p1553
aS'/MembersSection/MemberDirectory/149901.aspx'
p1554
aS'/MembersSection/MemberDirectory/28039.aspx'
p1555
aS'/MembersSection/MemberDirectory/28853.aspx'
p1556
aS'/MembersSection/MemberDirectory/29903.aspx'
p1557
aS'/MembersSection/MemberDirectory/28851.aspx'
p1558
aS'/MembersSection/MemberDirectory/30993.aspx'
p1559
aS'/MembersSection/MemberDirectory/30561.aspx'
p1560
aS'/MembersSection/MemberDirectory/30613.aspx'
p1561
aS'/MembersSection/MemberDirectory/31132.aspx'
p1562
aS'/MembersSection/MemberDirectory/28846.aspx'
p1563
aS'/MembersSection/MemberDirectory/31089.aspx'
p1564
aS'/MembersSection/MemberDirectory/31017.aspx'
p1565
aS'/MembersSection/MemberDirectory/27740.aspx'
p1566
aS'/MembersSection/MemberDirectory/30159.aspx'
p1567
aS'/MembersSection/MemberDirectory/30427.aspx'
p1568
aS'/MembersSection/MemberDirectory/69274.aspx'
p1569
aS'/MembersSection/MemberDirectory/30612.aspx'
p1570
aS'/MembersSection/MemberDirectory/27546.aspx'
p1571
aS'/MembersSection/MemberDirectory/130128.aspx'
p1572
aS'/MembersSection/MemberDirectory/30298.aspx'
p1573
aS'/MembersSection/MemberDirectory/107892.aspx'
p1574
aS'/MembersSection/MemberDirectory/162055/27796.aspx'
p1575
aS'/MembersSection/MemberDirectory/28840.aspx'
p1576
aS'/MembersSection/MemberDirectory/30066.aspx'
p1577
aS'/MembersSection/MemberDirectory/162027/69245.aspx'
p1578
aS'/MembersSection/MemberDirectory/30250.aspx'
p1579
aS'/MembersSection/MemberDirectory/30611.aspx'
p1580
aS'/MembersSection/MemberDirectory/31146.aspx'
p1581
aS'/MembersSection/MemberDirectory/30771.aspx'
p1582
aS'/MembersSection/MemberDirectory/130145.aspx'
p1583
aS'/MembersSection/MemberDirectory/28832.aspx'
p1584
aS'/MembersSection/MemberDirectory/30943.aspx'
p1585
aS'/MembersSection/MemberDirectory/30890.aspx'
p1586
aS'/MembersSection/MemberDirectory/30790.aspx'
p1587
aS'/MembersSection/MemberDirectory/130210.aspx'
p1588
aS'/MembersSection/MemberDirectory/165650.aspx'
p1589
aS'/MembersSection/MemberDirectory/28828.aspx'
p1590
aS'/MembersSection/MemberDirectory/27653.aspx'
p1591
aS'/MembersSection/MemberDirectory/28827.aspx'
p1592
aS'/MembersSection/MemberDirectory/165651.aspx'
p1593
aS'/MembersSection/MemberDirectory/28826.aspx'
p1594
aS'/MembersSection/MemberDirectory/30593.aspx'
p1595
aS'/MembersSection/MemberDirectory/30460.aspx'
p1596
aS'/MembersSection/MemberDirectory/31046.aspx'
p1597
aS'/MembersSection/MemberDirectory/56153.aspx'
p1598
aS'/MembersSection/MemberDirectory/30428.aspx'
p1599
aS'/MembersSection/MemberDirectory/29904.aspx'
p1600
aS'/MembersSection/MemberDirectory/27593.aspx'
p1601
aS'/MembersSection/MemberDirectory/30562.aspx'
p1602
aS'/MembersSection/MemberDirectory/28824.aspx'
p1603
aS'/MembersSection/MemberDirectory/165652.aspx'
p1604
aS'/MembersSection/MemberDirectory/27867.aspx'
p1605
aS'/MembersSection/MemberDirectory/130216.aspx'
p1606
aS'/MembersSection/MemberDirectory/27673.aspx'
p1607
aS'/MembersSection/MemberDirectory/28823.aspx'
p1608
aS'/MembersSection/MemberDirectory/30106.aspx'
p1609
aS'/MembersSection/MemberDirectory/31133.aspx'
p1610
aS'/MembersSection/MemberDirectory/30994.aspx'
p1611
aS'/MembersSection/MemberDirectory/30299.aspx'
p1612
aS'/MembersSection/MemberDirectory/27672.aspx'
p1613
aS'/MembersSection/MemberDirectory/28820.aspx'
p1614
aS'/MembersSection/MemberDirectory/30256.aspx'
p1615
aS'/MembersSection/MemberDirectory/28119.aspx'
p1616
aS'/MembersSection/MemberDirectory/31147.aspx'
p1617
aS'/MembersSection/MemberDirectory/165139/31061.aspx'
p1618
aS'/MembersSection/MemberDirectory/165604.aspx'
p1619
aS'/MembersSection/MemberDirectory/29986.aspx'
p1620
aS'/MembersSection/MemberDirectory/31047.aspx'
p1621
aS'/MembersSection/MemberDirectory/29970.aspx'
p1622
aS'/MembersSection/MemberDirectory/31148.aspx'
p1623
aS'/MembersSection/MemberDirectory/28815.aspx'
p1624
aS'/MembersSection/MemberDirectory/31090.aspx'
p1625
aS'/MembersSection/MemberDirectory/28275.aspx'
p1626
aS'/MembersSection/MemberDirectory/42044.aspx'
p1627
aS'/MembersSection/MemberDirectory/28813.aspx'
p1628
aS'/MembersSection/MemberDirectory/130208.aspx'
p1629
aS'/MembersSection/MemberDirectory/69236.aspx'
p1630
aS'/MembersSection/MemberDirectory/107918.aspx'
p1631
aS'/MembersSection/MemberDirectory/27781.aspx'
p1632
aS'/MembersSection/MemberDirectory/29905.aspx'
p1633
aS'/MembersSection/MemberDirectory/27771.aspx'
p1634
aS'/MembersSection/MemberDirectory/56154.aspx'
p1635
aS'/MembersSection/MemberDirectory/165693.aspx'
p1636
aS'/MembersSection/MemberDirectory/29906.aspx'
p1637
aS'/MembersSection/MemberDirectory/27929.aspx'
p1638
aS'/MembersSection/MemberDirectory/42024.aspx'
p1639
aS'/MembersSection/MemberDirectory/31091.aspx'
p1640
aS'/MembersSection/MemberDirectory/56155.aspx'
p1641
aS'/MembersSection/MemberDirectory/28798.aspx'
p1642
aS'/MembersSection/MemberDirectory/28796.aspx'
p1643
aS'/MembersSection/MemberDirectory/149882.aspx'
p1644
aS'/MembersSection/MemberDirectory/30160.aspx'
p1645
aS'/MembersSection/MemberDirectory/31134.aspx'
p1646
aS'/MembersSection/MemberDirectory/30772.aspx'
p1647
aS'/MembersSection/MemberDirectory/30799.aspx'
p1648
aS'/MembersSection/MemberDirectory/30300.aspx'
p1649
aS'/MembersSection/MemberDirectory/28807.aspx'
p1650
aS'/MembersSection/MemberDirectory/29939.aspx'
p1651
aS'/MembersSection/MemberDirectory/30255.aspx'
p1652
aS'/MembersSection/MemberDirectory/28789.aspx'
p1653
aS'/MembersSection/MemberDirectory/30182.aspx'
p1654
aS'/MembersSection/MemberDirectory/42030.aspx'
p1655
aS'/MembersSection/MemberDirectory/149830.aspx'
p1656
aS'/MembersSection/MemberDirectory/28804.aspx'
p1657
aS'/MembersSection/MemberDirectory/30336.aspx'
p1658
aS'/MembersSection/MemberDirectory/69221.aspx'
p1659
aS'/MembersSection/MemberDirectory/30610.aspx'
p1660
aS'/MembersSection/MemberDirectory/30830.aspx'
p1661
aS'/MembersSection/MemberDirectory/27861.aspx'
p1662
aS'/MembersSection/MemberDirectory/30301.aspx'
p1663
aS'/MembersSection/MemberDirectory/30891.aspx'
p1664
aS'/MembersSection/MemberDirectory/27774.aspx'
p1665
aS'/MembersSection/MemberDirectory/69242.aspx'
p1666
aS'/MembersSection/MemberDirectory/42096.aspx'
p1667
aS'/MembersSection/MemberDirectory/30074.aspx'
p1668
aS'/MembersSection/MemberDirectory/30574.aspx'
p1669
aS'/MembersSection/MemberDirectory/30944.aspx'
p1670
aS'/MembersSection/MemberDirectory/30831.aspx'
p1671
aS'/MembersSection/MemberDirectory/28781.aspx'
p1672
aS'/MembersSection/MemberDirectory/30172.aspx'
p1673
aS'/MembersSection/MemberDirectory/30534.aspx'
p1674
aS'/MembersSection/MemberDirectory/165653.aspx'
p1675
aS'/MembersSection/MemberDirectory/28777.aspx'
p1676
aS'/MembersSection/MemberDirectory/30323.aspx'
p1677
aS'/MembersSection/MemberDirectory/30537.aspx'
p1678
aS'/MembersSection/MemberDirectory/28775.aspx'
p1679
aS'/MembersSection/MemberDirectory/27739.aspx'
p1680
aS'/MembersSection/MemberDirectory/28770.aspx'
p1681
aS'/MembersSection/MemberDirectory/28773.aspx'
p1682
aS'/MembersSection/MemberDirectory/30832.aspx'
p1683
aS'/MembersSection/MemberDirectory/30917.aspx'
p1684
aS'/MembersSection/MemberDirectory/28769.aspx'
p1685
aS'/MembersSection/MemberDirectory/30060.aspx'
p1686
aS'/MembersSection/MemberDirectory/31135.aspx'
p1687
aS'/MembersSection/MemberDirectory/165654.aspx'
p1688
aS'/MembersSection/MemberDirectory/30945.aspx'
p1689
aS'/MembersSection/MemberDirectory/30221.aspx'
p1690
aS'/MembersSection/MemberDirectory/27641.aspx'
p1691
aS'/MembersSection/MemberDirectory/29928.aspx'
p1692
aS'/MembersSection/MemberDirectory/28765.aspx'
p1693
aS'/MembersSection/MemberDirectory/28764.aspx'
p1694
aS'/MembersSection/MemberDirectory/107917.aspx'
p1695
aS'/MembersSection/MemberDirectory/27569.aspx'
p1696
aS'/MembersSection/MemberDirectory/30370.aspx'
p1697
aS'/MembersSection/MemberDirectory/27738.aspx'
p1698
aS'/MembersSection/MemberDirectory/28260.aspx'
p1699
aS'/MembersSection/MemberDirectory/30946.aspx'
p1700
aS'/MembersSection/MemberDirectory/107916.aspx'
p1701
aS'/MembersSection/MemberDirectory/28763.aspx'
p1702
aS'/MembersSection/MemberDirectory/30107.aspx'
p1703
aS'/MembersSection/MemberDirectory/28113.aspx'
p1704
aS'/MembersSection/MemberDirectory/27785.aspx'
p1705
aS'/MembersSection/MemberDirectory/30609.aspx'
p1706
aS'/MembersSection/MemberDirectory/28760.aspx'
p1707
aS'/MembersSection/MemberDirectory/30511.aspx'
p1708
aS'/MembersSection/MemberDirectory/56156.aspx'
p1709
aS'/MembersSection/MemberDirectory/28112.aspx'
p1710
aS'/MembersSection/MemberDirectory/27737.aspx'
p1711
aS'/MembersSection/MemberDirectory/27782.aspx'
p1712
aS'/MembersSection/MemberDirectory/30995.aspx'
p1713
aS'/MembersSection/MemberDirectory/30430.aspx'
p1714
aS'/MembersSection/MemberDirectory/28754.aspx'
p1715
aS'/MembersSection/MemberDirectory/107915.aspx'
p1716
aS'/MembersSection/MemberDirectory/28753.aspx'
p1717
aS'/MembersSection/Sections/Bioengineering/167021/167029/167081/29865.aspx'
p1718
aS'/MembersSection/MemberDirectory/27715.aspx'
p1719
aS'/MembersSection/MemberDirectory/28749.aspx'
p1720
aS'/MembersSection/MemberDirectory/130123.aspx'
p1721
aS'/MembersSection/MemberDirectory/30856.aspx'
p1722
aS'/MembersSection/MemberDirectory/28746.aspx'
p1723
aS'/MembersSection/MemberDirectory/28747.aspx'
p1724
aS'/MembersSection/MemberDirectory/30960.aspx'
p1725
aS'/MembersSection/MemberDirectory/28110.aspx'
p1726
aS'/MembersSection/MemberDirectory/27946.aspx'
p1727
aS'/MembersSection/MemberDirectory/29984.aspx'
p1728
aS'/MembersSection/MemberDirectory/30563.aspx'
p1729
aS'/MembersSection/MemberDirectory/30590.aspx'
p1730
aS'/MembersSection/MemberDirectory/42081.aspx'
p1731
aS'/MembersSection/MemberDirectory/30304.aspx'
p1732
aS'/MembersSection/MemberDirectory/162028/31018.aspx'
p1733
aS'/MembersSection/MemberDirectory/27705.aspx'
p1734
aS'/MembersSection/MemberDirectory/29982.aspx'
p1735
aS'/MembersSection/MemberDirectory/107914.aspx'
p1736
aS'/MembersSection/MemberDirectory/107874.aspx'
p1737
aS'/MembersSection/MemberDirectory/30251.aspx'
p1738
aS'/MembersSection/MemberDirectory/27591.aspx'
p1739
aS'/MembersSection/Sections/SpecialFields/167493/167495/167513/31092.aspx'
p1740
aS'/MembersSection/MemberDirectory/30738.aspx'
p1741
aS'/MembersSection/MemberDirectory/56157.aspx'
p1742
aS'/MembersSection/MemberDirectory/28253.aspx'
p1743
aS'/MembersSection/MemberDirectory/29999.aspx'
p1744
aS'/MembersSection/MemberDirectory/30131.aspx'
p1745
aS'/MembersSection/MemberDirectory/28729.aspx'
p1746
aS'/MembersSection/MemberDirectory/30564.aspx'
p1747
aS'/MembersSection/MemberDirectory/30321.aspx'
p1748
aS'/MembersSection/MemberDirectory/28728.aspx'
p1749
aS'/MembersSection/MemberDirectory/149914.aspx'
p1750
aS'/MembersSection/MemberDirectory/30491.aspx'
p1751
aS'/MembersSection/MemberDirectory/30223.aspx'
p1752
aS'/MembersSection/MemberDirectory/28725.aspx'
p1753
aS'/MembersSection/MemberDirectory/69275.aspx'
p1754
aS'/MembersSection/MemberDirectory/27975.aspx'
p1755
aS'/MembersSection/MemberDirectory/30773.aspx'
p1756
aS'/MembersSection/MemberDirectory/29945.aspx'
p1757
aS'/MembersSection/MemberDirectory/28723.aspx'
p1758
aS'/MembersSection/MemberDirectory/30892.aspx'
p1759
aS'/MembersSection/MemberDirectory/30565.aspx'
p1760
aS'/MembersSection/MemberDirectory/30492.aspx'
p1761
aS'/MembersSection/MemberDirectory/31136.aspx'
p1762
aS'/MembersSection/MemberDirectory/165655.aspx'
p1763
aS'/MembersSection/MemberDirectory/28721.aspx'
p1764
aS'/MembersSection/MemberDirectory/107903.aspx'
p1765
aS'/MembersSection/MemberDirectory/29987.aspx'
p1766
aS'/MembersSection/MemberDirectory/130197.aspx'
p1767
aS'/MembersSection/MemberDirectory/149826.aspx'
p1768
aS'/MembersSection/MemberDirectory/56170.aspx'
p1769
aS'/MembersSection/MemberDirectory/30947.aspx'
p1770
aS'/MembersSection/MemberDirectory/27974.aspx'
p1771
aS'/MembersSection/MemberDirectory/28718.aspx'
p1772
aS'/MembersSection/MemberDirectory/28012.aspx'
p1773
aS'/MembersSection/MemberDirectory/28714.aspx'
p1774
aS'/MembersSection/MemberDirectory/56117.aspx'
p1775
aS'/MembersSection/MemberDirectory/42041.aspx'
p1776
aS'/MembersSection/MemberDirectory/30774.aspx'
p1777
aS'/MembersSection/MemberDirectory/27883.aspx'
p1778
aS'/MembersSection/MemberDirectory/30035.aspx'
p1779
aS'/MembersSection/MemberDirectory/149883.aspx'
p1780
aS'/MembersSection/MemberDirectory/30327.aspx'
p1781
aS'/MembersSection/MemberDirectory/30791.aspx'
p1782
aS'/MembersSection/MemberDirectory/69246.aspx'
p1783
aS'/MembersSection/MemberDirectory/28711.aspx'
p1784
aS'/MembersSection/MemberDirectory/28708.aspx'
p1785
aS'/MembersSection/MemberDirectory/30431.aspx'
p1786
aS'/MembersSection/MemberDirectory/130201.aspx'
p1787
aS'/MembersSection/MemberDirectory/30744.aspx'
p1788
aS'/MembersSection/MemberDirectory/30833.aspx'
p1789
aS'/MembersSection/MemberDirectory/30063.aspx'
p1790
aS'/MembersSection/MemberDirectory/28022.aspx'
p1791
aS'/MembersSection/MemberDirectory/56158.aspx'
p1792
aS'/MembersSection/MemberDirectory/30224.aspx'
p1793
aS'/MembersSection/MemberDirectory/30371.aspx'
p1794
aS'/MembersSection/MemberDirectory/30338.aspx'
p1795
aS'/MembersSection/MemberDirectory/42055.aspx'
p1796
aS'/MembersSection/MemberDirectory/31093.aspx'
p1797
aS'/MembersSection/MemberDirectory/31027.aspx'
p1798
aS'/MembersSection/MemberDirectory/107891.aspx'
p1799
aS'/MembersSection/MemberDirectory/56171.aspx'
p1800
aS'/MembersSection/MemberDirectory/28700.aspx'
p1801
aS'/MembersSection/MemberDirectory/30775.aspx'
p1802
aS'/MembersSection/MemberDirectory/69218.aspx'
p1803
aS'/MembersSection/MemberDirectory/162035/28697.aspx'
p1804
aS'/MembersSection/MemberDirectory/30225.aspx'
p1805
aS'/MembersSection/MemberDirectory/30326.aspx'
p1806
aS'/MembersSection/MemberDirectory/130204.aspx'
p1807
aS'/MembersSection/MemberDirectory/149829.aspx'
p1808
aS'/MembersSection/MemberDirectory/29834.aspx'
p1809
aS'/MembersSection/MemberDirectory/30493.aspx'
p1810
aS'/MembersSection/MemberDirectory/165656.aspx'
p1811
aS'/MembersSection/MemberDirectory/149831.aspx'
p1812
aS'/MembersSection/MemberDirectory/28694.aspx'
p1813
aS'/MembersSection/MemberDirectory/130236.aspx'
p1814
aS'/MembersSection/MemberDirectory/173480/149884.aspx'
p1815
aS'/MembersSection/MemberDirectory/28259.aspx'
p1816
aS'/MembersSection/MemberDirectory/29908.aspx'
p1817
aS'/MembersSection/MemberDirectory/28076.aspx'
p1818
aS'/MembersSection/MemberDirectory/30516.aspx'
p1819
aS'/MembersSection/MemberDirectory/30003.aspx'
p1820
aS'/MembersSection/MemberDirectory/130212.aspx'
p1821
aS'/MembersSection/MemberDirectory/28306.aspx'
p1822
aS'/MembersSection/MemberDirectory/28685.aspx'
p1823
aS'/MembersSection/MemberDirectory/149915.aspx'
p1824
aS'/MembersSection/MemberDirectory/27808.aspx'
p1825
aS'/MembersSection/MemberDirectory/30305.aspx'
p1826
aS'/MembersSection/MemberDirectory/42082.aspx'
p1827
aS'/MembersSection/MemberDirectory/28683.aspx'
p1828
aS'/MembersSection/MemberDirectory/107887.aspx'
p1829
aS'/MembersSection/MemberDirectory/30911.aspx'
p1830
aS'/MembersSection/MemberDirectory/28679.aspx'
p1831
aS'/MembersSection/MemberDirectory/28680.aspx'
p1832
aS'/MembersSection/MemberDirectory/31015.aspx'
p1833
aS'/MembersSection/MemberDirectory/28674.aspx'
p1834
aS'/MembersSection/MemberDirectory/42083.aspx'
p1835
aS'/MembersSection/MemberDirectory/107913.aspx'
p1836
aS'/MembersSection/MemberDirectory/30961.aspx'
p1837
aS'/MembersSection/MemberDirectory/29932.aspx'
p1838
aS'/MembersSection/MemberDirectory/27797.aspx'
p1839
aS'/MembersSection/MemberDirectory/27971.aspx'
p1840
aS'/MembersSection/MemberDirectory/28021.aspx'
p1841
aS'/MembersSection/MemberDirectory/28669.aspx'
p1842
aS'/MembersSection/MemberDirectory/27623.aspx'
p1843
aS'/MembersSection/MemberDirectory/30948.aspx'
p1844
aS'/MembersSection/MemberDirectory/28666.aspx'
p1845
aS'/MembersSection/MemberDirectory/28665.aspx'
p1846
aS'/MembersSection/MemberDirectory/30494.aspx'
p1847
aS'/MembersSection/MemberDirectory/30535.aspx'
p1848
aS'/MembersSection/MemberDirectory/27732.aspx'
p1849
aS'/MembersSection/MemberDirectory/30372.aspx'
p1850
aS'/MembersSection/MemberDirectory/30137.aspx'
p1851
aS'/MembersSection/MemberDirectory/42084.aspx'
p1852
aS'/MembersSection/MemberDirectory/149885.aspx'
p1853
aS'/MembersSection/MemberDirectory/27777.aspx'
p1854
aS'/MembersSection/MemberDirectory/27590.aspx'
p1855
aS'/MembersSection/MemberDirectory/29979.aspx'
p1856
aS'/MembersSection/MemberDirectory/42054.aspx'
p1857
aS'/MembersSection/MemberDirectory/27670.aspx'
p1858
aS'/MembersSection/MemberDirectory/30395.aspx'
p1859
aS'/MembersSection/MemberDirectory/28657.aspx'
p1860
aS'/MembersSection/MemberDirectory/107902.aspx'
p1861
aS'/MembersSection/MemberDirectory/30776.aspx'
p1862
aS'/MembersSection/MemberDirectory/130237.aspx'
p1863
aS'/MembersSection/MemberDirectory/30007.aspx'
p1864
aS'/MembersSection/MemberDirectory/42085.aspx'
p1865
aS'/MembersSection/MemberDirectory/42097.aspx'
p1866
aS'/MembersSection/MemberDirectory/42022.aspx'
p1867
aS'/MembersSection/MemberDirectory/30608.aspx'
p1868
aS'/MembersSection/MemberDirectory/30253.aspx'
p1869
aS'/MembersSection/Sections/Bioengineering/167021/167027/167036/30893.aspx'
p1870
aS'/MembersSection/MemberDirectory/31094.aspx'
p1871
aS'/MembersSection/MemberDirectory/28209.aspx'
p1872
aS'/MembersSection/MemberDirectory/27588.aspx'
p1873
aS'/MembersSection/MemberDirectory/27790.aspx'
p1874
aS'/MembersSection/MemberDirectory/27932.aspx'
p1875
aS'/MembersSection/MemberDirectory/30949.aspx'
p1876
aS'/MembersSection/MemberDirectory/28646.aspx'
p1877
aS'/MembersSection/MemberDirectory/30834.aspx'
p1878
aS'/MembersSection/MemberDirectory/28644.aspx'
p1879
aS'/MembersSection/MemberDirectory/42098.aspx'
p1880
aS'/MembersSection/MemberDirectory/149847.aspx'
p1881
aS'/MembersSection/MemberDirectory/28640.aspx'
p1882
aS'/MembersSection/MemberDirectory/28044.aspx'
p1883
aS'/MembersSection/MemberDirectory/28638.aspx'
p1884
aS'/MembersSection/MemberDirectory/30906.aspx'
p1885
aS'/MembersSection/MemberDirectory/28637.aspx'
p1886
aS'/MembersSection/MemberDirectory/28636.aspx'
p1887
aS'/MembersSection/MemberDirectory/30777.aspx'
p1888
aS'/MembersSection/MemberDirectory/30392.aspx'
p1889
aS'/MembersSection/MemberDirectory/155021/130146.aspx'
p1890
aS'/MembersSection/MemberDirectory/29956.aspx'
p1891
aS'/MembersSection/MemberDirectory/28033.aspx'
p1892
aS'/MembersSection/MemberDirectory/30064.aspx'
p1893
aS'/MembersSection/MemberDirectory/30109.aspx'
p1894
aS'/MembersSection/MemberDirectory/30495.aspx'
p1895
aS'/MembersSection/MemberDirectory/27669.aspx'
p1896
aS'/MembersSection/MemberDirectory/149886.aspx'
p1897
aS'/MembersSection/MemberDirectory/28049.aspx'
p1898
aS'/MembersSection/MemberDirectory/27970.aspx'
p1899
aS'/MembersSection/MemberDirectory/30330.aspx'
p1900
aS'/MembersSection/MemberDirectory/149851.aspx'
p1901
aS'/MembersSection/MemberDirectory/42086.aspx'
p1902
aS'/MembersSection/MemberDirectory/27563.aspx'
p1903
aS'/MembersSection/MemberDirectory/28077.aspx'
p1904
aS'/MembersSection/MemberDirectory/30912.aspx'
p1905
aS'/MembersSection/MemberDirectory/107901.aspx'
p1906
aS'/MembersSection/MemberDirectory/30778.aspx'
p1907
aS'/MembersSection/MemberDirectory/30226.aspx'
p1908
aS'/MembersSection/MemberDirectory/30306.aspx'
p1909
aS'/MembersSection/MemberDirectory/28623.aspx'
p1910
aS'/MembersSection/MemberDirectory/30996.aspx'
p1911
aS'/MembersSection/MemberDirectory/28299.aspx'
p1912
aS'/MembersSection/MemberDirectory/30307.aspx'
p1913
aS'/MembersSection/MemberDirectory/30375.aspx'
p1914
aS'/MembersSection/MemberDirectory/149887.aspx'
p1915
aS'/MembersSection/MemberDirectory/29968.aspx'
p1916
aS'/MembersSection/MemberDirectory/28622.aspx'
p1917
aS'/MembersSection/MemberDirectory/30452.aspx'
p1918
aS'/MembersSection/MemberDirectory/162031/30566.aspx'
p1919
aS'/MembersSection/MemberDirectory/30161.aspx'
p1920
aS'/MembersSection/MemberDirectory/30432.aspx'
p1921
aS'/MembersSection/MemberDirectory/27921.aspx'
p1922
aS'/MembersSection/MemberDirectory/28616.aspx'
p1923
aS'/MembersSection/MemberDirectory/149825.aspx'
p1924
aS'/MembersSection/MemberDirectory/165657.aspx'
p1925
aS'/MembersSection/MemberDirectory/28613.aspx'
p1926
aS'/MembersSection/MemberDirectory/69224.aspx'
p1927
aS'/MembersSection/MemberDirectory/107912.aspx'
p1928
aS'/MembersSection/MemberDirectory/165607.aspx'
p1929
aS'/MembersSection/MemberDirectory/27668.aspx'
p1930
aS'/MembersSection/MemberDirectory/30308.aspx'
p1931
aS'/MembersSection/MemberDirectory/31137.aspx'
p1932
aS'/MembersSection/MemberDirectory/69276.aspx'
p1933
aS'/MembersSection/MemberDirectory/30054.aspx'
p1934
aS'/MembersSection/MemberDirectory/165658.aspx'
p1935
aS'/MembersSection/MemberDirectory/30036.aspx'
p1936
aS'/MembersSection/MemberDirectory/28609.aspx'
p1937
aS'/MembersSection/MemberDirectory/30895.aspx'
p1938
aS'/MembersSection/MemberDirectory/28608.aspx'
p1939
aS'/MembersSection/MemberDirectory/30037.aspx'
p1940
aS'/MembersSection/MemberDirectory/30335.aspx'
p1941
aS'/MembersSection/MemberDirectory/30896.aspx'
p1942
aS'/MembersSection/MemberDirectory/28208.aspx'
p1943
aS'/MembersSection/MemberDirectory/162094/42031.aspx'
p1944
aS'/MembersSection/MemberDirectory/28604.aspx'
p1945
aS'/MembersSection/MemberDirectory/31095.aspx'
p1946
aS'/MembersSection/MemberDirectory/28603.aspx'
p1947
aS'/MembersSection/MemberDirectory/30038.aspx'
p1948
aS'/MembersSection/MemberDirectory/28602.aspx'
p1949
aS'/MembersSection/MemberDirectory/28597.aspx'
p1950
aS'/MembersSection/MemberDirectory/28050.aspx'
p1951
aS'/MembersSection/MemberDirectory/30039.aspx'
p1952
aS'/MembersSection/MemberDirectory/29909.aspx'
p1953
aS'/MembersSection/MemberDirectory/30567.aspx'
p1954
aS'/MembersSection/MemberDirectory/28006.aspx'
p1955
aS'/MembersSection/MemberDirectory/28590.aspx'
p1956
aS'/MembersSection/MemberDirectory/172713/30309.aspx'
p1957
aS'/MembersSection/MemberDirectory/30862.aspx'
p1958
aS'/MembersSection/MemberDirectory/30607.aspx'
p1959
aS'/MembersSection/MemberDirectory/30310.aspx'
p1960
aS'/MembersSection/MemberDirectory/28587.aspx'
p1961
aS'/MembersSection/MemberDirectory/27805.aspx'
p1962
aS'/MembersSection/MemberDirectory/149840.aspx'
p1963
aS'/MembersSection/MemberDirectory/69277.aspx'
p1964
aS'/MembersSection/MemberDirectory/30142.aspx'
p1965
aS'/MembersSection/MemberDirectory/27772.aspx'
p1966
aS'/MembersSection/MemberDirectory/28577.aspx'
p1967
aS'/MembersSection/MemberDirectory/27554.aspx'
p1968
aS'/MembersSection/MemberDirectory/42047.aspx'
p1969
aS'/MembersSection/MemberDirectory/30249.aspx'
p1970
aS'/MembersSection/MemberDirectory/30458.aspx'
p1971
aS'/MembersSection/MemberDirectory/30779.aspx'
p1972
aS'/MembersSection/MemberDirectory/28576.aspx'
p1973
aS'/MembersSection/MemberDirectory/165659.aspx'
p1974
aS'/MembersSection/MemberDirectory/56159.aspx'
p1975
aS'/MembersSection/MemberDirectory/30188.aspx'
p1976
aS'/MembersSection/MemberDirectory/29836.aspx'
p1977
aS'/MembersSection/MemberDirectory/28207.aspx'
p1978
aS'/MembersSection/MemberDirectory/30062.aspx'
p1979
aS'/MembersSection/MemberDirectory/149888.aspx'
p1980
aS'/MembersSection/MemberDirectory/130215.aspx'
p1981
aS'/MembersSection/MemberDirectory/69286.aspx'
p1982
aS'/MembersSection/MemberDirectory/28574.aspx'
p1983
aS'/MembersSection/MemberDirectory/28571.aspx'
p1984
aS'/MembersSection/MemberDirectory/69231.aspx'
p1985
aS'/MembersSection/MemberDirectory/30962.aspx'
p1986
aS'/MembersSection/MemberDirectory/56127.aspx'
p1987
aS'/MembersSection/MemberDirectory/27904.aspx'
p1988
aS'/MembersSection/MemberDirectory/28102.aspx'
p1989
aS'/MembersSection/MemberDirectory/30434.aspx'
p1990
aS'/MembersSection/MemberDirectory/30568.aspx'
p1991
aS'/MembersSection/MemberDirectory/28028.aspx'
p1992
aS'/MembersSection/MemberDirectory/56115.aspx'
p1993
aS'/MembersSection/MemberDirectory/30496.aspx'
p1994
aS'/MembersSection/MemberDirectory/30435.aspx'
p1995
aS'/MembersSection/MemberDirectory/28562.aspx'
p1996
aS'/MembersSection/MemberDirectory/27770.aspx'
p1997
aS'/MembersSection/MemberDirectory/28561.aspx'
p1998
aS'/MembersSection/MemberDirectory/30857.aspx'
p1999
aS'/MembersSection/MemberDirectory/28560.aspx'
p2000
aS'/MembersSection/MemberDirectory/30186.aspx'
p2001
aS'/MembersSection/MemberDirectory/56104.aspx'
p2002
aS'/MembersSection/MemberDirectory/107900.aspx'
p2003
aS'/MembersSection/MemberDirectory/149916.aspx'
p2004
aS'/MembersSection/MemberDirectory/27667.aspx'
p2005
aS'/MembersSection/MemberDirectory/165694.aspx'
p2006
aS'/MembersSection/MemberDirectory/30897.aspx'
p2007
aS'/MembersSection/MemberDirectory/31048.aspx'
p2008
aS'/MembersSection/MemberDirectory/30134.aspx'
p2009
aS'/MembersSection/MemberDirectory/165695.aspx'
p2010
aS'/MembersSection/MemberDirectory/28038.aspx'
p2011
aS'/MembersSection/MemberDirectory/29911.aspx'
p2012
aS'/MembersSection/MemberDirectory/27888.aspx'
p2013
aS'/MembersSection/MemberDirectory/30162.aspx'
p2014
aS'/MembersSection/MemberDirectory/30376.aspx'
p2015
aS'/MembersSection/MemberDirectory/30312.aspx'
p2016
aS'/MembersSection/MemberDirectory/69278.aspx'
p2017
aS'/MembersSection/MemberDirectory/27860.aspx'
p2018
aS'/MembersSection/MemberDirectory/69279.aspx'
p2019
aS'/MembersSection/MemberDirectory/31049.aspx'
p2020
aS'/MembersSection/MemberDirectory/56160.aspx'
p2021
aS'/MembersSection/MemberDirectory/28552.aspx'
p2022
aS'/MembersSection/MemberDirectory/27561.aspx'
p2023
aS'/MembersSection/MemberDirectory/149889.aspx'
p2024
aS'/MembersSection/MemberDirectory/30377.aspx'
p2025
aS'/MembersSection/MemberDirectory/30835.aspx'
p2026
aS'/MembersSection/MemberDirectory/27889.aspx'
p2027
aS'/MembersSection/MemberDirectory/31050.aspx'
p2028
aS'/MembersSection/MemberDirectory/29837.aspx'
p2029
aS'/MembersSection/MemberDirectory/56103.aspx'
p2030
aS'/MembersSection/MemberDirectory/28258.aspx'
p2031
aS'/MembersSection/MemberDirectory/165600.aspx'
p2032
aS'/MembersSection/MemberDirectory/28546.aspx'
p2033
aS'/MembersSection/MemberDirectory/149917.aspx'
p2034
aS'/MembersSection/MemberDirectory/30378.aspx'
p2035
aS'/MembersSection/MemberDirectory/165660.aspx'
p2036
aS'/MembersSection/MemberDirectory/27802.aspx'
p2037
aS'/MembersSection/MemberDirectory/165696.aspx'
p2038
aS'/MembersSection/MemberDirectory/165703.aspx'
p2039
aS'/MembersSection/MemberDirectory/27729.aspx'
p2040
aS'/MembersSection/MemberDirectory/28538.aspx'
p2041
aS'/MembersSection/MemberDirectory/28541.aspx'
p2042
aS'/MembersSection/MemberDirectory/28300.aspx'
p2043
aS'/MembersSection/MemberDirectory/30004.aspx'
p2044
aS'/MembersSection/MemberDirectory/30950.aspx'
p2045
aS'/MembersSection/MemberDirectory/42045.aspx'
p2046
aS'/MembersSection/MemberDirectory/28531.aspx'
p2047
aS'/MembersSection/MemberDirectory/29850.aspx'
p2048
aS'/MembersSection/MemberDirectory/30180.aspx'
p2049
aS'/MembersSection/MemberDirectory/27898.aspx'
p2050
aS'/MembersSection/MemberDirectory/107911.aspx'
p2051
aS'/MembersSection/MemberDirectory/165605.aspx'
p2052
aS'/MembersSection/MemberDirectory/28267.aspx'
p2053
aS'/MembersSection/MemberDirectory/30453.aspx'
p2054
aS'/MembersSection/MemberDirectory/27573.aspx'
p2055
aS'/MembersSection/MemberDirectory/28527.aspx'
p2056
aS'/MembersSection/MemberDirectory/27881.aspx'
p2057
aS'/MembersSection/MemberDirectory/165661.aspx'
p2058
aS'/MembersSection/MemberDirectory/27553.aspx'
p2059
aS'/MembersSection/MemberDirectory/27965.aspx'
p2060
aS'/MembersSection/MemberDirectory/30836.aspx'
p2061
aS'/MembersSection/MemberDirectory/28524.aspx'
p2062
aS'/MembersSection/MemberDirectory/107896.aspx'
p2063
aS'/MembersSection/MemberDirectory/28523.aspx'
p2064
aS'/MembersSection/MemberDirectory/30379.aspx'
p2065
aS'/MembersSection/MemberDirectory/165662.aspx'
p2066
aS'/MembersSection/MemberDirectory/28018.aspx'
p2067
aS'/MembersSection/MemberDirectory/30228.aspx'
p2068
aS'/MembersSection/MemberDirectory/30313.aspx'
p2069
aS'/MembersSection/MemberDirectory/29938.aspx'
p2070
aS'/MembersSection/MemberDirectory/149890.aspx'
p2071
aS'/MembersSection/MemberDirectory/30498.aspx'
p2072
aS'/MembersSection/MemberDirectory/130196.aspx'
p2073
aS'/MembersSection/MemberDirectory/107875.aspx'
p2074
aS'/MembersSection/MemberDirectory/56118.aspx'
p2075
aS'/MembersSection/MemberDirectory/30997.aspx'
p2076
aS'/MembersSection/MemberDirectory/27826.aspx'
p2077
aS'/MembersSection/MemberDirectory/30606.aspx'
p2078
aS'/MembersSection/MemberDirectory/30315.aspx'
p2079
aS'/MembersSection/MemberDirectory/29942.aspx'
p2080
aS'/MembersSection/MemberDirectory/28045.aspx'
p2081
aS'/MembersSection/MemberDirectory/29912.aspx'
p2082
aS'/MembersSection/MemberDirectory/29838.aspx'
p2083
aS'/MembersSection/MemberDirectory/107876.aspx'
p2084
aS'/MembersSection/MemberDirectory/30113.aspx'
p2085
aS'/MembersSection/MemberDirectory/30569.aspx'
p2086
aS'/MembersSection/MemberDirectory/29913.aspx'
p2087
aS'/MembersSection/MemberDirectory/30576.aspx'
p2088
aS'/MembersSection/MemberDirectory/149891.aspx'
p2089
aS'/MembersSection/MemberDirectory/28509.aspx'
p2090
aS'/MembersSection/MemberDirectory/27964.aspx'
p2091
aS'/MembersSection/MemberDirectory/30044.aspx'
p2092
aS'/MembersSection/MemberDirectory/149892.aspx'
p2093
aS'/MembersSection/MemberDirectory/30499.aspx'
p2094
aS'/MembersSection/MemberDirectory/30438.aspx'
p2095
aS'/MembersSection/MemberDirectory/30436.aspx'
p2096
aS'/MembersSection/MemberDirectory/30500.aspx'
p2097
aS'/MembersSection/MemberDirectory/30998.aspx'
p2098
aS'/MembersSection/MemberDirectory/130193.aspx'
p2099
aS'/MembersSection/MemberDirectory/28504.aspx'
p2100
aS'/MembersSection/MemberDirectory/27825.aspx'
p2101
aS'/MembersSection/MemberDirectory/28501.aspx'
p2102
aS'/MembersSection/MemberDirectory/30837.aspx'
p2103
aS'/MembersSection/MemberDirectory/42057.aspx'
p2104
aS'/MembersSection/MemberDirectory/28498.aspx'
p2105
aS'/MembersSection/MemberDirectory/30999.aspx'
p2106
aS'/MembersSection/MemberDirectory/149918.aspx'
p2107
aS'/MembersSection/MemberDirectory/149852.aspx'
p2108
aS'/MembersSection/MemberDirectory/28246.aspx'
p2109
aS'/MembersSection/MemberDirectory/56161.aspx'
p2110
aS'/MembersSection/MemberDirectory/28495.aspx'
p2111
aS'/MembersSection/MemberDirectory/30501.aspx'
p2112
aS'/MembersSection/MemberDirectory/30163.aspx'
p2113
aS'/MembersSection/MemberDirectory/30316.aspx'
p2114
aS'/MembersSection/MemberDirectory/30898.aspx'
p2115
aS'/MembersSection/MemberDirectory/165610.aspx'
p2116
aS'/MembersSection/MemberDirectory/27872.aspx'
p2117
aS'/MembersSection/MemberDirectory/27665.aspx'
p2118
aS'/MembersSection/MemberDirectory/27824.aspx'
p2119
aS'/MembersSection/MemberDirectory/30838.aspx'
p2120
aS'/MembersSection/MemberDirectory/28293.aspx'
p2121
aS'/MembersSection/MemberDirectory/30570.aspx'
p2122
aS'/MembersSection/MemberDirectory/27905.aspx'
p2123
aS'/MembersSection/MemberDirectory/30839.aspx'
p2124
aS'/MembersSection/MemberDirectory/56116.aspx'
p2125
aS'/MembersSection/MemberDirectory/30840.aspx'
p2126
aS'/MembersSection/MemberDirectory/29976.aspx'
p2127
aS'/MembersSection/MemberDirectory/27629.aspx'
p2128
aS'/MembersSection/MemberDirectory/149893.aspx'
p2129
aS'/MembersSection/MemberDirectory/130238.aspx'
p2130
aS'/MembersSection/MemberDirectory/149894.aspx'
p2131
aS'/MembersSection/MemberDirectory/27586.aspx'
p2132
aS'/MembersSection/MemberDirectory/30530.aspx'
p2133
aS'/MembersSection/MemberDirectory/30532.aspx'
p2134
aS'/MembersSection/MemberDirectory/30439.aspx'
p2135
aS'/MembersSection/MemberDirectory/28484.aspx'
p2136
aS'/MembersSection/MemberDirectory/30046.aspx'
p2137
aS'/MembersSection/MemberDirectory/31096.aspx'
p2138
aS'/MembersSection/MemberDirectory/31066.aspx'
p2139
aS'/MembersSection/MemberDirectory/29854.aspx'
p2140
aS'/MembersSection/MemberDirectory/30440.aspx'
p2141
aS'/MembersSection/MemberDirectory/149895.aspx'
p2142
aS'/MembersSection/MemberDirectory/30047.aspx'
p2143
aS'/MembersSection/MemberDirectory/30114.aspx'
p2144
aS'/MembersSection/MemberDirectory/130147.aspx'
p2145
aS'/MembersSection/MemberDirectory/30605.aspx'
p2146
aS'/MembersSection/MemberDirectory/29852.aspx'
p2147
aS'/MembersSection/MemberDirectory/30841.aspx'
p2148
aS'/MembersSection/MemberDirectory/30502.aspx'
p2149
aS'/MembersSection/MemberDirectory/30115.aspx'
p2150
aS'/MembersSection/MemberDirectory/28472.aspx'
p2151
aS'/MembersSection/MemberDirectory/27962.aspx'
p2152
aS'/MembersSection/MemberDirectory/30116.aspx'
p2153
aS'/MembersSection/MemberDirectory/30951.aspx'
p2154
aS'/MembersSection/MemberDirectory/27901.aspx'
p2155
aS'/MembersSection/MemberDirectory/28470.aspx'
p2156
aS'/MembersSection/MemberDirectory/30177.aspx'
p2157
aS'/MembersSection/MemberDirectory/27800.aspx'
p2158
aS'/MembersSection/MemberDirectory/69287.aspx'
p2159
aS'/MembersSection/MemberDirectory/30055.aspx'
p2160
aS'/MembersSection/Sections/MaterialsEngineering/167418/167420/167441/30952.aspx'
p2161
aS'/MembersSection/MemberDirectory/28467.aspx'
p2162
aS'/MembersSection/MemberDirectory/28054.aspx'
p2163
aS'/MembersSection/MemberDirectory/29840.aspx'
p2164
aS'/MembersSection/MemberDirectory/30899.aspx'
p2165
aS'/MembersSection/MemberDirectory/165663.aspx'
p2166
aS'/MembersSection/MemberDirectory/30842.aspx'
p2167
aS'/MembersSection/MemberDirectory/30503.aspx'
p2168
aS'/MembersSection/MemberDirectory/28463.aspx'
p2169
aS'/MembersSection/MemberDirectory/130239.aspx'
p2170
aS'/MembersSection/MemberDirectory/30230.aspx'
p2171
aS'/MembersSection/MemberDirectory/149896.aspx'
p2172
aS'/MembersSection/MemberDirectory/28460.aspx'
p2173
aS'/MembersSection/MemberDirectory/130148.aspx'
p2174
aS'/MembersSection/MemberDirectory/27896.aspx'
p2175
aS'/MembersSection/MemberDirectory/30504.aspx'
p2176
aS'/MembersSection/MemberDirectory/149897.aspx'
p2177
aS'/MembersSection/MemberDirectory/27915.aspx'
p2178
aS'/MembersSection/Sections/Electronics/167363/167365/174769/27728.aspx'
p2179
aS'/MembersSection/MemberDirectory/28454.aspx'
p2180
aS'/MembersSection/MemberDirectory/28271.aspx'
p2181
aS'/MembersSection/MemberDirectory/30604.aspx'
p2182
aS'/MembersSection/MemberDirectory/69280.aspx'
p2183
aS'/MembersSection/MemberDirectory/28020.aspx'
p2184
aS'/MembersSection/MemberDirectory/30231.aspx'
p2185
aS'/MembersSection/MemberDirectory/30800.aspx'
p2186
aS'/MembersSection/MemberDirectory/28448.aspx'
p2187
aS'/MembersSection/MemberDirectory/30571.aspx'
p2188
aS'/MembersSection/MemberDirectory/149827.aspx'
p2189
aS'/MembersSection/MemberDirectory/27663.aspx'
p2190
aS'/MembersSection/MemberDirectory/69281.aspx'
p2191
aS'/MembersSection/MemberDirectory/30380.aspx'
p2192
aS'/MembersSection/MemberDirectory/27574.aspx'
p2193
aS'/MembersSection/MemberDirectory/30260.aspx'
p2194
aS'/MembersSection/MemberDirectory/30257.aspx'
p2195
aS'/MembersSection/MemberDirectory/30900.aspx'
p2196
aS'/MembersSection/MemberDirectory/162033/31097.aspx'
p2197
aS'/MembersSection/MemberDirectory/130200.aspx'
p2198
aS'/MembersSection/MemberDirectory/27895.aspx'
p2199
aS'/MembersSection/MemberDirectory/30843.aspx'
p2200
aS'/MembersSection/MemberDirectory/149898.aspx'
p2201
aS'/MembersSection/MemberDirectory/165664.aspx'
p2202
aS'/MembersSection/MemberDirectory/30232.aspx'
p2203
aS'/MembersSection/MemberDirectory/69288.aspx'
p2204
aS'/MembersSection/MemberDirectory/130149.aspx'
p2205
aS'/MembersSection/MemberDirectory/30056.aspx'
p2206
aS'/MembersSection/MemberDirectory/69251.aspx'
p2207
aS'/MembersSection/MemberDirectory/30317.aspx'
p2208
aS'/MembersSection/MemberDirectory/31000.aspx'
p2209
aS'/MembersSection/MemberDirectory/149899.aspx'
p2210
aS'/MembersSection/MemberDirectory/149900.aspx'
p2211
aS'/MembersSection/MemberDirectory/30393.aspx'
p2212
aS'/MembersSection/MemberDirectory/28047.aspx'
p2213
aS'/MembersSection/MemberDirectory/31001.aspx'
p2214
aS'/MembersSection/MemberDirectory/27568.aspx'
p2215
aS'/MembersSection/MemberDirectory/28438.aspx'
p2216
aS'/MembersSection/MemberDirectory/30117.aspx'
p2217
aS'/MembersSection/MemberDirectory/130150.aspx'
p2218
aS'/MembersSection/MemberDirectory/31002.aspx'
p2219
aS'/MembersSection/MemberDirectory/27799.aspx'
p2220
aS'/MembersSection/MemberDirectory/28069.aspx'
p2221
aS'/MembersSection/MemberDirectory/28436.aspx'
p2222
aS'/MembersSection/MemberDirectory/29842.aspx'
p2223
aS'/MembersSection/MemberDirectory/28199.aspx'
p2224
aS'/MembersSection/MemberDirectory/165665.aspx'
p2225
aS'/MembersSection/MemberDirectory/29974.aspx'
p2226
aS'/MembersSection/MemberDirectory/30118.aspx'
p2227
aS'/MembersSection/MemberDirectory/31003.aspx'
p2228
aS'/MembersSection/MemberDirectory/30963.aspx'
p2229
aS'/MembersSection/MemberDirectory/30583.aspx'
p2230
aS'/MembersSection/MemberDirectory/107910.aspx'
p2231
aS'/MembersSection/MemberDirectory/69289.aspx'
p2232
aS'/MembersSection/MemberDirectory/28017.aspx'
p2233
aS'/MembersSection/MemberDirectory/30119.aspx'
p2234
aS'/MembersSection/MemberDirectory/27919.aspx'
p2235
aS'/MembersSection/MemberDirectory/31098.aspx'
p2236
aS'/MembersSection/MemberDirectory/42087.aspx'
p2237
aS'/MembersSection/MemberDirectory/30057.aspx'
p2238
aS'/MembersSection/MemberDirectory/165666.aspx'
p2239
aS'/MembersSection/MemberDirectory/31065.aspx'
p2240
aS'/MembersSection/MemberDirectory/27927.aspx'
p2241
aS'/MembersSection/MemberDirectory/149842.aspx'
p2242
aS'/MembersSection/MemberDirectory/28432.aspx'
p2243
aS'/MembersSection/MemberDirectory/130214.aspx'
p2244
aS'/MembersSection/MemberDirectory/31060.aspx'
p2245
aS'/MembersSection/MemberDirectory/130199.aspx'
p2246
aS'/MembersSection/MemberDirectory/165667.aspx'
p2247
aS'/MembersSection/MemberDirectory/165668.aspx'
p2248
aS'/MembersSection/MemberDirectory/28428.aspx'
p2249
aS'/MembersSection/MemberDirectory/30954.aspx'
p2250
aS'/MembersSection/MemberDirectory/28426.aspx'
p2251
aS'/MembersSection/MemberDirectory/30603.aspx'
p2252
aS'/MembersSection/MemberDirectory/165669.aspx'
p2253
aS'/MembersSection/MemberDirectory/165611.aspx'
p2254
aS'/MembersSection/MemberDirectory/165697.aspx'
p2255
aS'/MembersSection/MemberDirectory/28424.aspx'
p2256
aS'/MembersSection/MemberDirectory/30792.aspx'
p2257
aS'/MembersSection/MemberDirectory/31099.aspx'
p2258
aS'/MembersSection/MemberDirectory/31004.aspx'
p2259
aS'/MembersSection/MemberDirectory/130213.aspx'
p2260
aS'/MembersSection/MemberDirectory/27822.aspx'
p2261
aS'/MembersSection/MemberDirectory/30781.aspx'
p2262
aS'/MembersSection/MemberDirectory/30740.aspx'
p2263
aS'/MembersSection/MemberDirectory/27821.aspx'
p2264
aS'/MembersSection/MemberDirectory/30966.aspx'
p2265
aS'/MembersSection/MemberDirectory/28419.aspx'
p2266
aS'/MembersSection/MemberDirectory/30844.aspx'
p2267
aS'/MembersSection/MemberDirectory/165670.aspx'
p2268
aS'/MembersSection/MemberDirectory/28413.aspx'
p2269
aS'/MembersSection/MemberDirectory/56162.aspx'
p2270
aS'/MembersSection/MemberDirectory/27564.aspx'
p2271
aS'/MembersSection/MemberDirectory/28412.aspx'
p2272
aS'/MembersSection/MemberDirectory/42028.aspx'
p2273
aS'/MembersSection/MemberDirectory/30636.aspx'
p2274
aS'/MembersSection/MemberDirectory/130151.aspx'
p2275
aS'/MembersSection/Sections/MaterialsEngineering/167418/167422/167424/30120.aspx'
p2276
aS'/MembersSection/MemberDirectory/107885.aspx'
p2277
aS'/MembersSection/MemberDirectory/30233.aspx'
p2278
aS'/MembersSection/MemberDirectory/30602.aspx'
p2279
aS'/MembersSection/MemberDirectory/30078.aspx'
p2280
aS'/MembersSection/MemberDirectory/30121.aspx'
p2281
aS'/MembersSection/MemberDirectory/27804.aspx'
p2282
aS'/MembersSection/MemberDirectory/27710.aspx'
p2283
aS'/MembersSection/MemberDirectory/30133.aspx'
p2284
aS'/MembersSection/MemberDirectory/28404.aspx'
p2285
aS'/MembersSection/MemberDirectory/28402.aspx'
p2286
aS'/MembersSection/MemberDirectory/28255.aspx'
p2287
aS'/MembersSection/MemberDirectory/27662.aspx'
p2288
aS'/MembersSection/MemberDirectory/27575.aspx'
p2289
aS'/MembersSection/MemberDirectory/42088.aspx'
p2290
aS'/MembersSection/MemberDirectory/27661.aspx'
p2291
aS'/MembersSection/MemberDirectory/29961.aspx'
p2292
aS'/MembersSection/MemberDirectory/27560.aspx'
p2293
aS'/MembersSection/MemberDirectory/30234.aspx'
p2294
aS'/MembersSection/MemberDirectory/30955.aspx'
p2295
aS'/MembersSection/MemberDirectory/30845.aspx'
p2296
aS'/MembersSection/MemberDirectory/31100.aspx'
p2297
aS'/MembersSection/MemberDirectory/28297.aspx'
p2298
aS'/MembersSection/MemberDirectory/31031.aspx'
p2299
aS'/MembersSection/MemberDirectory/56099.aspx'
p2300
aS'/MembersSection/MemberDirectory/30383.aspx'
p2301
aS'/MembersSection/MemberDirectory/28398.aspx'
p2302
aS'/MembersSection/MemberDirectory/28198.aspx'
p2303
aS'/MembersSection/MemberDirectory/30901.aspx'
p2304
aS'/MembersSection/MemberDirectory/28394.aspx'
p2305
aS'/MembersSection/MemberDirectory/28395.aspx'
p2306
aS'/MembersSection/MemberDirectory/28197.aspx'
p2307
aS'/MembersSection/MemberDirectory/28279.aspx'
p2308
aS'/MembersSection/MemberDirectory/28392.aspx'
p2309
aS'/MembersSection/MemberDirectory/31138.aspx'
p2310
aS'/MembersSection/MemberDirectory/28390.aspx'
p2311
aS'/MembersSection/MemberDirectory/30244.aspx'
p2312
aS'/MembersSection/MemberDirectory/27713.aspx'
p2313
aS'/MembersSection/MemberDirectory/31101.aspx'
p2314
aS'/MembersSection/MemberDirectory/30235.aspx'
p2315
aS'/MembersSection/MemberDirectory/30122.aspx'
p2316
aS'/MembersSection/MemberDirectory/30746.aspx'
p2317
aS'/MembersSection/MemberDirectory/28386.aspx'
p2318
aS'/MembersSection/MemberDirectory/56173.aspx'
p2319
aS'/MembersSection/MemberDirectory/149848.aspx'
p2320
aS'/MembersSection/MemberDirectory/149902.aspx'
p2321
aS'/MembersSection/MemberDirectory/28382.aspx'
p2322
aS'/MembersSection/MemberDirectory/28383.aspx'
p2323
aS'/MembersSection/MemberDirectory/28384.aspx'
p2324
aS'/MembersSection/MemberDirectory/28377.aspx'
p2325
aS'/MembersSection/MemberDirectory/28375.aspx'
p2326
aS'/MembersSection/MemberDirectory/149844.aspx'
p2327
aS'/MembersSection/MemberDirectory/30384.aspx'
p2328
aS'/MembersSection/MemberDirectory/165671.aspx'
p2329
aS'/MembersSection/MemberDirectory/28372.aspx'
p2330
aS'/MembersSection/MemberDirectory/28270.aspx'
p2331
aS'/MembersSection/MemberDirectory/30443.aspx'
p2332
aS'/MembersSection/MemberDirectory/28369.aspx'
p2333
aS'/MembersSection/MemberDirectory/30444.aspx'
p2334
aS'/MembersSection/MemberDirectory/30591.aspx'
p2335
aS'/MembersSection/MemberDirectory/27549.aspx'
p2336
aS'/MembersSection/MemberDirectory/30745.aspx'
p2337
aS'/MembersSection/MemberDirectory/28365.aspx'
p2338
aS'/MembersSection/MemberDirectory/28359.aspx'
p2339
aS'/MembersSection/MemberDirectory/28360.aspx'
p2340
aS'/MembersSection/MemberDirectory/28048.aspx'
p2341
aS'/MembersSection/MemberDirectory/27793.aspx'
p2342
aS'/MembersSection/MemberDirectory/30050.aspx'
p2343
aS'/MembersSection/MemberDirectory/28358.aspx'
p2344
aS'/MembersSection/MemberDirectory/30236.aspx'
p2345
aS'/MembersSection/MemberDirectory/27707.aspx'
p2346
aS'/MembersSection/MemberDirectory/30782.aspx'
p2347
aS'/MembersSection/MemberDirectory/149919.aspx'
p2348
aS'/MembersSection/MemberDirectory/30920.aspx'
p2349
aS'/MembersSection/MemberDirectory/30385.aspx'
p2350
aS'/MembersSection/MemberDirectory/28355.aspx'
p2351
aS'/MembersSection/MemberDirectory/30902.aspx'
p2352
aS'/MembersSection/MemberDirectory/30123.aspx'
p2353
aS'/MembersSection/MemberDirectory/28354.aspx'
p2354
aS'/MembersSection/MemberDirectory/130134.aspx'
p2355
aS'/MembersSection/MemberDirectory/27818.aspx'
p2356
aS'/MembersSection/MemberDirectory/30637.aspx'
p2357
aS'/MembersSection/MemberDirectory/30445.aspx'
p2358
aS'/MembersSection/MemberDirectory/30846.aspx'
p2359
aS'/MembersSection/MemberDirectory/30956.aspx'
p2360
aS'/MembersSection/MemberDirectory/27726.aspx'
p2361
aS'/MembersSection/MemberDirectory/28347.aspx'
p2362
aS'/MembersSection/MemberDirectory/30858.aspx'
p2363
aS'/MembersSection/MemberDirectory/149837.aspx'
p2364
aS'/MembersSection/MemberDirectory/31139.aspx'
p2365
aS'/MembersSection/MemberDirectory/29877.aspx'
p2366
aS'/MembersSection/MemberDirectory/107869.aspx'
p2367
aS'/MembersSection/MemberDirectory/165672.aspx'
p2368
aS'/MembersSection/MemberDirectory/28344.aspx'
p2369
aS'/MembersSection/MemberDirectory/28196.aspx'
p2370
aS'/MembersSection/Sections/MechanicalEngineering/167443/167445/174720/28341.aspx'
p2371
aS'/MembersSection/MemberDirectory/30601.aspx'
p2372
aS'/MembersSection/MemberDirectory/165673.aspx'
p2373
aS'/MembersSection/MemberDirectory/29969.aspx'
p2374
aS'/MembersSection/MemberDirectory/27795.aspx'
p2375
aS'/MembersSection/MemberDirectory/27955.aspx'
p2376
aS'/MembersSection/MemberDirectory/30847.aspx'
p2377
aS'/MembersSection/MemberDirectory/56111.aspx'
p2378
aS'/MembersSection/MemberDirectory/30903.aspx'
p2379
aS'/MembersSection/MemberDirectory/27819.aspx'
p2380
aS'/MembersSection/MemberDirectory/30446.aspx'
p2381
aS'/MembersSection/MemberDirectory/30914.aspx'
p2382
aS'/MembersSection/MemberDirectory/29857.aspx'
p2383
aS'/MembersSection/MemberDirectory/69282.aspx'
p2384
aS'/MembersSection/MemberDirectory/130198.aspx'
p2385
aS'/MembersSection/MemberDirectory/27906.aspx'
p2386
aS'/MembersSection/MemberDirectory/165698.aspx'
p2387
aS'/MembersSection/MemberDirectory/30783.aspx'
p2388
aS'/MembersSection/MemberDirectory/28331.aspx'
p2389
aS'/MembersSection/MemberDirectory/29917.aspx'
p2390
aS'/MembersSection/MemberDirectory/27582.aspx'
p2391
aS'/MembersSection/MemberDirectory/30600.aspx'
p2392
aS'/MembersSection/MemberDirectory/27701.aspx'
p2393
aS'/MembersSection/MemberDirectory/28329.aspx'
p2394
aS'/MembersSection/MemberDirectory/30068.aspx'
p2395
aS'/MembersSection/MemberDirectory/28328.aspx'
p2396
aS'/MembersSection/MemberDirectory/30848.aspx'
p2397
aS'/MembersSection/MemberDirectory/27562.aspx'
p2398
aS'/MembersSection/MemberDirectory/28327.aspx'
p2399
aS'/MembersSection/MemberDirectory/27659.aspx'
p2400
aS'/MembersSection/MemberDirectory/172713/27706.aspx'
p2401
aS'/MembersSection/MemberDirectory/130122.aspx'
p2402
aS'/MembersSection/MemberDirectory/69283.aspx'
p2403
aS'/MembersSection/MemberDirectory/69290.aspx'
p2404
aS'/MembersSection/MemberDirectory/30964.aspx'
p2405
aS'/MembersSection/MemberDirectory/30079.aspx'
p2406
aS'/MembersSection/MemberDirectory/29843.aspx'
p2407
aS'/MembersSection/MemberDirectory/30904.aspx'
p2408
aS'/MembersSection/MemberDirectory/130152.aspx'
p2409
aS'/MembersSection/MemberDirectory/42089.aspx'
p2410
aS'/MembersSection/MemberDirectory/165599.aspx'
p2411
aS'/MembersSection/MemberDirectory/31013.aspx'
p2412
aS'/MembersSection/MemberDirectory/130203.aspx'
p2413
aS'/MembersSection/MemberDirectory/28324.aspx'
p2414
aS'/MembersSection/MemberDirectory/165674.aspx'
p2415
aS'/MembersSection/MemberDirectory/149822.aspx'
p2416
aS'/MembersSection/MemberDirectory/31051.aspx'
p2417
aS'/MembersSection/MemberDirectory/165675.aspx'
p2418
aS'/MembersSection/MemberDirectory/31067.aspx'
p2419
aS'/MembersSection/MemberDirectory/130153.aspx'
p2420
aS'/MembersSection/MemberDirectory/28087.aspx'
p2421
aS'/MembersSection/MemberDirectory/31052.aspx'
p2422
aS'/MembersSection/MemberDirectory/31053.aspx'
p2423
aS'/MembersSection/MemberDirectory/28321.aspx'
p2424
aS'/MembersSection/MemberDirectory/28320.aspx'
p2425
aS'/MembersSection/MemberDirectory/28319.aspx'
p2426
aS'/MembersSection/MemberDirectory/27933.aspx'
p2427
aS'/MembersSection/MemberDirectory/29844.aspx'
p2428
aS'/MembersSection/MemberDirectory/29958.aspx'
p2429
aS'/MembersSection/MemberDirectory/30447.aspx'
p2430
aS'/MembersSection/MemberDirectory/42090.aspx'
p2431
aS'/MembersSection/MemberDirectory/162032/31005.aspx'
p2432
aS'/MembersSection/MemberDirectory/27820.aspx'
p2433
aS'/MembersSection/MemberDirectory/69238.aspx'
p2434
aS'/MembersSection/MemberDirectory/149920.aspx'
p2435
aS'/MembersSection/MemberDirectory/165676.aspx'
p2436
aS'/MembersSection/MemberDirectory/31140.aspx'
p2437
aS'/MembersSection/MemberDirectory/107899.aspx'
p2438
aS'/MembersSection/MemberDirectory/29973.aspx'
p2439
aS'/MembersSection/MemberDirectory/69291.aspx'
p2440
aS'/MembersSection/MemberDirectory/28313.aspx'
p2441
aS'/MembersSection/MemberDirectory/56163.aspx'
p2442
aS'/MembersSection/MemberDirectory/162027/30125.aspx'
p2443
aS'/MembersSection/MemberDirectory/27720.aspx'
p2444
aS'/MembersSection/MemberDirectory/42029.aspx'
p2445
aS'/MembersSection/MemberDirectory/107909.aspx'
p2446
aS'/MembersSection/MemberDirectory/30527.aspx'
p2447
aS'/MembersSection/MemberDirectory/28310.aspx'
p2448
aS'/MembersSection/MemberDirectory/30173.aspx'
p2449
aS'/MembersSection/MemberDirectory/28313.aspx'
p2450
aS'/MembersSection/MemberDirectory/56163.aspx'
p2451
a.