(lp0
S'http://www.nasonline.org/member-directory/members/46130.html'
p1
aS'http://www.nasonline.org/member-directory/members/45771.html'
p2
aS'http://www.nasonline.org/member-directory/members/58396.html'
p3
aS'http://www.nasonline.org/member-directory/members/58374.html'
p4
aS'http://www.nasonline.org/member-directory/members/58365.html'
p5
aS'http://www.nasonline.org/member-directory/members/58355.html'
p6
aS'http://www.nasonline.org/member-directory/members/58353.html'
p7
aS'http://www.nasonline.org/member-directory/members/58348.html'
p8
aS'http://www.nasonline.org/member-directory/members/58336.html'
p9
aS'http://www.nasonline.org/member-directory/members/58323.html'
p10
aS'http://www.nasonline.org/member-directory/members/58315.html'
p11
aS'http://www.nasonline.org/member-directory/members/58307.html'
p12
aS'http://www.nasonline.org/member-directory/members/45785.html'
p13
aS'http://www.nasonline.org/member-directory/members/58295.html'
p14
aS'http://www.nasonline.org/member-directory/members/58266.html'
p15
aS'http://www.nasonline.org/member-directory/members/58252.html'
p16
aS'http://www.nasonline.org/member-directory/members/58223.html'
p17
aS'http://www.nasonline.org/member-directory/members/15551.html'
p18
aS'http://www.nasonline.org/member-directory/members/47103.html'
p19
aS'http://www.nasonline.org/member-directory/members/15550.html'
p20
aS'http://www.nasonline.org/member-directory/members/58175.html'
p21
aS'http://www.nasonline.org/member-directory/members/58176.html'
p22
aS'http://www.nasonline.org/member-directory/members/58167.html'
p23
aS'http://www.nasonline.org/member-directory/members/58159.html'
p24
aS'http://www.nasonline.org/member-directory/members/47100.html'
p25
aS'http://www.nasonline.org/member-directory/members/58136.html'
p26
aS'http://www.nasonline.org/member-directory/members/45739.html'
p27
aS'http://www.nasonline.org/member-directory/members/58122.html'
p28
aS'http://www.nasonline.org/member-directory/members/58107.html'
p29
aS'http://www.nasonline.org/member-directory/members/58105.html'
p30
aS'http://www.nasonline.org/member-directory/members/58103.html'
p31
aS'http://www.nasonline.org/member-directory/members/58079.html'
p32
aS'http://www.nasonline.org/member-directory/members/58040.html'
p33
aS'http://www.nasonline.org/member-directory/members/58038.html'
p34
aS'http://www.nasonline.org/member-directory/members/58034.html'
p35
aS'http://www.nasonline.org/member-directory/members/58033.html'
p36
aS'http://www.nasonline.org/member-directory/members/58030.html'
p37
aS'http://www.nasonline.org/member-directory/members/58014.html'
p38
aS'http://www.nasonline.org/member-directory/members/57956.html'
p39
aS'http://www.nasonline.org/member-directory/members/57949.html'
p40
aS'http://www.nasonline.org/member-directory/members/57915.html'
p41
aS'http://www.nasonline.org/member-directory/members/57894.html'
p42
aS'http://www.nasonline.org/member-directory/members/57872.html'
p43
aS'http://www.nasonline.org/member-directory/members/57820.html'
p44
aS'http://www.nasonline.org/member-directory/members/57814.html'
p45
aS'http://www.nasonline.org/member-directory/members/57807.html'
p46
aS'http://www.nasonline.org/member-directory/members/57786.html'
p47
aS'http://www.nasonline.org/member-directory/members/57784.html'
p48
aS'http://www.nasonline.org/member-directory/members/57775.html'
p49
aS'http://www.nasonline.org/member-directory/members/57762.html'
p50
aS'http://www.nasonline.org/member-directory/members/57752.html'
p51
aS'http://www.nasonline.org/member-directory/members/57744.html'
p52
aS'http://www.nasonline.org/member-directory/members/57738.html'
p53
aS'http://www.nasonline.org/member-directory/members/57711.html'
p54
aS'http://www.nasonline.org/member-directory/members/15497.html'
p55
aS'http://www.nasonline.org/member-directory/members/57676.html'
p56
aS'http://www.nasonline.org/member-directory/members/40360.html'
p57
aS'http://www.nasonline.org/member-directory/members/57670.html'
p58
aS'http://www.nasonline.org/member-directory/members/57669.html'
p59
aS'http://www.nasonline.org/member-directory/members/48322.html'
p60
aS'http://www.nasonline.org/member-directory/members/57622.html'
p61
aS'http://www.nasonline.org/member-directory/members/48673.html'
p62
aS'http://www.nasonline.org/member-directory/members/57611.html'
p63
aS'http://www.nasonline.org/member-directory/members/47083.html'
p64
aS'http://www.nasonline.org/member-directory/members/57582.html'
p65
aS'http://www.nasonline.org/member-directory/members/57546.html'
p66
aS'http://www.nasonline.org/member-directory/members/57516.html'
p67
aS'http://www.nasonline.org/member-directory/members/57501.html'
p68
aS'http://www.nasonline.org/member-directory/members/45751.html'
p69
aS'http://www.nasonline.org/member-directory/members/57485.html'
p70
aS'http://www.nasonline.org/member-directory/members/57441.html'
p71
aS'http://www.nasonline.org/member-directory/members/57438.html'
p72
aS'http://www.nasonline.org/member-directory/members/57432.html'
p73
aS'http://www.nasonline.org/member-directory/members/57428.html'
p74
aS'http://www.nasonline.org/member-directory/members/46750.html'
p75
aS'http://www.nasonline.org/member-directory/members/57394.html'
p76
aS'http://www.nasonline.org/member-directory/members/57390.html'
p77
aS'http://www.nasonline.org/member-directory/members/57381.html'
p78
aS'http://www.nasonline.org/member-directory/members/44860.html'
p79
aS'http://www.nasonline.org/member-directory/members/57365.html'
p80
aS'http://www.nasonline.org/member-directory/members/57351.html'
p81
aS'http://www.nasonline.org/member-directory/members/57344.html'
p82
aS'http://www.nasonline.org/member-directory/members/57335.html'
p83
aS'http://www.nasonline.org/member-directory/members/57328.html'
p84
aS'http://www.nasonline.org/member-directory/members/57317.html'
p85
aS'http://www.nasonline.org/member-directory/members/57295.html'
p86
aS'http://www.nasonline.org/member-directory/members/57278.html'
p87
aS'http://www.nasonline.org/member-directory/members/15546.html'
p88
aS'http://www.nasonline.org/member-directory/members/57249.html'
p89
aS'http://www.nasonline.org/member-directory/members/57234.html'
p90
aS'http://www.nasonline.org/member-directory/members/57232.html'
p91
aS'http://www.nasonline.org/member-directory/members/15496.html'
p92
aS'http://www.nasonline.org/member-directory/members/57227.html'
p93
aS'http://www.nasonline.org/member-directory/members/57161.html'
p94
aS'http://www.nasonline.org/member-directory/members/57143.html'
p95
aS'http://www.nasonline.org/member-directory/members/40359.html'
p96
aS'http://www.nasonline.org/member-directory/members/46737.html'
p97
aS'http://www.nasonline.org/member-directory/members/15544.html'
p98
aS'http://www.nasonline.org/member-directory/members/40358.html'
p99
aS'http://www.nasonline.org/member-directory/members/45784.html'
p100
aS'http://www.nasonline.org/member-directory/members/46736.html'
p101
aS'http://www.nasonline.org/member-directory/members/56980.html'
p102
aS'http://www.nasonline.org/member-directory/members/56974.html'
p103
aS'http://www.nasonline.org/member-directory/members/56967.html'
p104
aS'http://www.nasonline.org/member-directory/members/47210.html'
p105
aS'http://www.nasonline.org/member-directory/members/56959.html'
p106
aS'http://www.nasonline.org/member-directory/members/56957.html'
p107
aS'http://www.nasonline.org/member-directory/members/56921.html'
p108
aS'http://www.nasonline.org/member-directory/members/56888.html'
p109
aS'http://www.nasonline.org/member-directory/members/40357.html'
p110
aS'http://www.nasonline.org/member-directory/members/56843.html'
p111
aS'http://www.nasonline.org/member-directory/members/56842.html'
p112
aS'http://www.nasonline.org/member-directory/members/56840.html'
p113
aS'http://www.nasonline.org/member-directory/members/56834.html'
p114
aS'http://www.nasonline.org/member-directory/members/56832.html'
p115
aS'http://www.nasonline.org/member-directory/members/56831.html'
p116
aS'http://www.nasonline.org/member-directory/members/56814.html'
p117
aS'http://www.nasonline.org/member-directory/members/56796.html'
p118
aS'http://www.nasonline.org/member-directory/members/45748.html'
p119
aS'http://www.nasonline.org/member-directory/members/46734.html'
p120
aS'http://www.nasonline.org/member-directory/members/56747.html'
p121
aS'http://www.nasonline.org/member-directory/members/56742.html'
p122
aS'http://www.nasonline.org/member-directory/members/56721.html'
p123
aS'http://www.nasonline.org/member-directory/members/56685.html'
p124
aS'http://www.nasonline.org/member-directory/members/56674.html'
p125
aS'http://www.nasonline.org/member-directory/members/56587.html'
p126
aS'http://www.nasonline.org/member-directory/members/48680.html'
p127
aS'http://www.nasonline.org/member-directory/members/56513.html'
p128
aS'http://www.nasonline.org/member-directory/members/15542.html'
p129
aS'http://www.nasonline.org/member-directory/members/56488.html'
p130
aS'http://www.nasonline.org/member-directory/members/56463.html'
p131
aS'http://www.nasonline.org/member-directory/members/56458.html'
p132
aS'http://www.nasonline.org/member-directory/members/56446.html'
p133
aS'http://www.nasonline.org/member-directory/members/56430.html'
p134
aS'http://www.nasonline.org/member-directory/members/56397.html'
p135
aS'http://www.nasonline.org/member-directory/members/40363.html'
p136
aS'http://www.nasonline.org/member-directory/members/56326.html'
p137
aS'http://www.nasonline.org/member-directory/members/56325.html'
p138
aS'http://www.nasonline.org/member-directory/members/45758.html'
p139
aS'http://www.nasonline.org/member-directory/members/56307.html'
p140
aS'http://www.nasonline.org/member-directory/members/56248.html'
p141
aS'http://www.nasonline.org/member-directory/members/56224.html'
p142
aS'http://www.nasonline.org/member-directory/members/56214.html'
p143
aS'http://www.nasonline.org/member-directory/members/40362.html'
p144
aS'http://www.nasonline.org/member-directory/members/56140.html'
p145
aS'http://www.nasonline.org/member-directory/members/56127.html'
p146
aS'http://www.nasonline.org/member-directory/members/56086.html'
p147
aS'http://www.nasonline.org/member-directory/members/45750.html'
p148
aS'http://www.nasonline.org/member-directory/members/46717.html'
p149
aS'http://www.nasonline.org/member-directory/members/56052.html'
p150
aS'http://www.nasonline.org/member-directory/members/55978.html'
p151
aS'http://www.nasonline.org/member-directory/members/55967.html'
p152
aS'http://www.nasonline.org/member-directory/members/55964.html'
p153
aS'http://www.nasonline.org/member-directory/members/47091.html'
p154
aS'http://www.nasonline.org/member-directory/members/46714.html'
p155
aS'http://www.nasonline.org/member-directory/members/55932.html'
p156
aS'http://www.nasonline.org/member-directory/members/55902.html'
p157
aS'http://www.nasonline.org/member-directory/members/55881.html'
p158
aS'http://www.nasonline.org/member-directory/members/55866.html'
p159
aS'http://www.nasonline.org/member-directory/members/55845.html'
p160
aS'http://www.nasonline.org/member-directory/members/55821.html'
p161
aS'http://www.nasonline.org/member-directory/members/55815.html'
p162
aS'http://www.nasonline.org/member-directory/members/55762.html'
p163
aS'http://www.nasonline.org/member-directory/members/55750.html'
p164
aS'http://www.nasonline.org/member-directory/members/55748.html'
p165
aS'http://www.nasonline.org/member-directory/members/55733.html'
p166
aS'http://www.nasonline.org/member-directory/members/55721.html'
p167
aS'http://www.nasonline.org/member-directory/members/55670.html'
p168
aS'http://www.nasonline.org/member-directory/members/46078.html'
p169
aS'http://www.nasonline.org/member-directory/members/40352.html'
p170
aS'http://www.nasonline.org/member-directory/members/55623.html'
p171
aS'http://www.nasonline.org/member-directory/members/55610.html'
p172
aS'http://www.nasonline.org/member-directory/members/55588.html'
p173
aS'http://www.nasonline.org/member-directory/members/55525.html'
p174
aS'http://www.nasonline.org/member-directory/members/55507.html'
p175
aS'http://www.nasonline.org/member-directory/members/15495.html'
p176
aS'http://www.nasonline.org/member-directory/members/55466.html'
p177
aS'http://www.nasonline.org/member-directory/members/55452.html'
p178
aS'http://www.nasonline.org/member-directory/members/55423.html'
p179
aS'http://www.nasonline.org/member-directory/members/55417.html'
p180
aS'http://www.nasonline.org/member-directory/members/46651.html'
p181
aS'http://www.nasonline.org/member-directory/members/55410.html'
p182
aS'http://www.nasonline.org/member-directory/members/40351.html'
p183
aS'http://www.nasonline.org/member-directory/members/55383.html'
p184
aS'http://www.nasonline.org/member-directory/members/55382.html'
p185
aS'http://www.nasonline.org/member-directory/members/55378.html'
p186
aS'http://www.nasonline.org/member-directory/members/55368.html'
p187
aS'http://www.nasonline.org/member-directory/members/55359.html'
p188
aS'http://www.nasonline.org/member-directory/members/55318.html'
p189
aS'http://www.nasonline.org/member-directory/members/55307.html'
p190
aS'http://www.nasonline.org/member-directory/members/55298.html'
p191
aS'http://www.nasonline.org/member-directory/members/55265.html'
p192
aS'http://www.nasonline.org/member-directory/members/55256.html'
p193
aS'http://www.nasonline.org/member-directory/members/55244.html'
p194
aS'http://www.nasonline.org/member-directory/members/55230.html'
p195
aS'http://www.nasonline.org/member-directory/members/40350.html'
p196
aS'http://www.nasonline.org/member-directory/members/20001988.html'
p197
aS'http://www.nasonline.org/member-directory/members/20001410.html'
p198
aS'http://www.nasonline.org/member-directory/members/15540.html'
p199
aS'http://www.nasonline.org/member-directory/members/55188.html'
p200
aS'http://www.nasonline.org/member-directory/members/45782.html'
p201
aS'http://www.nasonline.org/member-directory/members/3000103.html'
p202
aS'http://www.nasonline.org/member-directory/members/20001991.html'
p203
aS'http://www.nasonline.org/member-directory/members/20001976.html'
p204
aS'http://www.nasonline.org/member-directory/members/20001389.html'
p205
aS'http://www.nasonline.org/member-directory/members/20001973.html'
p206
aS'http://www.nasonline.org/member-directory/members/15539.html'
p207
aS'http://www.nasonline.org/member-directory/members/40349.html'
p208
aS'http://www.nasonline.org/member-directory/members/46645.html'
p209
aS'http://www.nasonline.org/member-directory/members/20001352.html'
p210
aS'http://www.nasonline.org/member-directory/members/45762.html'
p211
aS'http://www.nasonline.org/member-directory/members/20001403.html'
p212
aS'http://www.nasonline.org/member-directory/members/46642.html'
p213
aS'http://www.nasonline.org/member-directory/members/20001981.html'
p214
aS'http://www.nasonline.org/member-directory/members/20001414.html'
p215
aS'http://www.nasonline.org/member-directory/members/46640.html'
p216
aS'http://www.nasonline.org/member-directory/members/20001978.html'
p217
aS'http://www.nasonline.org/member-directory/members/20001971.html'
p218
aS'http://www.nasonline.org/member-directory/members/54838.html'
p219
aS'http://www.nasonline.org/member-directory/members/20001381.html'
p220
aS'http://www.nasonline.org/member-directory/members/15538.html'
p221
aS'http://www.nasonline.org/member-directory/members/54772.html'
p222
aS'http://www.nasonline.org/member-directory/members/54754.html'
p223
aS'http://www.nasonline.org/member-directory/members/54694.html'
p224
aS'http://www.nasonline.org/member-directory/members/54689.html'
p225
aS'http://www.nasonline.org/member-directory/members/54633.html'
p226
aS'http://www.nasonline.org/member-directory/members/45460.html'
p227
aS'http://www.nasonline.org/member-directory/members/54528.html'
p228
aS'http://www.nasonline.org/member-directory/members/54506.html'
p229
aS'http://www.nasonline.org/member-directory/members/54501.html'
p230
aS'http://www.nasonline.org/member-directory/members/54497.html'
p231
aS'http://www.nasonline.org/member-directory/members/54481.html'
p232
aS'http://www.nasonline.org/member-directory/members/46131.html'
p233
aS'http://www.nasonline.org/member-directory/members/54473.html'
p234
aS'http://www.nasonline.org/member-directory/members/54450.html'
p235
aS'http://www.nasonline.org/member-directory/members/54445.html'
p236
aS'http://www.nasonline.org/member-directory/members/54429.html'
p237
aS'http://www.nasonline.org/member-directory/members/54422.html'
p238
aS'http://www.nasonline.org/member-directory/members/40293.html'
p239
aS'http://www.nasonline.org/member-directory/members/54295.html'
p240
aS'http://www.nasonline.org/member-directory/members/45766.html'
p241
aS'http://www.nasonline.org/member-directory/members/54270.html'
p242
aS'http://www.nasonline.org/member-directory/members/47193.html'
p243
aS'http://www.nasonline.org/member-directory/members/47971.html'
p244
aS'http://www.nasonline.org/member-directory/members/54237.html'
p245
aS'http://www.nasonline.org/member-directory/members/40291.html'
p246
aS'http://www.nasonline.org/member-directory/members/54080.html'
p247
aS'http://www.nasonline.org/member-directory/members/46003.html'
p248
aS'http://www.nasonline.org/member-directory/members/45763.html'
p249
aS'http://www.nasonline.org/member-directory/members/54037.html'
p250
aS'http://www.nasonline.org/member-directory/members/15530.html'
p251
aS'http://www.nasonline.org/member-directory/members/54003.html'
p252
aS'http://www.nasonline.org/member-directory/members/40344.html'
p253
aS'http://www.nasonline.org/member-directory/members/53988.html'
p254
aS'http://www.nasonline.org/member-directory/members/53969.html'
p255
aS'http://www.nasonline.org/member-directory/members/53964.html'
p256
aS'http://www.nasonline.org/member-directory/members/53951.html'
p257
aS'http://www.nasonline.org/member-directory/members/53898.html'
p258
aS'http://www.nasonline.org/member-directory/members/53871.html'
p259
aS'http://www.nasonline.org/member-directory/members/53847.html'
p260
aS'http://www.nasonline.org/member-directory/members/40342.html'
p261
aS'http://www.nasonline.org/member-directory/members/53804.html'
p262
aS'http://www.nasonline.org/member-directory/members/45990.html'
p263
aS'http://www.nasonline.org/member-directory/members/53736.html'
p264
aS'http://www.nasonline.org/member-directory/members/45989.html'
p265
aS'http://www.nasonline.org/member-directory/members/53709.html'
p266
aS'http://www.nasonline.org/member-directory/members/45757.html'
p267
aS'http://www.nasonline.org/member-directory/members/40290.html'
p268
aS'http://www.nasonline.org/member-directory/members/53664.html'
p269
aS'http://www.nasonline.org/member-directory/members/53625.html'
p270
aS'http://www.nasonline.org/member-directory/members/45985.html'
p271
aS'http://www.nasonline.org/member-directory/members/53540.html'
p272
aS'http://www.nasonline.org/member-directory/members/53480.html'
p273
aS'http://www.nasonline.org/member-directory/members/53419.html'
p274
aS'http://www.nasonline.org/member-directory/members/53401.html'
p275
aS'http://www.nasonline.org/member-directory/members/53399.html'
p276
aS'http://www.nasonline.org/member-directory/members/53395.html'
p277
aS'http://www.nasonline.org/member-directory/members/53380.html'
p278
aS'http://www.nasonline.org/member-directory/members/53377.html'
p279
aS'http://www.nasonline.org/member-directory/members/53372.html'
p280
aS'http://www.nasonline.org/member-directory/members/45983.html'
p281
aS'http://www.nasonline.org/member-directory/members/53341.html'
p282
aS'http://www.nasonline.org/member-directory/members/53258.html'
p283
aS'http://www.nasonline.org/member-directory/members/53248.html'
p284
aS'http://www.nasonline.org/member-directory/members/53228.html'
p285
aS'http://www.nasonline.org/member-directory/members/53225.html'
p286
aS'http://www.nasonline.org/member-directory/members/53222.html'
p287
aS'http://www.nasonline.org/member-directory/members/53184.html'
p288
aS'http://www.nasonline.org/member-directory/members/15534.html'
p289
aS'http://www.nasonline.org/member-directory/members/53165.html'
p290
aS'http://www.nasonline.org/member-directory/members/15535.html'
p291
aS'http://www.nasonline.org/member-directory/members/53109.html'
p292
aS'http://www.nasonline.org/member-directory/members/53074.html'
p293
aS'http://www.nasonline.org/member-directory/members/53063.html'
p294
aS'http://www.nasonline.org/member-directory/members/45746.html'
p295
aS'http://www.nasonline.org/member-directory/members/52949.html'
p296
aS'http://www.nasonline.org/member-directory/members/52947.html'
p297
aS'http://www.nasonline.org/member-directory/members/52929.html'
p298
aS'http://www.nasonline.org/member-directory/members/52863.html'
p299
aS'http://www.nasonline.org/member-directory/members/52830.html'
p300
aS'http://www.nasonline.org/member-directory/members/52776.html'
p301
aS'http://www.nasonline.org/member-directory/members/52762.html'
p302
aS'http://www.nasonline.org/member-directory/members/52737.html'
p303
aS'http://www.nasonline.org/member-directory/members/52718.html'
p304
aS'http://www.nasonline.org/member-directory/members/52649.html'
p305
aS'http://www.nasonline.org/member-directory/members/52604.html'
p306
aS'http://www.nasonline.org/member-directory/members/40337.html'
p307
aS'http://www.nasonline.org/member-directory/members/45966.html'
p308
aS'http://www.nasonline.org/member-directory/members/15755.html'
p309
aS'http://www.nasonline.org/member-directory/members/45965.html'
p310
aS'http://www.nasonline.org/member-directory/members/52491.html'
p311
aS'http://www.nasonline.org/member-directory/members/52483.html'
p312
aS'http://www.nasonline.org/member-directory/members/52479.html'
p313
aS'http://www.nasonline.org/member-directory/members/52424.html'
p314
aS'http://www.nasonline.org/member-directory/members/52420.html'
p315
aS'http://www.nasonline.org/member-directory/members/52384.html'
p316
aS'http://www.nasonline.org/member-directory/members/52376.html'
p317
aS'http://www.nasonline.org/member-directory/members/42533.html'
p318
aS'http://www.nasonline.org/member-directory/members/45959.html'
p319
aS'http://www.nasonline.org/member-directory/members/52282.html'
p320
aS'http://www.nasonline.org/member-directory/members/52280.html'
p321
aS'http://www.nasonline.org/member-directory/members/52226.html'
p322
aS'http://www.nasonline.org/member-directory/members/15537.html'
p323
aS'http://www.nasonline.org/member-directory/members/52168.html'
p324
aS'http://www.nasonline.org/member-directory/members/52164.html'
p325
aS'http://www.nasonline.org/member-directory/members/52160.html'
p326
aS'http://www.nasonline.org/member-directory/members/52106.html'
p327
aS'http://www.nasonline.org/member-directory/members/45954.html'
p328
aS'http://www.nasonline.org/member-directory/members/40335.html'
p329
aS'http://www.nasonline.org/member-directory/members/51935.html'
p330
aS'http://www.nasonline.org/member-directory/members/51923.html'
p331
aS'http://www.nasonline.org/member-directory/members/47293.html'
p332
aS'http://www.nasonline.org/member-directory/members/51907.html'
p333
aS'http://www.nasonline.org/member-directory/members/51856.html'
p334
aS'http://www.nasonline.org/member-directory/members/51845.html'
p335
aS'http://www.nasonline.org/member-directory/members/51844.html'
p336
aS'http://www.nasonline.org/member-directory/members/51843.html'
p337
aS'http://www.nasonline.org/member-directory/members/51831.html'
p338
aS'http://www.nasonline.org/member-directory/members/51811.html'
p339
aS'http://www.nasonline.org/member-directory/members/51800.html'
p340
aS'http://www.nasonline.org/member-directory/members/51797.html'
p341
aS'http://www.nasonline.org/member-directory/members/51771.html'
p342
aS'http://www.nasonline.org/member-directory/members/45765.html'
p343
aS'http://www.nasonline.org/member-directory/members/15489.html'
p344
aS'http://www.nasonline.org/member-directory/members/40333.html'
p345
aS'http://www.nasonline.org/member-directory/members/51742.html'
p346
aS'http://www.nasonline.org/member-directory/members/51678.html'
p347
aS'http://www.nasonline.org/member-directory/members/51665.html'
p348
aS'http://www.nasonline.org/member-directory/members/51660.html'
p349
aS'http://www.nasonline.org/member-directory/members/51658.html'
p350
aS'http://www.nasonline.org/member-directory/members/51628.html'
p351
aS'http://www.nasonline.org/member-directory/members/45944.html'
p352
aS'http://www.nasonline.org/member-directory/members/51547.html'
p353
aS'http://www.nasonline.org/member-directory/members/51546.html'
p354
aS'http://www.nasonline.org/member-directory/members/51523.html'
p355
aS'http://www.nasonline.org/member-directory/members/51519.html'
p356
aS'http://www.nasonline.org/member-directory/members/51514.html'
p357
aS'http://www.nasonline.org/member-directory/members/51512.html'
p358
aS'http://www.nasonline.org/member-directory/members/51501.html'
p359
aS'http://www.nasonline.org/member-directory/members/51474.html'
p360
aS'http://www.nasonline.org/member-directory/members/51464.html'
p361
aS'http://www.nasonline.org/member-directory/members/51456.html'
p362
aS'http://www.nasonline.org/member-directory/members/45937.html'
p363
aS'http://www.nasonline.org/member-directory/members/51427.html'
p364
aS'http://www.nasonline.org/member-directory/members/51415.html'
p365
aS'http://www.nasonline.org/member-directory/members/45776.html'
p366
aS'http://www.nasonline.org/member-directory/members/51370.html'
p367
aS'http://www.nasonline.org/member-directory/members/51353.html'
p368
aS'http://www.nasonline.org/member-directory/members/45936.html'
p369
aS'http://www.nasonline.org/member-directory/members/15512.html'
p370
aS'http://www.nasonline.org/member-directory/members/45935.html'
p371
aS'http://www.nasonline.org/member-directory/members/51297.html'
p372
aS'http://www.nasonline.org/member-directory/members/45738.html'
p373
aS'http://www.nasonline.org/member-directory/members/51278.html'
p374
aS'http://www.nasonline.org/member-directory/members/51269.html'
p375
aS'http://www.nasonline.org/member-directory/members/51264.html'
p376
aS'http://www.nasonline.org/member-directory/members/47873.html'
p377
aS'http://www.nasonline.org/member-directory/members/51252.html'
p378
aS'http://www.nasonline.org/member-directory/members/51238.html'
p379
aS'http://www.nasonline.org/member-directory/members/51189.html'
p380
aS'http://www.nasonline.org/member-directory/members/51171.html'
p381
aS'http://www.nasonline.org/member-directory/members/51136.html'
p382
aS'http://www.nasonline.org/member-directory/members/51118.html'
p383
aS'http://www.nasonline.org/member-directory/members/51080.html'
p384
aS'http://www.nasonline.org/member-directory/members/51075.html'
p385
aS'http://www.nasonline.org/member-directory/members/51041.html'
p386
aS'http://www.nasonline.org/member-directory/members/15488.html'
p387
aS'http://www.nasonline.org/member-directory/members/15510.html'
p388
aS'http://www.nasonline.org/member-directory/members/51007.html'
p389
aS'http://www.nasonline.org/member-directory/members/50997.html'
p390
aS'http://www.nasonline.org/member-directory/members/50966.html'
p391
aS'http://www.nasonline.org/member-directory/members/50951.html'
p392
aS'http://www.nasonline.org/member-directory/members/45760.html'
p393
aS'http://www.nasonline.org/member-directory/members/15487.html'
p394
aS'http://www.nasonline.org/member-directory/members/50911.html'
p395
aS'http://www.nasonline.org/member-directory/members/45923.html'
p396
aS'http://www.nasonline.org/member-directory/members/15509.html'
p397
aS'http://www.nasonline.org/member-directory/members/50888.html'
p398
aS'http://www.nasonline.org/member-directory/members/50830.html'
p399
aS'http://www.nasonline.org/member-directory/members/50827.html'
p400
aS'http://www.nasonline.org/member-directory/members/50816.html'
p401
aS'http://www.nasonline.org/member-directory/members/15508.html'
p402
aS'http://www.nasonline.org/member-directory/members/50787.html'
p403
aS'http://www.nasonline.org/member-directory/members/50760.html'
p404
aS'http://www.nasonline.org/member-directory/members/50741.html'
p405
aS'http://www.nasonline.org/member-directory/members/50687.html'
p406
aS'http://www.nasonline.org/member-directory/members/45915.html'
p407
aS'http://www.nasonline.org/member-directory/members/50614.html'
p408
aS'http://www.nasonline.org/member-directory/members/45913.html'
p409
aS'http://www.nasonline.org/member-directory/members/50593.html'
p410
aS'http://www.nasonline.org/member-directory/members/50581.html'
p411
aS'http://www.nasonline.org/member-directory/members/50570.html'
p412
aS'http://www.nasonline.org/member-directory/members/45764.html'
p413
aS'http://www.nasonline.org/member-directory/members/50538.html'
p414
aS'http://www.nasonline.org/member-directory/members/50514.html'
p415
aS'http://www.nasonline.org/member-directory/members/44726.html'
p416
aS'http://www.nasonline.org/member-directory/members/50488.html'
p417
aS'http://www.nasonline.org/member-directory/members/50481.html'
p418
aS'http://www.nasonline.org/member-directory/members/50461.html'
p419
aS'http://www.nasonline.org/member-directory/members/45752.html'
p420
aS'http://www.nasonline.org/member-directory/members/50419.html'
p421
aS'http://www.nasonline.org/member-directory/members/50417.html'
p422
aS'http://www.nasonline.org/member-directory/members/50375.html'
p423
aS'http://www.nasonline.org/member-directory/members/50366.html'
p424
aS'http://www.nasonline.org/member-directory/members/50345.html'
p425
aS'http://www.nasonline.org/member-directory/members/50282.html'
p426
aS'http://www.nasonline.org/member-directory/members/40330.html'
p427
aS'http://www.nasonline.org/member-directory/members/50260.html'
p428
aS'http://www.nasonline.org/member-directory/members/50251.html'
p429
aS'http://www.nasonline.org/member-directory/members/45740.html'
p430
aS'http://www.nasonline.org/member-directory/members/50166.html'
p431
aS'http://www.nasonline.org/member-directory/members/15506.html'
p432
aS'http://www.nasonline.org/member-directory/members/50113.html'
p433
aS'http://www.nasonline.org/member-directory/members/50099.html'
p434
aS'http://www.nasonline.org/member-directory/members/50081.html'
p435
aS'http://www.nasonline.org/member-directory/members/40329.html'
p436
aS'http://www.nasonline.org/member-directory/members/50075.html'
p437
aS'http://www.nasonline.org/member-directory/members/50049.html'
p438
aS'http://www.nasonline.org/member-directory/members/50031.html'
p439
aS'http://www.nasonline.org/member-directory/members/49997.html'
p440
aS'http://www.nasonline.org/member-directory/members/49990.html'
p441
aS'http://www.nasonline.org/member-directory/members/49986.html'
p442
aS'http://www.nasonline.org/member-directory/members/49966.html'
p443
aS'http://www.nasonline.org/member-directory/members/49962.html'
p444
aS'http://www.nasonline.org/member-directory/members/49958.html'
p445
aS'http://www.nasonline.org/member-directory/members/49939.html'
p446
aS'http://www.nasonline.org/member-directory/members/45904.html'
p447
aS'http://www.nasonline.org/member-directory/members/49922.html'
p448
aS'http://www.nasonline.org/member-directory/members/49897.html'
p449
aS'http://www.nasonline.org/member-directory/members/49885.html'
p450
aS'http://www.nasonline.org/member-directory/members/15505.html'
p451
aS'http://www.nasonline.org/member-directory/members/15504.html'
p452
aS'http://www.nasonline.org/member-directory/members/49855.html'
p453
aS'http://www.nasonline.org/member-directory/members/49844.html'
p454
aS'http://www.nasonline.org/member-directory/members/49838.html'
p455
aS'http://www.nasonline.org/member-directory/members/49826.html'
p456
aS'http://www.nasonline.org/member-directory/members/49767.html'
p457
aS'http://www.nasonline.org/member-directory/members/49764.html'
p458
aS'http://www.nasonline.org/member-directory/members/49755.html'
p459
aS'http://www.nasonline.org/member-directory/members/49743.html'
p460
aS'http://www.nasonline.org/member-directory/members/49726.html'
p461
aS'http://www.nasonline.org/member-directory/members/49716.html'
p462
aS'http://www.nasonline.org/member-directory/members/40328.html'
p463
aS'http://www.nasonline.org/member-directory/members/40285.html'
p464
aS'http://www.nasonline.org/member-directory/members/49707.html'
p465
aS'http://www.nasonline.org/member-directory/members/49674.html'
p466
aS'http://www.nasonline.org/member-directory/members/49668.html'
p467
aS'http://www.nasonline.org/member-directory/members/15503.html'
p468
aS'http://www.nasonline.org/member-directory/members/49641.html'
p469
aS'http://www.nasonline.org/member-directory/members/40327.html'
p470
aS'http://www.nasonline.org/member-directory/members/49614.html'
p471
aS'http://www.nasonline.org/member-directory/members/15502.html'
p472
aS'http://www.nasonline.org/member-directory/members/40326.html'
p473
aS'http://www.nasonline.org/member-directory/members/45893.html'
p474
aS'http://www.nasonline.org/member-directory/members/49591.html'
p475
aS'http://www.nasonline.org/member-directory/members/49588.html'
p476
aS'http://www.nasonline.org/member-directory/members/40284.html'
p477
aS'http://www.nasonline.org/member-directory/members/49543.html'
p478
aS'http://www.nasonline.org/member-directory/members/45742.html'
p479
aS'http://www.nasonline.org/member-directory/members/49531.html'
p480
aS'http://www.nasonline.org/member-directory/members/49493.html'
p481
aS'http://www.nasonline.org/member-directory/members/49466.html'
p482
aS'http://www.nasonline.org/member-directory/members/45743.html'
p483
aS'http://www.nasonline.org/member-directory/members/40324.html'
p484
aS'http://www.nasonline.org/member-directory/members/49366.html'
p485
aS'http://www.nasonline.org/member-directory/members/49352.html'
p486
aS'http://www.nasonline.org/member-directory/members/49351.html'
p487
aS'http://www.nasonline.org/member-directory/members/45884.html'
p488
aS'http://www.nasonline.org/member-directory/members/45745.html'
p489
aS'http://www.nasonline.org/member-directory/members/49304.html'
p490
aS'http://www.nasonline.org/member-directory/members/15500.html'
p491
aS'http://www.nasonline.org/member-directory/members/49275.html'
p492
aS'http://www.nasonline.org/member-directory/members/49271.html'
p493
aS'http://www.nasonline.org/member-directory/members/49204.html'
p494
aS'http://www.nasonline.org/member-directory/members/49483.html'
p495
aS'http://www.nasonline.org/member-directory/members/49178.html'
p496
aS'http://www.nasonline.org/member-directory/members/49163.html'
p497
aS'http://www.nasonline.org/member-directory/members/49152.html'
p498
aS'http://www.nasonline.org/member-directory/members/49142.html'
p499
aS'http://www.nasonline.org/member-directory/members/45883.html'
p500
aS'http://www.nasonline.org/member-directory/members/49051.html'
p501
aS'http://www.nasonline.org/member-directory/members/49043.html'
p502
aS'http://www.nasonline.org/member-directory/members/49035.html'
p503
aS'http://www.nasonline.org/member-directory/members/49014.html'
p504
aS'http://www.nasonline.org/member-directory/members/48996.html'
p505
aS'http://www.nasonline.org/member-directory/members/48989.html'
p506
aS'http://www.nasonline.org/member-directory/members/48981.html'
p507
aS'http://www.nasonline.org/member-directory/members/48973.html'
p508
aS'http://www.nasonline.org/member-directory/members/48957.html'
p509
aS'http://www.nasonline.org/member-directory/members/48912.html'
p510
aS'http://www.nasonline.org/member-directory/members/48904.html'
p511
aS'http://www.nasonline.org/member-directory/members/48901.html'
p512
aS'http://www.nasonline.org/member-directory/members/48888.html'
p513
aS'http://www.nasonline.org/member-directory/members/48885.html'
p514
aS'http://www.nasonline.org/member-directory/members/45772.html'
p515
aS'http://www.nasonline.org/member-directory/members/48832.html'
p516
aS'http://www.nasonline.org/member-directory/members/15484.html'
p517
a.