(lp0
S'http://www.nasonline.org/member-directory/members/20033167.html'
p1
aS'http://www.nasonline.org/member-directory/members/20033155.html'
p2
aS'http://www.nasonline.org/member-directory/members/3004264.html'
p3
aS'http://www.nasonline.org/member-directory/members/20041729.html'
p4
aS'http://www.nasonline.org/member-directory/members/20022443.html'
p5
aS'http://www.nasonline.org/member-directory/members/3001857.html'
p6
aS'http://www.nasonline.org/member-directory/members/20038937.html'
p7
aS'http://www.nasonline.org/member-directory/members/20035865.html'
p8
aS'http://www.nasonline.org/member-directory/members/20020365.html'
p9
aS'http://www.nasonline.org/member-directory/members/1807.html'
p10
aS'http://www.nasonline.org/member-directory/members/20020410.html'
p11
aS'http://www.nasonline.org/member-directory/members/3004816.html'
p12
aS'http://www.nasonline.org/member-directory/members/66.html'
p13
aS'http://www.nasonline.org/member-directory/members/20017166.html'
p14
aS'http://www.nasonline.org/member-directory/members/20030494.html'
p15
aS'http://www.nasonline.org/member-directory/members/17442.html'
p16
aS'http://www.nasonline.org/member-directory/members/20027346.html'
p17
aS'http://www.nasonline.org/member-directory/members/3003272.html'
p18
aS'http://www.nasonline.org/member-directory/members/20022346.html'
p19
aS'http://www.nasonline.org/member-directory/members/20039003.html'
p20
aS'http://www.nasonline.org/member-directory/members/20022360.html'
p21
aS'http://www.nasonline.org/member-directory/members/20027306.html'
p22
aS'http://www.nasonline.org/member-directory/members/20026368.html'
p23
aS'http://www.nasonline.org/member-directory/members/20002386.html'
p24
aS'http://www.nasonline.org/member-directory/members/20033175.html'
p25
aS'http://www.nasonline.org/member-directory/members/20015174.html'
p26
aS'http://www.nasonline.org/member-directory/members/20011153.html'
p27
aS'http://www.nasonline.org/member-directory/members/20041763.html'
p28
aS'http://www.nasonline.org/member-directory/members/2534069.html'
p29
aS'http://www.nasonline.org/member-directory/members/20033178.html'
p30
aS'http://www.nasonline.org/member-directory/members/20015322.html'
p31
aS'http://www.nasonline.org/member-directory/members/3004046.html'
p32
aS'http://www.nasonline.org/member-directory/members/20027283.html'
p33
aS'http://www.nasonline.org/member-directory/members/20009708.html'
p34
aS'http://www.nasonline.org/member-directory/members/20017258.html'
p35
aS'http://www.nasonline.org/member-directory/members/20027282.html'
p36
aS'http://www.nasonline.org/member-directory/members/3921.html'
p37
aS'http://www.nasonline.org/member-directory/members/20030486.html'
p38
aS'http://www.nasonline.org/member-directory/members/20038981.html'
p39
aS'http://www.nasonline.org/member-directory/members/20035866.html'
p40
aS'http://www.nasonline.org/member-directory/members/20035968.html'
p41
aS'http://www.nasonline.org/member-directory/members/2539061.html'
p42
aS'http://www.nasonline.org/member-directory/members/20041769.html'
p43
aS'http://www.nasonline.org/member-directory/members/20027311.html'
p44
aS'http://www.nasonline.org/member-directory/members/20033179.html'
p45
aS'http://www.nasonline.org/member-directory/members/20027253.html'
p46
aS'http://www.nasonline.org/member-directory/members/20033183.html'
p47
aS'http://www.nasonline.org/member-directory/members/20038971.html'
p48
aS'http://www.nasonline.org/member-directory/members/20024805.html'
p49
aS'http://www.nasonline.org/member-directory/members/2537097.html'
p50
aS'http://www.nasonline.org/member-directory/members/20033140.html'
p51
aS'http://www.nasonline.org/member-directory/members/45175.html'
p52
aS'http://www.nasonline.org/member-directory/members/3007256.html'
p53
aS'http://www.nasonline.org/member-directory/members/20022440.html'
p54
aS'http://www.nasonline.org/member-directory/members/20041783.html'
p55
aS'http://www.nasonline.org/member-directory/members/20027260.html'
p56
aS'http://www.nasonline.org/member-directory/members/20033157.html'
p57
aS'http://www.nasonline.org/member-directory/members/20033147.html'
p58
aS'http://www.nasonline.org/member-directory/members/3000420.html'
p59
aS'http://www.nasonline.org/member-directory/members/20020239.html'
p60
aS'http://www.nasonline.org/member-directory/members/20020245.html'
p61
aS'http://www.nasonline.org/member-directory/members/20036084.html'
p62
aS'http://www.nasonline.org/member-directory/members/20041786.html'
p63
aS'http://www.nasonline.org/member-directory/members/48072.html'
p64
aS'http://www.nasonline.org/member-directory/members/20019950.html'
p65
aS'http://www.nasonline.org/member-directory/members/20041787.html'
p66
aS'http://www.nasonline.org/member-directory/members/20022345.html'
p67
aS'http://www.nasonline.org/member-directory/members/20022344.html'
p68
aS'http://www.nasonline.org/member-directory/members/20029832.html'
p69
aS'http://www.nasonline.org/member-directory/members/20041788.html'
p70
aS'http://www.nasonline.org/member-directory/members/20020124.html'
p71
aS'http://www.nasonline.org/member-directory/members/20022726.html'
p72
aS'http://www.nasonline.org/member-directory/members/20014459.html'
p73
aS'http://www.nasonline.org/member-directory/members/20038999.html'
p74
aS'http://www.nasonline.org/member-directory/members/58555.html'
p75
aS'http://www.nasonline.org/member-directory/members/20036019.html'
p76
aS'http://www.nasonline.org/member-directory/members/8739.html'
p77
aS'http://www.nasonline.org/member-directory/members/2540557.html'
p78
aS'http://www.nasonline.org/member-directory/members/20030481.html'
p79
aS'http://www.nasonline.org/member-directory/members/3015655.html'
p80
aS'http://www.nasonline.org/member-directory/members/20029794.html'
p81
aS'http://www.nasonline.org/member-directory/members/20007326.html'
p82
aS'http://www.nasonline.org/member-directory/members/3008781.html'
p83
aS'http://www.nasonline.org/member-directory/members/20035997.html'
p84
aS'http://www.nasonline.org/member-directory/members/20024873.html'
p85
aS'http://www.nasonline.org/member-directory/members/20038990.html'
p86
aS'http://www.nasonline.org/member-directory/members/2540562.html'
p87
aS'http://www.nasonline.org/member-directory/members/20024875.html'
p88
aS'http://www.nasonline.org/member-directory/members/45045.html'
p89
aS'http://www.nasonline.org/member-directory/members/3000435.html'
p90
aS'http://www.nasonline.org/member-directory/members/20029913.html'
p91
aS'http://www.nasonline.org/member-directory/members/2501117.html'
p92
aS'http://www.nasonline.org/member-directory/members/20024876.html'
p93
aS'http://www.nasonline.org/member-directory/members/20030532.html'
p94
aS'http://www.nasonline.org/member-directory/members/3004317.html'
p95
aS'http://www.nasonline.org/member-directory/members/20038974.html'
p96
aS'http://www.nasonline.org/member-directory/members/20033092.html'
p97
aS'http://www.nasonline.org/member-directory/members/65987.html'
p98
aS'http://www.nasonline.org/member-directory/members/3012538.html'
p99
aS'http://www.nasonline.org/member-directory/members/20024877.html'
p100
aS'http://www.nasonline.org/member-directory/members/20035972.html'
p101
aS'http://www.nasonline.org/member-directory/members/20017143.html'
p102
aS'http://www.nasonline.org/member-directory/members/63730.html'
p103
aS'http://www.nasonline.org/member-directory/members/20041789.html'
p104
aS'http://www.nasonline.org/member-directory/members/20000162.html'
p105
aS'http://www.nasonline.org/member-directory/members/20029831.html'
p106
aS'http://www.nasonline.org/member-directory/members/3001987.html'
p107
aS'http://www.nasonline.org/member-directory/members/20008484.html'
p108
aS'http://www.nasonline.org/member-directory/members/20030251.html'
p109
aS'http://www.nasonline.org/member-directory/members/20008072.html'
p110
aS'http://www.nasonline.org/member-directory/members/20034172.html'
p111
aS'http://www.nasonline.org/member-directory/members/2537214.html'
p112
aS'http://www.nasonline.org/member-directory/members/20024878.html'
p113
aS'http://www.nasonline.org/member-directory/members/20026799.html'
p114
aS'http://www.nasonline.org/member-directory/members/20006352.html'
p115
aS'http://www.nasonline.org/member-directory/members/20036015.html'
p116
aS'http://www.nasonline.org/member-directory/members/20022340.html'
p117
aS'http://www.nasonline.org/member-directory/members/2537228.html'
p118
aS'http://www.nasonline.org/member-directory/members/20033123.html'
p119
aS'http://www.nasonline.org/member-directory/members/20036012.html'
p120
aS'http://www.nasonline.org/member-directory/members/20022343.html'
p121
aS'http://www.nasonline.org/member-directory/members/20022802.html'
p122
aS'http://www.nasonline.org/member-directory/members/57127.html'
p123
aS'http://www.nasonline.org/member-directory/members/20027240.html'
p124
aS'http://www.nasonline.org/member-directory/members/3014691.html'
p125
aS'http://www.nasonline.org/member-directory/members/2537250.html'
p126
aS'http://www.nasonline.org/member-directory/members/67546.html'
p127
aS'http://www.nasonline.org/member-directory/members/6315.html'
p128
aS'http://www.nasonline.org/member-directory/members/20035867.html'
p129
aS'http://www.nasonline.org/member-directory/members/2539209.html'
p130
aS'http://www.nasonline.org/member-directory/members/20041796.html'
p131
aS'http://www.nasonline.org/member-directory/members/20017149.html'
p132
aS'http://www.nasonline.org/member-directory/members/20035870.html'
p133
aS'http://www.nasonline.org/member-directory/members/20038880.html'
p134
aS'http://www.nasonline.org/member-directory/members/20007153.html'
p135
aS'http://www.nasonline.org/member-directory/members/20027280.html'
p136
aS'http://www.nasonline.org/member-directory/members/2542814.html'
p137
aS'http://www.nasonline.org/member-directory/members/3000789.html'
p138
aS'http://www.nasonline.org/member-directory/members/2519092.html'
p139
aS'http://www.nasonline.org/member-directory/members/10501.html'
p140
aS'http://www.nasonline.org/member-directory/members/20027275.html'
p141
aS'http://www.nasonline.org/member-directory/members/20019901.html'
p142
aS'http://www.nasonline.org/member-directory/members/20030491.html'
p143
aS'http://www.nasonline.org/member-directory/members/20041742.html'
p144
aS'http://www.nasonline.org/member-directory/members/20030487.html'
p145
aS'http://www.nasonline.org/member-directory/members/20042206.html'
p146
aS'http://www.nasonline.org/member-directory/members/20027288.html'
p147
aS'http://www.nasonline.org/member-directory/members/20033190.html'
p148
aS'http://www.nasonline.org/member-directory/members/20036086.html'
p149
aS'http://www.nasonline.org/member-directory/members/12792.html'
p150
aS'http://www.nasonline.org/member-directory/members/8723.html'
p151
aS'http://www.nasonline.org/member-directory/members/20027312.html'
p152
aS'http://www.nasonline.org/member-directory/members/20027256.html'
p153
aS'http://www.nasonline.org/member-directory/members/20041746.html'
p154
aS'http://www.nasonline.org/member-directory/members/20017037.html'
p155
aS'http://www.nasonline.org/member-directory/members/3005917.html'
p156
aS'http://www.nasonline.org/member-directory/members/56906.html'
p157
aS'http://www.nasonline.org/member-directory/members/20019189.html'
p158
aS'http://www.nasonline.org/member-directory/members/20033168.html'
p159
aS'http://www.nasonline.org/member-directory/members/20005330.html'
p160
aS'http://www.nasonline.org/member-directory/members/48461.html'
p161
aS'http://www.nasonline.org/member-directory/members/20017259.html'
p162
aS'http://www.nasonline.org/member-directory/members/20033162.html'
p163
aS'http://www.nasonline.org/member-directory/members/20023695.html'
p164
aS'http://www.nasonline.org/member-directory/members/20022352.html'
p165
aS'http://www.nasonline.org/member-directory/members/20018376.html'
p166
aS'http://www.nasonline.org/member-directory/members/20020179.html'
p167
aS'http://www.nasonline.org/member-directory/members/60994.html'
p168
aS'http://www.nasonline.org/member-directory/members/20020413.html'
p169
aS'http://www.nasonline.org/member-directory/members/20020414.html'
p170
aS'http://www.nasonline.org/member-directory/members/20027313.html'
p171
aS'http://www.nasonline.org/member-directory/members/20017260.html'
p172
aS'http://www.nasonline.org/member-directory/members/20015672.html'
p173
aS'http://www.nasonline.org/member-directory/members/20041799.html'
p174
aS'http://www.nasonline.org/member-directory/members/20022341.html'
p175
aS'http://www.nasonline.org/member-directory/members/20029879.html'
p176
aS'http://www.nasonline.org/member-directory/members/3012359.html'
p177
aS'http://www.nasonline.org/member-directory/members/20038976.html'
p178
aS'http://www.nasonline.org/member-directory/members/2534503.html'
p179
aS'http://www.nasonline.org/member-directory/members/2537350.html'
p180
aS'http://www.nasonline.org/member-directory/members/20041749.html'
p181
aS'http://www.nasonline.org/member-directory/members/20041803.html'
p182
aS'http://www.nasonline.org/member-directory/members/20017263.html'
p183
aS'http://www.nasonline.org/member-directory/members/20033112.html'
p184
aS'http://www.nasonline.org/member-directory/members/20033132.html'
p185
aS'http://www.nasonline.org/member-directory/members/56552.html'
p186
aS'http://www.nasonline.org/member-directory/members/20035986.html'
p187
aS'http://www.nasonline.org/member-directory/members/20023470.html'
p188
aS'http://www.nasonline.org/member-directory/members/48448.html'
p189
aS'http://www.nasonline.org/member-directory/members/20023471.html'
p190
aS'http://www.nasonline.org/member-directory/members/20017167.html'
p191
aS'http://www.nasonline.org/member-directory/members/20033197.html'
p192
aS'http://www.nasonline.org/member-directory/members/20022337.html'
p193
aS'http://www.nasonline.org/member-directory/members/3008582.html'
p194
aS'http://www.nasonline.org/member-directory/members/20017264.html'
p195
aS'http://www.nasonline.org/member-directory/members/65273.html'
p196
aS'http://www.nasonline.org/member-directory/members/20008950.html'
p197
aS'http://www.nasonline.org/member-directory/members/20036016.html'
p198
aS'http://www.nasonline.org/member-directory/members/2542152.html'
p199
aS'http://www.nasonline.org/member-directory/members/20041804.html'
p200
aS'http://www.nasonline.org/member-directory/members/3469.html'
p201
aS'http://www.nasonline.org/member-directory/members/2537385.html'
p202
aS'http://www.nasonline.org/member-directory/members/20022445.html'
p203
aS'http://www.nasonline.org/member-directory/members/20020108.html'
p204
aS'http://www.nasonline.org/member-directory/members/20023473.html'
p205
aS'http://www.nasonline.org/member-directory/members/20036083.html'
p206
aS'http://www.nasonline.org/member-directory/members/3008268.html'
p207
aS'http://www.nasonline.org/member-directory/members/20029911.html'
p208
aS'http://www.nasonline.org/member-directory/members/20030489.html'
p209
aS'http://www.nasonline.org/member-directory/members/20038967.html'
p210
aS'http://www.nasonline.org/member-directory/members/20041805.html'
p211
aS'http://www.nasonline.org/member-directory/members/20020416.html'
p212
aS'http://www.nasonline.org/member-directory/members/20027316.html'
p213
aS'http://www.nasonline.org/member-directory/members/20018634.html'
p214
aS'http://www.nasonline.org/member-directory/members/61993.html'
p215
aS'http://www.nasonline.org/member-directory/members/20028663.html'
p216
aS'http://www.nasonline.org/member-directory/members/20030484.html'
p217
aS'http://www.nasonline.org/member-directory/members/2537414.html'
p218
aS'http://www.nasonline.org/member-directory/members/20022359.html'
p219
aS'http://www.nasonline.org/member-directory/members/20024870.html'
p220
aS'http://www.nasonline.org/member-directory/members/20020130.html'
p221
aS'http://www.nasonline.org/member-directory/members/20027254.html'
p222
aS'http://www.nasonline.org/member-directory/members/3000298.html'
p223
aS'http://www.nasonline.org/member-directory/members/20027261.html'
p224
aS'http://www.nasonline.org/member-directory/members/20038933.html'
p225
aS'http://www.nasonline.org/member-directory/members/20030482.html'
p226
aS'http://www.nasonline.org/member-directory/members/20022357.html'
p227
aS'http://www.nasonline.org/member-directory/members/20027317.html'
p228
aS'http://www.nasonline.org/member-directory/members/20041810.html'
p229
aS'http://www.nasonline.org/member-directory/members/20019512.html'
p230
aS'http://www.nasonline.org/member-directory/members/3005618.html'
p231
aS'http://www.nasonline.org/member-directory/members/13175.html'
p232
aS'http://www.nasonline.org/member-directory/members/20017175.html'
p233
aS'http://www.nasonline.org/member-directory/members/20027281.html'
p234
aS'http://www.nasonline.org/member-directory/members/20012430.html'
p235
aS'http://www.nasonline.org/member-directory/members/20038298.html'
p236
aS'http://www.nasonline.org/member-directory/members/3007166.html'
p237
aS'http://www.nasonline.org/member-directory/members/20024804.html'
p238
aS'http://www.nasonline.org/member-directory/members/20028665.html'
p239
aS'http://www.nasonline.org/member-directory/members/20013519.html'
p240
aS'http://www.nasonline.org/member-directory/members/261.html'
p241
aS'http://www.nasonline.org/member-directory/members/20027266.html'
p242
aS'http://www.nasonline.org/member-directory/members/3005752.html'
p243
aS'http://www.nasonline.org/member-directory/members/20038936.html'
p244
aS'http://www.nasonline.org/member-directory/members/2527330.html'
p245
aS'http://www.nasonline.org/member-directory/members/20020314.html'
p246
aS'http://www.nasonline.org/member-directory/members/20035984.html'
p247
aS'http://www.nasonline.org/member-directory/members/20024881.html'
p248
aS'http://www.nasonline.org/member-directory/members/20027277.html'
p249
aS'http://www.nasonline.org/member-directory/members/20024872.html'
p250
aS'http://www.nasonline.org/member-directory/members/20035977.html'
p251
aS'http://www.nasonline.org/member-directory/members/3014289.html'
p252
aS'http://www.nasonline.org/member-directory/members/20008697.html'
p253
aS'http://www.nasonline.org/member-directory/members/2539391.html'
p254
aS'http://www.nasonline.org/member-directory/members/20038985.html'
p255
aS'http://www.nasonline.org/member-directory/members/3007714.html'
p256
aS'http://www.nasonline.org/member-directory/members/20030540.html'
p257
aS'http://www.nasonline.org/member-directory/members/2542176.html'
p258
aS'http://www.nasonline.org/member-directory/members/20020189.html'
p259
aS'http://www.nasonline.org/member-directory/members/20036024.html'
p260
aS'http://www.nasonline.org/member-directory/members/3011117.html'
p261
aS'http://www.nasonline.org/member-directory/members/20022442.html'
p262
aS'http://www.nasonline.org/member-directory/members/20019127.html'
p263
aS'http://www.nasonline.org/member-directory/members/20038988.html'
p264
aS'http://www.nasonline.org/member-directory/members/55782.html'
p265
aS'http://www.nasonline.org/member-directory/members/5221.html'
p266
aS'http://www.nasonline.org/member-directory/members/3004696.html'
p267
aS'http://www.nasonline.org/member-directory/members/20020230.html'
p268
aS'http://www.nasonline.org/member-directory/members/55744.html'
p269
aS'http://www.nasonline.org/member-directory/members/20035970.html'
p270
aS'http://www.nasonline.org/member-directory/members/20027272.html'
p271
aS'http://www.nasonline.org/member-directory/members/3014732.html'
p272
aS'http://www.nasonline.org/member-directory/members/45576.html'
p273
aS'http://www.nasonline.org/member-directory/members/20022349.html'
p274
aS'http://www.nasonline.org/member-directory/members/20041752.html'
p275
aS'http://www.nasonline.org/member-directory/members/3006408.html'
p276
aS'http://www.nasonline.org/member-directory/members/3015713.html'
p277
aS'http://www.nasonline.org/member-directory/members/20030483.html'
p278
aS'http://www.nasonline.org/member-directory/members/20024869.html'
p279
aS'http://www.nasonline.org/member-directory/members/20030475.html'
p280
aS'http://www.nasonline.org/member-directory/members/20029797.html'
p281
aS'http://www.nasonline.org/member-directory/members/61721.html'
p282
aS'http://www.nasonline.org/member-directory/members/20030531.html'
p283
aS'http://www.nasonline.org/member-directory/members/20033171.html'
p284
aS'http://www.nasonline.org/member-directory/members/3007715.html'
p285
aS'http://www.nasonline.org/member-directory/members/20041732.html'
p286
aS'http://www.nasonline.org/member-directory/members/20038994.html'
p287
aS'http://www.nasonline.org/member-directory/members/55575.html'
p288
aS'http://www.nasonline.org/member-directory/members/2542196.html'
p289
aS'http://www.nasonline.org/member-directory/members/20027318.html'
p290
aS'http://www.nasonline.org/member-directory/members/20033122.html'
p291
aS'http://www.nasonline.org/member-directory/members/20033156.html'
p292
aS'http://www.nasonline.org/member-directory/members/3005954.html'
p293
aS'http://www.nasonline.org/member-directory/members/20024792.html'
p294
aS'http://www.nasonline.org/member-directory/members/2539453.html'
p295
aS'http://www.nasonline.org/member-directory/members/20006359.html'
p296
aS'http://www.nasonline.org/member-directory/members/20027274.html'
p297
aS'http://www.nasonline.org/member-directory/members/1531.html'
p298
aS'http://www.nasonline.org/member-directory/members/11299.html'
p299
aS'http://www.nasonline.org/member-directory/members/20027319.html'
p300
aS'http://www.nasonline.org/member-directory/members/20017187.html'
p301
aS'http://www.nasonline.org/member-directory/members/2539473.html'
p302
aS'http://www.nasonline.org/member-directory/members/3006859.html'
p303
aS'http://www.nasonline.org/member-directory/members/20036023.html'
p304
aS'http://www.nasonline.org/member-directory/members/60241.html'
p305
aS'http://www.nasonline.org/member-directory/members/20030542.html'
p306
aS'http://www.nasonline.org/member-directory/members/20031991.html'
p307
aS'http://www.nasonline.org/member-directory/members/20035876.html'
p308
aS'http://www.nasonline.org/member-directory/members/20020247.html'
p309
aS'http://www.nasonline.org/member-directory/members/20041812.html'
p310
aS'http://www.nasonline.org/member-directory/members/20038983.html'
p311
aS'http://www.nasonline.org/member-directory/members/66007.html'
p312
aS'http://www.nasonline.org/member-directory/members/20038050.html'
p313
aS'http://www.nasonline.org/member-directory/members/3003347.html'
p314
aS'http://www.nasonline.org/member-directory/members/20008106.html'
p315
aS'http://www.nasonline.org/member-directory/members/20021461.html'
p316
aS'http://www.nasonline.org/member-directory/members/20024840.html'
p317
aS'http://www.nasonline.org/member-directory/members/2534843.html'
p318
aS'http://www.nasonline.org/member-directory/members/20022362.html'
p319
aS'http://www.nasonline.org/member-directory/members/20004526.html'
p320
aS'http://www.nasonline.org/member-directory/members/58536.html'
p321
aS'http://www.nasonline.org/member-directory/members/20020439.html'
p322
aS'http://www.nasonline.org/member-directory/members/55234.html'
p323
aS'http://www.nasonline.org/member-directory/members/20030247.html'
p324
aS'http://www.nasonline.org/member-directory/members/20024835.html'
p325
aS'http://www.nasonline.org/member-directory/members/20022351.html'
p326
aS'http://www.nasonline.org/member-directory/members/61497.html'
p327
aS'http://www.nasonline.org/member-directory/members/20036022.html'
p328
aS'http://www.nasonline.org/member-directory/members/20015452.html'
p329
aS'http://www.nasonline.org/member-directory/members/20024868.html'
p330
aS'http://www.nasonline.org/member-directory/members/20033148.html'
p331
aS'http://www.nasonline.org/member-directory/members/20027257.html'
p332
aS'http://www.nasonline.org/member-directory/members/20017170.html'
p333
aS'http://www.nasonline.org/member-directory/members/20033172.html'
p334
aS'http://www.nasonline.org/member-directory/members/20013859.html'
p335
aS'http://www.nasonline.org/member-directory/members/20033164.html'
p336
aS'http://www.nasonline.org/member-directory/members/20018669.html'
p337
aS'http://www.nasonline.org/member-directory/members/20027255.html'
p338
aS'http://www.nasonline.org/member-directory/members/55061.html'
p339
aS'http://www.nasonline.org/member-directory/members/20029805.html'
p340
aS'http://www.nasonline.org/member-directory/members/20014919.html'
p341
aS'http://www.nasonline.org/member-directory/members/20038982.html'
p342
aS'http://www.nasonline.org/member-directory/members/20027337.html'
p343
aS'http://www.nasonline.org/member-directory/members/20041739.html'
p344
aS'http://www.nasonline.org/member-directory/members/877.html'
p345
aS'http://www.nasonline.org/member-directory/members/20035998.html'
p346
aS'http://www.nasonline.org/member-directory/members/4897.html'
p347
aS'http://www.nasonline.org/member-directory/members/5210.html'
p348
aS'http://www.nasonline.org/member-directory/members/20017265.html'
p349
aS'http://www.nasonline.org/member-directory/members/3014142.html'
p350
aS'http://www.nasonline.org/member-directory/members/20017189.html'
p351
aS'http://www.nasonline.org/member-directory/members/2542895.html'
p352
aS'http://www.nasonline.org/member-directory/members/20041726.html'
p353
aS'http://www.nasonline.org/member-directory/members/20033163.html'
p354
aS'http://www.nasonline.org/member-directory/members/20033174.html'
p355
aS'http://www.nasonline.org/member-directory/members/5801.html'
p356
aS'http://www.nasonline.org/member-directory/members/20029830.html'
p357
aS'http://www.nasonline.org/member-directory/members/20018640.html'
p358
aS'http://www.nasonline.org/member-directory/members/31054.html'
p359
aS'http://www.nasonline.org/member-directory/members/20027267.html'
p360
aS'http://www.nasonline.org/member-directory/members/20033144.html'
p361
aS'http://www.nasonline.org/member-directory/members/20022372.html'
p362
aS'http://www.nasonline.org/member-directory/members/20024791.html'
p363
aS'http://www.nasonline.org/member-directory/members/20027413.html'
p364
aS'http://www.nasonline.org/member-directory/members/3007867.html'
p365
aS'http://www.nasonline.org/member-directory/members/5798.html'
p366
aS'http://www.nasonline.org/member-directory/members/20036098.html'
p367
aS'http://www.nasonline.org/member-directory/members/20024882.html'
p368
aS'http://www.nasonline.org/member-directory/members/6039.html'
p369
aS'http://www.nasonline.org/member-directory/members/54812.html'
p370
aS'http://www.nasonline.org/member-directory/members/3005732.html'
p371
aS'http://www.nasonline.org/member-directory/members/2537724.html'
p372
aS'http://www.nasonline.org/member-directory/members/20008317.html'
p373
aS'http://www.nasonline.org/member-directory/members/3014527.html'
p374
aS'http://www.nasonline.org/member-directory/members/3000442.html'
p375
aS'http://www.nasonline.org/member-directory/members/20024838.html'
p376
aS'http://www.nasonline.org/member-directory/members/20036100.html'
p377
aS'http://www.nasonline.org/member-directory/members/20035973.html'
p378
aS'http://www.nasonline.org/member-directory/members/20002460.html'
p379
aS'http://www.nasonline.org/member-directory/members/20041816.html'
p380
aS'http://www.nasonline.org/member-directory/members/20022438.html'
p381
aS'http://www.nasonline.org/member-directory/members/20009077.html'
p382
aS'http://www.nasonline.org/member-directory/members/20002562.html'
p383
aS'http://www.nasonline.org/member-directory/members/20036005.html'
p384
aS'http://www.nasonline.org/member-directory/members/20020417.html'
p385
aS'http://www.nasonline.org/member-directory/members/20038989.html'
p386
aS'http://www.nasonline.org/member-directory/members/20022449.html'
p387
aS'http://www.nasonline.org/member-directory/members/3007539.html'
p388
aS'http://www.nasonline.org/member-directory/members/2539589.html'
p389
aS'http://www.nasonline.org/member-directory/members/20024833.html'
p390
aS'http://www.nasonline.org/member-directory/members/20038969.html'
p391
aS'http://www.nasonline.org/member-directory/members/3011940.html'
p392
aS'http://www.nasonline.org/member-directory/members/20035993.html'
p393
aS'http://www.nasonline.org/member-directory/members/20029798.html'
p394
aS'http://www.nasonline.org/member-directory/members/20012016.html'
p395
aS'http://www.nasonline.org/member-directory/members/20029531.html'
p396
aS'http://www.nasonline.org/member-directory/members/20009485.html'
p397
aS'http://www.nasonline.org/member-directory/members/20038955.html'
p398
aS'http://www.nasonline.org/member-directory/members/20017138.html'
p399
aS'http://www.nasonline.org/member-directory/members/20017266.html'
p400
aS'http://www.nasonline.org/member-directory/members/20036063.html'
p401
aS'http://www.nasonline.org/member-directory/members/20036028.html'
p402
aS'http://www.nasonline.org/member-directory/members/20005720.html'
p403
aS'http://www.nasonline.org/member-directory/members/46709.html'
p404
aS'http://www.nasonline.org/member-directory/members/20022335.html'
p405
aS'http://www.nasonline.org/member-directory/members/2518727.html'
p406
aS'http://www.nasonline.org/member-directory/members/59871.html'
p407
aS'http://www.nasonline.org/member-directory/members/64292.html'
p408
aS'http://www.nasonline.org/member-directory/members/20038934.html'
p409
aS'http://www.nasonline.org/member-directory/members/54328.html'
p410
aS'http://www.nasonline.org/member-directory/members/20024867.html'
p411
aS'http://www.nasonline.org/member-directory/members/20041821.html'
p412
aS'http://www.nasonline.org/member-directory/members/20024883.html'
p413
aS'http://www.nasonline.org/member-directory/members/20024803.html'
p414
aS'http://www.nasonline.org/member-directory/members/20024898.html'
p415
aS'http://www.nasonline.org/member-directory/members/20022338.html'
p416
aS'http://www.nasonline.org/member-directory/members/20017267.html'
p417
aS'http://www.nasonline.org/member-directory/members/20035965.html'
p418
aS'http://www.nasonline.org/member-directory/members/20035911.html'
p419
aS'http://www.nasonline.org/member-directory/members/61759.html'
p420
aS'http://www.nasonline.org/member-directory/members/20020366.html'
p421
aS'http://www.nasonline.org/member-directory/members/20022347.html'
p422
aS'http://www.nasonline.org/member-directory/members/3001291.html'
p423
aS'http://www.nasonline.org/member-directory/members/3003208.html'
p424
aS'http://www.nasonline.org/member-directory/members/20036085.html'
p425
aS'http://www.nasonline.org/member-directory/members/890017.html'
p426
aS'http://www.nasonline.org/member-directory/members/20030248.html'
p427
aS'http://www.nasonline.org/member-directory/members/20036037.html'
p428
aS'http://www.nasonline.org/member-directory/members/2537835.html'
p429
aS'http://www.nasonline.org/member-directory/members/20024874.html'
p430
aS'http://www.nasonline.org/member-directory/members/20035912.html'
p431
aS'http://www.nasonline.org/member-directory/members/20006363.html'
p432
aS'http://www.nasonline.org/member-directory/members/20033193.html'
p433
aS'http://www.nasonline.org/member-directory/members/20017178.html'
p434
aS'http://www.nasonline.org/member-directory/members/45193.html'
p435
aS'http://www.nasonline.org/member-directory/members/38738.html'
p436
aS'http://www.nasonline.org/member-directory/members/3001996.html'
p437
aS'http://www.nasonline.org/member-directory/members/20033146.html'
p438
aS'http://www.nasonline.org/member-directory/members/20033120.html'
p439
aS'http://www.nasonline.org/member-directory/members/20035913.html'
p440
aS'http://www.nasonline.org/member-directory/members/20036041.html'
p441
aS'http://www.nasonline.org/member-directory/members/20009975.html'
p442
aS'http://www.nasonline.org/member-directory/members/20022111.html'
p443
aS'http://www.nasonline.org/member-directory/members/20020248.html'
p444
aS'http://www.nasonline.org/member-directory/members/2537864.html'
p445
aS'http://www.nasonline.org/member-directory/members/20041823.html'
p446
aS'http://www.nasonline.org/member-directory/members/20038986.html'
p447
aS'http://www.nasonline.org/member-directory/members/20029793.html'
p448
aS'http://www.nasonline.org/member-directory/members/20003143.html'
p449
aS'http://www.nasonline.org/member-directory/members/20011477.html'
p450
aS'http://www.nasonline.org/member-directory/members/45251.html'
p451
aS'http://www.nasonline.org/member-directory/members/53990.html'
p452
aS'http://www.nasonline.org/member-directory/members/20033170.html'
p453
aS'http://www.nasonline.org/member-directory/members/20035971.html'
p454
aS'http://www.nasonline.org/member-directory/members/20029822.html'
p455
aS'http://www.nasonline.org/member-directory/members/20008298.html'
p456
aS'http://www.nasonline.org/member-directory/members/65717.html'
p457
aS'http://www.nasonline.org/member-directory/members/20035996.html'
p458
aS'http://www.nasonline.org/member-directory/members/3013839.html'
p459
aS'http://www.nasonline.org/member-directory/members/20021474.html'
p460
aS'http://www.nasonline.org/member-directory/members/20022361.html'
p461
aS'http://www.nasonline.org/member-directory/members/20000232.html'
p462
aS'http://www.nasonline.org/member-directory/members/20009064.html'
p463
aS'http://www.nasonline.org/member-directory/members/20015484.html'
p464
aS'http://www.nasonline.org/member-directory/members/45074.html'
p465
aS'http://www.nasonline.org/member-directory/members/20030541.html'
p466
aS'http://www.nasonline.org/member-directory/members/20015112.html'
p467
aS'http://www.nasonline.org/member-directory/members/20033161.html'
p468
aS'http://www.nasonline.org/member-directory/members/20033130.html'
p469
aS'http://www.nasonline.org/member-directory/members/20022236.html'
p470
aS'http://www.nasonline.org/member-directory/members/5998.html'
p471
aS'http://www.nasonline.org/member-directory/members/20033182.html'
p472
aS'http://www.nasonline.org/member-directory/members/20041824.html'
p473
aS'http://www.nasonline.org/member-directory/members/3015182.html'
p474
aS'http://www.nasonline.org/member-directory/members/20024831.html'
p475
aS'http://www.nasonline.org/member-directory/members/20038949.html'
p476
aS'http://www.nasonline.org/member-directory/members/20038058.html'
p477
aS'http://www.nasonline.org/member-directory/members/20008359.html'
p478
aS'http://www.nasonline.org/member-directory/members/20035988.html'
p479
aS'http://www.nasonline.org/member-directory/members/20027287.html'
p480
aS'http://www.nasonline.org/member-directory/members/20020133.html'
p481
aS'http://www.nasonline.org/member-directory/members/3011710.html'
p482
aS'http://www.nasonline.org/member-directory/members/20036029.html'
p483
aS'http://www.nasonline.org/member-directory/members/3009652.html'
p484
aS'http://www.nasonline.org/member-directory/members/2517529.html'
p485
aS'http://www.nasonline.org/member-directory/members/2539730.html'
p486
aS'http://www.nasonline.org/member-directory/members/53690.html'
p487
aS'http://www.nasonline.org/member-directory/members/20020418.html'
p488
aS'http://www.nasonline.org/member-directory/members/20022380.html'
p489
aS'http://www.nasonline.org/member-directory/members/20035915.html'
p490
aS'http://www.nasonline.org/member-directory/members/20038968.html'
p491
aS'http://www.nasonline.org/member-directory/members/53677.html'
p492
aS'http://www.nasonline.org/member-directory/members/20039001.html'
p493
aS'http://www.nasonline.org/member-directory/members/20024900.html'
p494
aS'http://www.nasonline.org/member-directory/members/3002007.html'
p495
aS'http://www.nasonline.org/member-directory/members/20041825.html'
p496
aS'http://www.nasonline.org/member-directory/members/20017186.html'
p497
aS'http://www.nasonline.org/member-directory/members/20005239.html'
p498
aS'http://www.nasonline.org/member-directory/members/20033492.html'
p499
aS'http://www.nasonline.org/member-directory/members/20015058.html'
p500
aS'http://www.nasonline.org/member-directory/members/20036007.html'
p501
aS'http://www.nasonline.org/member-directory/members/53579.html'
p502
aS'http://www.nasonline.org/member-directory/members/20024832.html'
p503
aS'http://www.nasonline.org/member-directory/members/2539749.html'
p504
aS'http://www.nasonline.org/member-directory/members/20019103.html'
p505
aS'http://www.nasonline.org/member-directory/members/20020420.html'
p506
aS'http://www.nasonline.org/member-directory/members/58614.html'
p507
aS'http://www.nasonline.org/member-directory/members/20035995.html'
p508
aS'http://www.nasonline.org/member-directory/members/20022353.html'
p509
aS'http://www.nasonline.org/member-directory/members/20038998.html'
p510
aS'http://www.nasonline.org/member-directory/members/20038977.html'
p511
aS'http://www.nasonline.org/member-directory/members/20029959.html'
p512
aS'http://www.nasonline.org/member-directory/members/20017268.html'
p513
aS'http://www.nasonline.org/member-directory/members/15746.html'
p514
aS'http://www.nasonline.org/member-directory/members/20013838.html'
p515
aS'http://www.nasonline.org/member-directory/members/20029950.html'
p516
aS'http://www.nasonline.org/member-directory/members/20030485.html'
p517
aS'http://www.nasonline.org/member-directory/members/20033180.html'
p518
aS'http://www.nasonline.org/member-directory/members/20024901.html'
p519
aS'http://www.nasonline.org/member-directory/members/20022182.html'
p520
aS'http://www.nasonline.org/member-directory/members/20027278.html'
p521
aS'http://www.nasonline.org/member-directory/members/20035989.html'
p522
aS'http://www.nasonline.org/member-directory/members/20006933.html'
p523
aS'http://www.nasonline.org/member-directory/members/20032001.html'
p524
aS'http://www.nasonline.org/member-directory/members/62255.html'
p525
aS'http://www.nasonline.org/member-directory/members/44654.html'
p526
aS'http://www.nasonline.org/member-directory/members/59618.html'
p527
aS'http://www.nasonline.org/member-directory/members/48747.html'
p528
aS'http://www.nasonline.org/member-directory/members/20023666.html'
p529
aS'http://www.nasonline.org/member-directory/members/20024796.html'
p530
aS'http://www.nasonline.org/member-directory/members/20041745.html'
p531
aS'http://www.nasonline.org/member-directory/members/29324.html'
p532
aS'http://www.nasonline.org/member-directory/members/20027285.html'
p533
aS'http://www.nasonline.org/member-directory/members/20027339.html'
p534
aS'http://www.nasonline.org/member-directory/members/20024902.html'
p535
aS'http://www.nasonline.org/member-directory/members/20023218.html'
p536
aS'http://www.nasonline.org/member-directory/members/20033158.html'
p537
aS'http://www.nasonline.org/member-directory/members/3006424.html'
p538
aS'http://www.nasonline.org/member-directory/members/2511413.html'
p539
aS'http://www.nasonline.org/member-directory/members/20017141.html'
p540
aS'http://www.nasonline.org/member-directory/members/3002033.html'
p541
aS'http://www.nasonline.org/member-directory/members/20036006.html'
p542
aS'http://www.nasonline.org/member-directory/members/10662.html'
p543
aS'http://www.nasonline.org/member-directory/members/20011853.html'
p544
aS'http://www.nasonline.org/member-directory/members/20030497.html'
p545
aS'http://www.nasonline.org/member-directory/members/20041832.html'
p546
aS'http://www.nasonline.org/member-directory/members/20020422.html'
p547
aS'http://www.nasonline.org/member-directory/members/3009594.html'
p548
aS'http://www.nasonline.org/member-directory/members/20041834.html'
p549
aS'http://www.nasonline.org/member-directory/members/9835.html'
p550
aS'http://www.nasonline.org/member-directory/members/20034913.html'
p551
aS'http://www.nasonline.org/member-directory/members/20036008.html'
p552
aS'http://www.nasonline.org/member-directory/members/18910.html'
p553
aS'http://www.nasonline.org/member-directory/members/20027264.html'
p554
aS'http://www.nasonline.org/member-directory/members/20033121.html'
p555
aS'http://www.nasonline.org/member-directory/members/3007455.html'
p556
aS'http://www.nasonline.org/member-directory/members/63300.html'
p557
aS'http://www.nasonline.org/member-directory/members/53075.html'
p558
aS'http://www.nasonline.org/member-directory/members/3005174.html'
p559
aS'http://www.nasonline.org/member-directory/members/20016904.html'
p560
aS'http://www.nasonline.org/member-directory/members/20022348.html'
p561
aS'http://www.nasonline.org/member-directory/members/20022441.html'
p562
aS'http://www.nasonline.org/member-directory/members/20022805.html'
p563
aS'http://www.nasonline.org/member-directory/members/66029.html'
p564
aS'http://www.nasonline.org/member-directory/members/3013862.html'
p565
aS'http://www.nasonline.org/member-directory/members/20024461.html'
p566
aS'http://www.nasonline.org/member-directory/members/20027258.html'
p567
aS'http://www.nasonline.org/member-directory/members/20002518.html'
p568
aS'http://www.nasonline.org/member-directory/members/20017172.html'
p569
aS'http://www.nasonline.org/member-directory/members/20017182.html'
p570
aS'http://www.nasonline.org/member-directory/members/20024806.html'
p571
aS'http://www.nasonline.org/member-directory/members/20020423.html'
p572
aS'http://www.nasonline.org/member-directory/members/52960.html'
p573
aS'http://www.nasonline.org/member-directory/members/20022342.html'
p574
aS'http://www.nasonline.org/member-directory/members/63395.html'
p575
aS'http://www.nasonline.org/member-directory/members/3004471.html'
p576
aS'http://www.nasonline.org/member-directory/members/52928.html'
p577
aS'http://www.nasonline.org/member-directory/members/2543692.html'
p578
aS'http://www.nasonline.org/member-directory/members/20004067.html'
p579
aS'http://www.nasonline.org/member-directory/members/20038980.html'
p580
aS'http://www.nasonline.org/member-directory/members/2518293.html'
p581
aS'http://www.nasonline.org/member-directory/members/20041734.html'
p582
aS'http://www.nasonline.org/member-directory/members/20005351.html'
p583
aS'http://www.nasonline.org/member-directory/members/20023114.html'
p584
aS'http://www.nasonline.org/member-directory/members/44661.html'
p585
aS'http://www.nasonline.org/member-directory/members/20030477.html'
p586
aS'http://www.nasonline.org/member-directory/members/20022367.html'
p587
aS'http://www.nasonline.org/member-directory/members/20035916.html'
p588
aS'http://www.nasonline.org/member-directory/members/43389.html'
p589
aS'http://www.nasonline.org/member-directory/members/60849.html'
p590
aS'http://www.nasonline.org/member-directory/members/3010690.html'
p591
aS'http://www.nasonline.org/member-directory/members/20011484.html'
p592
aS'http://www.nasonline.org/member-directory/members/20038984.html'
p593
aS'http://www.nasonline.org/member-directory/members/20011859.html'
p594
aS'http://www.nasonline.org/member-directory/members/20009987.html'
p595
aS'http://www.nasonline.org/member-directory/members/65018.html'
p596
aS'http://www.nasonline.org/member-directory/members/20022354.html'
p597
aS'http://www.nasonline.org/member-directory/members/20032712.html'
p598
aS'http://www.nasonline.org/member-directory/members/3435.html'
p599
aS'http://www.nasonline.org/member-directory/members/20024830.html'
p600
aS'http://www.nasonline.org/member-directory/members/2538144.html'
p601
aS'http://www.nasonline.org/member-directory/members/20036103.html'
p602
aS'http://www.nasonline.org/member-directory/members/20027265.html'
p603
aS'http://www.nasonline.org/member-directory/members/20036101.html'
p604
aS'http://www.nasonline.org/member-directory/members/20020224.html'
p605
aS'http://www.nasonline.org/member-directory/members/20033195.html'
p606
aS'http://www.nasonline.org/member-directory/members/20003365.html'
p607
aS'http://www.nasonline.org/member-directory/members/3008745.html'
p608
aS'http://www.nasonline.org/member-directory/members/20036027.html'
p609
aS'http://www.nasonline.org/member-directory/members/20007335.html'
p610
aS'http://www.nasonline.org/member-directory/members/3002038.html'
p611
aS'http://www.nasonline.org/member-directory/members/20017269.html'
p612
aS'http://www.nasonline.org/member-directory/members/3003425.html'
p613
aS'http://www.nasonline.org/member-directory/members/20009484.html'
p614
aS'http://www.nasonline.org/member-directory/members/20020367.html'
p615
aS'http://www.nasonline.org/member-directory/members/20035994.html'
p616
aS'http://www.nasonline.org/member-directory/members/20041836.html'
p617
aS'http://www.nasonline.org/member-directory/members/20041837.html'
p618
aS'http://www.nasonline.org/member-directory/members/20027276.html'
p619
aS'http://www.nasonline.org/member-directory/members/20033110.html'
p620
aS'http://www.nasonline.org/member-directory/members/3001646.html'
p621
aS'http://www.nasonline.org/member-directory/members/52391.html'
p622
aS'http://www.nasonline.org/member-directory/members/46760.html'
p623
aS'http://www.nasonline.org/member-directory/members/20041730.html'
p624
aS'http://www.nasonline.org/member-directory/members/20033188.html'
p625
aS'http://www.nasonline.org/member-directory/members/20033580.html'
p626
aS'http://www.nasonline.org/member-directory/members/48769.html'
p627
aS'http://www.nasonline.org/member-directory/members/6509.html'
p628
aS'http://www.nasonline.org/member-directory/members/3005815.html'
p629
aS'http://www.nasonline.org/member-directory/members/20035976.html'
p630
aS'http://www.nasonline.org/member-directory/members/20017257.html'
p631
aS'http://www.nasonline.org/member-directory/members/20005342.html'
p632
aS'http://www.nasonline.org/member-directory/members/20036039.html'
p633
aS'http://www.nasonline.org/member-directory/members/2538225.html'
p634
aS'http://www.nasonline.org/member-directory/members/3002037.html'
p635
aS'http://www.nasonline.org/member-directory/members/2518295.html'
p636
aS'http://www.nasonline.org/member-directory/members/20035939.html'
p637
aS'http://www.nasonline.org/member-directory/members/3009944.html'
p638
aS'http://www.nasonline.org/member-directory/members/2501502.html'
p639
aS'http://www.nasonline.org/member-directory/members/20033177.html'
p640
aS'http://www.nasonline.org/member-directory/members/20023242.html'
p641
aS'http://www.nasonline.org/member-directory/members/20013261.html'
p642
aS'http://www.nasonline.org/member-directory/members/20035975.html'
p643
aS'http://www.nasonline.org/member-directory/members/20033199.html'
p644
aS'http://www.nasonline.org/member-directory/members/20020368.html'
p645
aS'http://www.nasonline.org/member-directory/members/20035940.html'
p646
aS'http://www.nasonline.org/member-directory/members/20038970.html'
p647
aS'http://www.nasonline.org/member-directory/members/20035943.html'
p648
aS'http://www.nasonline.org/member-directory/members/2538262.html'
p649
aS'http://www.nasonline.org/member-directory/members/20035992.html'
p650
aS'http://www.nasonline.org/member-directory/members/20029851.html'
p651
aS'http://www.nasonline.org/member-directory/members/20041839.html'
p652
aS'http://www.nasonline.org/member-directory/members/2539963.html'
p653
aS'http://www.nasonline.org/member-directory/members/20021494.html'
p654
aS'http://www.nasonline.org/member-directory/members/20013845.html'
p655
aS'http://www.nasonline.org/member-directory/members/20005491.html'
p656
aS'http://www.nasonline.org/member-directory/members/20038941.html'
p657
aS'http://www.nasonline.org/member-directory/members/20024905.html'
p658
aS'http://www.nasonline.org/member-directory/members/20024795.html'
p659
aS'http://www.nasonline.org/member-directory/members/20027233.html'
p660
aS'http://www.nasonline.org/member-directory/members/3002440.html'
p661
aS'http://www.nasonline.org/member-directory/members/20013846.html'
p662
aS'http://www.nasonline.org/member-directory/members/20024904.html'
p663
aS'http://www.nasonline.org/member-directory/members/20017163.html'
p664
aS'http://www.nasonline.org/member-directory/members/2538284.html'
p665
aS'http://www.nasonline.org/member-directory/members/20026913.html'
p666
aS'http://www.nasonline.org/member-directory/members/20041840.html'
p667
aS'http://www.nasonline.org/member-directory/members/20029948.html'
p668
aS'http://www.nasonline.org/member-directory/members/20041843.html'
p669
aS'http://www.nasonline.org/member-directory/members/51860.html'
p670
aS'http://www.nasonline.org/member-directory/members/65270.html'
p671
aS'http://www.nasonline.org/member-directory/members/3011711.html'
p672
aS'http://www.nasonline.org/member-directory/members/20016139.html'
p673
aS'http://www.nasonline.org/member-directory/members/20002568.html'
p674
aS'http://www.nasonline.org/member-directory/members/20027268.html'
p675
aS'http://www.nasonline.org/member-directory/members/20011152.html'
p676
aS'http://www.nasonline.org/member-directory/members/65726.html'
p677
aS'http://www.nasonline.org/member-directory/members/20012311.html'
p678
aS'http://www.nasonline.org/member-directory/members/20041844.html'
p679
aS'http://www.nasonline.org/member-directory/members/20020155.html'
p680
aS'http://www.nasonline.org/member-directory/members/20027263.html'
p681
aS'http://www.nasonline.org/member-directory/members/67232.html'
p682
aS'http://www.nasonline.org/member-directory/members/20041743.html'
p683
aS'http://www.nasonline.org/member-directory/members/3008710.html'
p684
aS'http://www.nasonline.org/member-directory/members/3013408.html'
p685
aS'http://www.nasonline.org/member-directory/members/20024829.html'
p686
aS'http://www.nasonline.org/member-directory/members/20022807.html'
p687
aS'http://www.nasonline.org/member-directory/members/2529138.html'
p688
aS'http://www.nasonline.org/member-directory/members/20026165.html'
p689
aS'http://www.nasonline.org/member-directory/members/20014224.html'
p690
aS'http://www.nasonline.org/member-directory/members/20033222.html'
p691
aS'http://www.nasonline.org/member-directory/members/20041857.html'
p692
aS'http://www.nasonline.org/member-directory/members/20038978.html'
p693
aS'http://www.nasonline.org/member-directory/members/3006372.html'
p694
aS'http://www.nasonline.org/member-directory/members/3007696.html'
p695
aS'http://www.nasonline.org/member-directory/members/2538353.html'
p696
aS'http://www.nasonline.org/member-directory/members/3011931.html'
p697
aS'http://www.nasonline.org/member-directory/members/20033579.html'
p698
aS'http://www.nasonline.org/member-directory/members/20020246.html'
p699
aS'http://www.nasonline.org/member-directory/members/3012240.html'
p700
aS'http://www.nasonline.org/member-directory/members/20030249.html'
p701
aS'http://www.nasonline.org/member-directory/members/20039002.html'
p702
aS'http://www.nasonline.org/member-directory/members/65650.html'
p703
aS'http://www.nasonline.org/member-directory/members/3012145.html'
p704
aS'http://www.nasonline.org/member-directory/members/20005739.html'
p705
aS'http://www.nasonline.org/member-directory/members/2541307.html'
p706
aS'http://www.nasonline.org/member-directory/members/2518645.html'
p707
aS'http://www.nasonline.org/member-directory/members/3002034.html'
p708
aS'http://www.nasonline.org/member-directory/members/20011627.html'
p709
aS'http://www.nasonline.org/member-directory/members/20011492.html'
p710
aS'http://www.nasonline.org/member-directory/members/20016144.html'
p711
aS'http://www.nasonline.org/member-directory/members/20033169.html'
p712
aS'http://www.nasonline.org/member-directory/members/20033176.html'
p713
aS'http://www.nasonline.org/member-directory/members/20011515.html'
p714
aS'http://www.nasonline.org/member-directory/members/20011855.html'
p715
aS'http://www.nasonline.org/member-directory/members/20038991.html'
p716
aS'http://www.nasonline.org/member-directory/members/20035954.html'
p717
aS'http://www.nasonline.org/member-directory/members/20017188.html'
p718
aS'http://www.nasonline.org/member-directory/members/20017220.html'
p719
aS'http://www.nasonline.org/member-directory/members/3015155.html'
p720
aS'http://www.nasonline.org/member-directory/members/20036038.html'
p721
aS'http://www.nasonline.org/member-directory/members/20022376.html'
p722
aS'http://www.nasonline.org/member-directory/members/2541321.html'
p723
aS'http://www.nasonline.org/member-directory/members/20019274.html'
p724
aS'http://www.nasonline.org/member-directory/members/20015146.html'
p725
aS'http://www.nasonline.org/member-directory/members/3002714.html'
p726
aS'http://www.nasonline.org/member-directory/members/2543054.html'
p727
aS'http://www.nasonline.org/member-directory/members/20041860.html'
p728
aS'http://www.nasonline.org/member-directory/members/20015479.html'
p729
aS'http://www.nasonline.org/member-directory/members/20038993.html'
p730
aS'http://www.nasonline.org/member-directory/members/3014616.html'
p731
aS'http://www.nasonline.org/member-directory/members/20015198.html'
p732
aS'http://www.nasonline.org/member-directory/members/20036082.html'
p733
aS'http://www.nasonline.org/member-directory/members/6980.html'
p734
aS'http://www.nasonline.org/member-directory/members/20020098.html'
p735
aS'http://www.nasonline.org/member-directory/members/1426.html'
p736
aS'http://www.nasonline.org/member-directory/members/20020401.html'
p737
aS'http://www.nasonline.org/member-directory/members/62831.html'
p738
aS'http://www.nasonline.org/member-directory/members/20020241.html'
p739
aS'http://www.nasonline.org/member-directory/members/20027286.html'
p740
aS'http://www.nasonline.org/member-directory/members/20012025.html'
p741
aS'http://www.nasonline.org/member-directory/members/20017381.html'
p742
aS'http://www.nasonline.org/member-directory/members/20027340.html'
p743
aS'http://www.nasonline.org/member-directory/members/20041735.html'
p744
aS'http://www.nasonline.org/member-directory/members/20017270.html'
p745
aS'http://www.nasonline.org/member-directory/members/12901.html'
p746
aS'http://www.nasonline.org/member-directory/members/20020185.html'
p747
aS'http://www.nasonline.org/member-directory/members/20041863.html'
p748
aS'http://www.nasonline.org/member-directory/members/20010415.html'
p749
aS'http://www.nasonline.org/member-directory/members/2538432.html'
p750
aS'http://www.nasonline.org/member-directory/members/20024476.html'
p751
aS'http://www.nasonline.org/member-directory/members/20041864.html'
p752
aS'http://www.nasonline.org/member-directory/members/20030525.html'
p753
aS'http://www.nasonline.org/member-directory/members/20020225.html'
p754
aS'http://www.nasonline.org/member-directory/members/62966.html'
p755
aS'http://www.nasonline.org/member-directory/members/19166.html'
p756
aS'http://www.nasonline.org/member-directory/members/20030478.html'
p757
aS'http://www.nasonline.org/member-directory/members/2500988.html'
p758
aS'http://www.nasonline.org/member-directory/members/20035991.html'
p759
aS'http://www.nasonline.org/member-directory/members/51009.html'
p760
aS'http://www.nasonline.org/member-directory/members/20033196.html'
p761
aS'http://www.nasonline.org/member-directory/members/20027279.html'
p762
aS'http://www.nasonline.org/member-directory/members/20011867.html'
p763
aS'http://www.nasonline.org/member-directory/members/3005735.html'
p764
aS'http://www.nasonline.org/member-directory/members/20038940.html'
p765
aS'http://www.nasonline.org/member-directory/members/20033107.html'
p766
aS'http://www.nasonline.org/member-directory/members/64462.html'
p767
aS'http://www.nasonline.org/member-directory/members/20027341.html'
p768
aS'http://www.nasonline.org/member-directory/members/20020425.html'
p769
aS'http://www.nasonline.org/member-directory/members/2513.html'
p770
aS'http://www.nasonline.org/member-directory/members/20020427.html'
p771
aS'http://www.nasonline.org/member-directory/members/1199.html'
p772
aS'http://www.nasonline.org/member-directory/members/20035985.html'
p773
aS'http://www.nasonline.org/member-directory/members/20027342.html'
p774
aS'http://www.nasonline.org/member-directory/members/3008403.html'
p775
aS'http://www.nasonline.org/member-directory/members/20010363.html'
p776
aS'http://www.nasonline.org/member-directory/members/20030476.html'
p777
aS'http://www.nasonline.org/member-directory/members/20032724.html'
p778
aS'http://www.nasonline.org/member-directory/members/2541395.html'
p779
aS'http://www.nasonline.org/member-directory/members/20041866.html'
p780
aS'http://www.nasonline.org/member-directory/members/2540131.html'
p781
aS'http://www.nasonline.org/member-directory/members/20041736.html'
p782
aS'http://www.nasonline.org/member-directory/members/20017144.html'
p783
aS'http://www.nasonline.org/member-directory/members/2517168.html'
p784
aS'http://www.nasonline.org/member-directory/members/20005271.html'
p785
aS'http://www.nasonline.org/member-directory/members/20033219.html'
p786
aS'http://www.nasonline.org/member-directory/members/20030246.html'
p787
aS'http://www.nasonline.org/member-directory/members/2540145.html'
p788
aS'http://www.nasonline.org/member-directory/members/20033138.html'
p789
aS'http://www.nasonline.org/member-directory/members/20022448.html'
p790
aS'http://www.nasonline.org/member-directory/members/20020428.html'
p791
aS'http://www.nasonline.org/member-directory/members/3006262.html'
p792
aS'http://www.nasonline.org/member-directory/members/20008759.html'
p793
aS'http://www.nasonline.org/member-directory/members/2529082.html'
p794
aS'http://www.nasonline.org/member-directory/members/3008070.html'
p795
aS'http://www.nasonline.org/member-directory/members/20035955.html'
p796
aS'http://www.nasonline.org/member-directory/members/20021503.html'
p797
aS'http://www.nasonline.org/member-directory/members/20017147.html'
p798
aS'http://www.nasonline.org/member-directory/members/50638.html'
p799
aS'http://www.nasonline.org/member-directory/members/20002157.html'
p800
aS'http://www.nasonline.org/member-directory/members/2538536.html'
p801
aS'http://www.nasonline.org/member-directory/members/20017183.html'
p802
aS'http://www.nasonline.org/member-directory/members/20022369.html'
p803
aS'http://www.nasonline.org/member-directory/members/3000732.html'
p804
aS'http://www.nasonline.org/member-directory/members/20011555.html'
p805
aS'http://www.nasonline.org/member-directory/members/20032556.html'
p806
aS'http://www.nasonline.org/member-directory/members/20003606.html'
p807
aS'http://www.nasonline.org/member-directory/members/67590.html'
p808
aS'http://www.nasonline.org/member-directory/members/20015755.html'
p809
aS'http://www.nasonline.org/member-directory/members/20020154.html'
p810
aS'http://www.nasonline.org/member-directory/members/20033106.html'
p811
aS'http://www.nasonline.org/member-directory/members/3007021.html'
p812
aS'http://www.nasonline.org/member-directory/members/2536244.html'
p813
aS'http://www.nasonline.org/member-directory/members/20030488.html'
p814
aS'http://www.nasonline.org/member-directory/members/20030490.html'
p815
aS'http://www.nasonline.org/member-directory/members/20020429.html'
p816
aS'http://www.nasonline.org/member-directory/members/20020156.html'
p817
aS'http://www.nasonline.org/member-directory/members/20015876.html'
p818
aS'http://www.nasonline.org/member-directory/members/20024839.html'
p819
aS'http://www.nasonline.org/member-directory/members/20041896.html'
p820
aS'http://www.nasonline.org/member-directory/members/2518670.html'
p821
aS'http://www.nasonline.org/member-directory/members/62223.html'
p822
aS'http://www.nasonline.org/member-directory/members/20041897.html'
p823
aS'http://www.nasonline.org/member-directory/members/20033108.html'
p824
aS'http://www.nasonline.org/member-directory/members/50453.html'
p825
aS'http://www.nasonline.org/member-directory/members/20030480.html'
p826
aS'http://www.nasonline.org/member-directory/members/20033093.html'
p827
aS'http://www.nasonline.org/member-directory/members/20029896.html'
p828
aS'http://www.nasonline.org/member-directory/members/20041733.html'
p829
aS'http://www.nasonline.org/member-directory/members/20021944.html'
p830
aS'http://www.nasonline.org/member-directory/members/2533164.html'
p831
aS'http://www.nasonline.org/member-directory/members/2536290.html'
p832
aS'http://www.nasonline.org/member-directory/members/20033165.html'
p833
aS'http://www.nasonline.org/member-directory/members/50368.html'
p834
aS'http://www.nasonline.org/member-directory/members/20017142.html'
p835
aS'http://www.nasonline.org/member-directory/members/20039713.html'
p836
aS'http://www.nasonline.org/member-directory/members/20036009.html'
p837
aS'http://www.nasonline.org/member-directory/members/20006740.html'
p838
aS'http://www.nasonline.org/member-directory/members/20035956.html'
p839
aS'http://www.nasonline.org/member-directory/members/20022336.html'
p840
aS'http://www.nasonline.org/member-directory/members/20041898.html'
p841
aS'http://www.nasonline.org/member-directory/members/3001324.html'
p842
aS'http://www.nasonline.org/member-directory/members/20041899.html'
p843
aS'http://www.nasonline.org/member-directory/members/20022355.html'
p844
aS'http://www.nasonline.org/member-directory/members/20041728.html'
p845
aS'http://www.nasonline.org/member-directory/members/20030250.html'
p846
aS'http://www.nasonline.org/member-directory/members/14142.html'
p847
aS'http://www.nasonline.org/member-directory/members/20033200.html'
p848
aS'http://www.nasonline.org/member-directory/members/2540217.html'
p849
aS'http://www.nasonline.org/member-directory/members/20033111.html'
p850
aS'http://www.nasonline.org/member-directory/members/20038979.html'
p851
aS'http://www.nasonline.org/member-directory/members/2536392.html'
p852
aS'http://www.nasonline.org/member-directory/members/20013085.html'
p853
aS'http://www.nasonline.org/member-directory/members/20011676.html'
p854
aS'http://www.nasonline.org/member-directory/members/20036106.html'
p855
aS'http://www.nasonline.org/member-directory/members/3013815.html'
p856
aS'http://www.nasonline.org/member-directory/members/2517360.html'
p857
aS'http://www.nasonline.org/member-directory/members/20027259.html'
p858
aS'http://www.nasonline.org/member-directory/members/20024793.html'
p859
aS'http://www.nasonline.org/member-directory/members/3002045.html'
p860
aS'http://www.nasonline.org/member-directory/members/3298.html'
p861
aS'http://www.nasonline.org/member-directory/members/2543860.html'
p862
aS'http://www.nasonline.org/member-directory/members/20029804.html'
p863
aS'http://www.nasonline.org/member-directory/members/3011713.html'
p864
aS'http://www.nasonline.org/member-directory/members/3014617.html'
p865
aS'http://www.nasonline.org/member-directory/members/20033139.html'
p866
aS'http://www.nasonline.org/member-directory/members/3011252.html'
p867
aS'http://www.nasonline.org/member-directory/members/20039000.html'
p868
aS'http://www.nasonline.org/member-directory/members/20036001.html'
p869
aS'http://www.nasonline.org/member-directory/members/3015465.html'
p870
aS'http://www.nasonline.org/member-directory/members/3398.html'
p871
aS'http://www.nasonline.org/member-directory/members/20022350.html'
p872
aS'http://www.nasonline.org/member-directory/members/20022334.html'
p873
aS'http://www.nasonline.org/member-directory/members/20017271.html'
p874
aS'http://www.nasonline.org/member-directory/members/2540246.html'
p875
aS'http://www.nasonline.org/member-directory/members/20033131.html'
p876
aS'http://www.nasonline.org/member-directory/members/20035967.html'
p877
aS'http://www.nasonline.org/member-directory/members/3008743.html'
p878
aS'http://www.nasonline.org/member-directory/members/20024834.html'
p879
aS'http://www.nasonline.org/member-directory/members/20034943.html'
p880
aS'http://www.nasonline.org/member-directory/members/67497.html'
p881
aS'http://www.nasonline.org/member-directory/members/3004640.html'
p882
aS'http://www.nasonline.org/member-directory/members/66054.html'
p883
aS'http://www.nasonline.org/member-directory/members/20027273.html'
p884
aS'http://www.nasonline.org/member-directory/members/20035960.html'
p885
aS'http://www.nasonline.org/member-directory/members/20041900.html'
p886
aS'http://www.nasonline.org/member-directory/members/20020433.html'
p887
aS'http://www.nasonline.org/member-directory/members/20041901.html'
p888
aS'http://www.nasonline.org/member-directory/members/20024906.html'
p889
aS'http://www.nasonline.org/member-directory/members/20024871.html'
p890
aS'http://www.nasonline.org/member-directory/members/38339.html'
p891
aS'http://www.nasonline.org/member-directory/members/3004362.html'
p892
aS'http://www.nasonline.org/member-directory/members/2543696.html'
p893
aS'http://www.nasonline.org/member-directory/members/20027343.html'
p894
aS'http://www.nasonline.org/member-directory/members/20041751.html'
p895
aS'http://www.nasonline.org/member-directory/members/3001457.html'
p896
aS'http://www.nasonline.org/member-directory/members/20020129.html'
p897
aS'http://www.nasonline.org/member-directory/members/20022339.html'
p898
aS'http://www.nasonline.org/member-directory/members/3399.html'
p899
aS'http://www.nasonline.org/member-directory/members/20029960.html'
p900
aS'http://www.nasonline.org/member-directory/members/3015724.html'
p901
aS'http://www.nasonline.org/member-directory/members/20014455.html'
p902
aS'http://www.nasonline.org/member-directory/members/3000755.html'
p903
aS'http://www.nasonline.org/member-directory/members/20033181.html'
p904
aS'http://www.nasonline.org/member-directory/members/20041902.html'
p905
aS'http://www.nasonline.org/member-directory/members/20038975.html'
p906
aS'http://www.nasonline.org/member-directory/members/2518429.html'
p907
aS'http://www.nasonline.org/member-directory/members/20038987.html'
p908
aS'http://www.nasonline.org/member-directory/members/20035990.html'
p909
aS'http://www.nasonline.org/member-directory/members/20029953.html'
p910
aS'http://www.nasonline.org/member-directory/members/2541543.html'
p911
aS'http://www.nasonline.org/member-directory/members/20035969.html'
p912
aS'http://www.nasonline.org/member-directory/members/2541554.html'
p913
aS'http://www.nasonline.org/member-directory/members/20020190.html'
p914
aS'http://www.nasonline.org/member-directory/members/3007167.html'
p915
aS'http://www.nasonline.org/member-directory/members/20000076.html'
p916
aS'http://www.nasonline.org/member-directory/members/3012604.html'
p917
aS'http://www.nasonline.org/member-directory/members/20017174.html'
p918
aS'http://www.nasonline.org/member-directory/members/20022356.html'
p919
aS'http://www.nasonline.org/member-directory/members/20030495.html'
p920
aS'http://www.nasonline.org/member-directory/members/20020157.html'
p921
aS'http://www.nasonline.org/member-directory/members/20012053.html'
p922
aS'http://www.nasonline.org/member-directory/members/20041905.html'
p923
aS'http://www.nasonline.org/member-directory/members/20004080.html'
p924
aS'http://www.nasonline.org/member-directory/members/20038992.html'
p925
aS'http://www.nasonline.org/member-directory/members/20014311.html'
p926
aS'http://www.nasonline.org/member-directory/members/20030252.html'
p927
aS'http://www.nasonline.org/member-directory/members/20029965.html'
p928
aS'http://www.nasonline.org/member-directory/members/3009696.html'
p929
aS'http://www.nasonline.org/member-directory/members/20033198.html'
p930
aS'http://www.nasonline.org/member-directory/members/20022606.html'
p931
aS'http://www.nasonline.org/member-directory/members/3002998.html'
p932
aS'http://www.nasonline.org/member-directory/members/20038995.html'
p933
aS'http://www.nasonline.org/member-directory/members/20041906.html'
p934
aS'http://www.nasonline.org/member-directory/members/20011327.html'
p935
aS'http://www.nasonline.org/member-directory/members/20029912.html'
p936
aS'http://www.nasonline.org/member-directory/members/20017139.html'
p937
aS'http://www.nasonline.org/member-directory/members/48990.html'
p938
aS'http://www.nasonline.org/member-directory/members/20007296.html'
p939
aS'http://www.nasonline.org/member-directory/members/2518576.html'
p940
aS'http://www.nasonline.org/member-directory/members/20029897.html'
p941
aS'http://www.nasonline.org/member-directory/members/20017165.html'
p942
aS'http://www.nasonline.org/member-directory/members/20036026.html'
p943
aS'http://www.nasonline.org/member-directory/members/20024802.html'
p944
aS'http://www.nasonline.org/member-directory/members/20006780.html'
p945
aS'http://www.nasonline.org/member-directory/members/20027347.html'
p946
aS'http://www.nasonline.org/member-directory/members/20024919.html'
p947
aS'http://www.nasonline.org/member-directory/members/20027344.html'
p948
aS'http://www.nasonline.org/member-directory/members/20033216.html'
p949
aS'http://www.nasonline.org/member-directory/members/20035987.html'
p950
aS'http://www.nasonline.org/member-directory/members/20029914.html'
p951
aS'http://www.nasonline.org/member-directory/members/3002050.html'
p952
aS'http://www.nasonline.org/member-directory/members/2540380.html'
p953
aS'http://www.nasonline.org/member-directory/members/2529149.html'
p954
aS'http://www.nasonline.org/member-directory/members/20024794.html'
p955
aS'http://www.nasonline.org/member-directory/members/3014472.html'
p956
aS'http://www.nasonline.org/member-directory/members/20036046.html'
p957
aS'http://www.nasonline.org/member-directory/members/20027241.html'
p958
aS'http://www.nasonline.org/member-directory/members/20022958.html'
p959
aS'http://www.nasonline.org/member-directory/members/20041909.html'
p960
aS'http://www.nasonline.org/member-directory/members/20041910.html'
p961
aS'http://www.nasonline.org/member-directory/members/20041911.html'
p962
aS'http://www.nasonline.org/member-directory/members/20038935.html'
p963
aS'http://www.nasonline.org/member-directory/members/3011269.html'
p964
aS'http://www.nasonline.org/member-directory/members/20005701.html'
p965
aS'http://www.nasonline.org/member-directory/members/20030493.html'
p966
aS'http://www.nasonline.org/member-directory/members/20027345.html'
p967
aS'http://www.nasonline.org/member-directory/members/20035978.html'
p968
aS'http://www.nasonline.org/member-directory/members/20022379.html'
p969
aS'http://www.nasonline.org/member-directory/members/20022358.html'
p970
aS'http://www.nasonline.org/member-directory/members/20027262.html'
p971
aS'http://www.nasonline.org/member-directory/members/20020170.html'
p972
aS'http://www.nasonline.org/member-directory/members/20017272.html'
p973
aS'http://www.nasonline.org/member-directory/members/20004084.html'
p974
a.