(lp0
S'http://www.nasonline.org/member-directory/members/20012510.html'
p1
aS'http://www.nasonline.org/member-directory/members/3000975.html'
p2
aS'http://www.nasonline.org/member-directory/members/20015000.html'
p3
aS'http://www.nasonline.org/member-directory/members/3008782.html'
p4
aS'http://www.nasonline.org/member-directory/members/20004863.html'
p5
aS'http://www.nasonline.org/member-directory/members/3007955.html'
p6
aS'http://www.nasonline.org/member-directory/members/2537022.html'
p7
aS'http://www.nasonline.org/member-directory/members/1759.html'
p8
aS'http://www.nasonline.org/member-directory/members/20007397.html'
p9
aS'http://www.nasonline.org/member-directory/members/20012412.html'
p10
aS'http://www.nasonline.org/member-directory/members/20002179.html'
p11
aS'http://www.nasonline.org/member-directory/members/20004864.html'
p12
aS'http://www.nasonline.org/member-directory/members/20002165.html'
p13
aS'http://www.nasonline.org/member-directory/members/8755.html'
p14
aS'http://www.nasonline.org/member-directory/members/20012519.html'
p15
aS'http://www.nasonline.org/member-directory/members/20014998.html'
p16
aS'http://www.nasonline.org/member-directory/members/3004825.html'
p17
aS'http://www.nasonline.org/member-directory/members/20014922.html'
p18
aS'http://www.nasonline.org/member-directory/members/20000060.html'
p19
aS'http://www.nasonline.org/member-directory/members/3001986.html'
p20
aS'http://www.nasonline.org/member-directory/members/2510541.html'
p21
aS'http://www.nasonline.org/member-directory/members/48321.html'
p22
aS'http://www.nasonline.org/member-directory/members/20012697.html'
p23
aS'http://www.nasonline.org/member-directory/members/3006570.html'
p24
aS'http://www.nasonline.org/member-directory/members/3008937.html'
p25
aS'http://www.nasonline.org/member-directory/members/20002212.html'
p26
aS'http://www.nasonline.org/member-directory/members/2531077.html'
p27
aS'http://www.nasonline.org/member-directory/members/3005894.html'
p28
aS'http://www.nasonline.org/member-directory/members/20014909.html'
p29
aS'http://www.nasonline.org/member-directory/members/3003918.html'
p30
aS'http://www.nasonline.org/member-directory/members/3391.html'
p31
aS'http://www.nasonline.org/member-directory/members/3005822.html'
p32
aS'http://www.nasonline.org/member-directory/members/20012424.html'
p33
aS'http://www.nasonline.org/member-directory/members/20014916.html'
p34
aS'http://www.nasonline.org/member-directory/members/3015470.html'
p35
aS'http://www.nasonline.org/member-directory/members/3012739.html'
p36
aS'http://www.nasonline.org/member-directory/members/2531114.html'
p37
aS'http://www.nasonline.org/member-directory/members/3000180.html'
p38
aS'http://www.nasonline.org/member-directory/members/46074.html'
p39
aS'http://www.nasonline.org/member-directory/members/14076.html'
p40
aS'http://www.nasonline.org/member-directory/members/57955.html'
p41
aS'http://www.nasonline.org/member-directory/members/20006085.html'
p42
aS'http://www.nasonline.org/member-directory/members/20010085.html'
p43
aS'http://www.nasonline.org/member-directory/members/2539086.html'
p44
aS'http://www.nasonline.org/member-directory/members/20002142.html'
p45
aS'http://www.nasonline.org/member-directory/members/3000982.html'
p46
aS'http://www.nasonline.org/member-directory/members/20002141.html'
p47
aS'http://www.nasonline.org/member-directory/members/62818.html'
p48
aS'http://www.nasonline.org/member-directory/members/3009549.html'
p49
aS'http://www.nasonline.org/member-directory/members/3008574.html'
p50
aS'http://www.nasonline.org/member-directory/members/57848.html'
p51
aS'http://www.nasonline.org/member-directory/members/20010086.html'
p52
aS'http://www.nasonline.org/member-directory/members/20015060.html'
p53
aS'http://www.nasonline.org/member-directory/members/3012496.html'
p54
aS'http://www.nasonline.org/member-directory/members/20009960.html'
p55
aS'http://www.nasonline.org/member-directory/members/2531150.html'
p56
aS'http://www.nasonline.org/member-directory/members/2527071.html'
p57
aS'http://www.nasonline.org/member-directory/members/20005661.html'
p58
aS'http://www.nasonline.org/member-directory/members/29852.html'
p59
aS'http://www.nasonline.org/member-directory/members/2540545.html'
p60
aS'http://www.nasonline.org/member-directory/members/57763.html'
p61
aS'http://www.nasonline.org/member-directory/members/2510966.html'
p62
aS'http://www.nasonline.org/member-directory/members/20004789.html'
p63
aS'http://www.nasonline.org/member-directory/members/3008938.html'
p64
aS'http://www.nasonline.org/member-directory/members/3005299.html'
p65
aS'http://www.nasonline.org/member-directory/members/60662.html'
p66
aS'http://www.nasonline.org/member-directory/members/57684.html'
p67
aS'http://www.nasonline.org/member-directory/members/403.html'
p68
aS'http://www.nasonline.org/member-directory/members/57649.html'
p69
aS'http://www.nasonline.org/member-directory/members/3002199.html'
p70
aS'http://www.nasonline.org/member-directory/members/20002164.html'
p71
aS'http://www.nasonline.org/member-directory/members/31555.html'
p72
aS'http://www.nasonline.org/member-directory/members/57550.html'
p73
aS'http://www.nasonline.org/member-directory/members/20012717.html'
p74
aS'http://www.nasonline.org/member-directory/members/20015059.html'
p75
aS'http://www.nasonline.org/member-directory/members/20004882.html'
p76
aS'http://www.nasonline.org/member-directory/members/20004883.html'
p77
aS'http://www.nasonline.org/member-directory/members/3008599.html'
p78
aS'http://www.nasonline.org/member-directory/members/15982.html'
p79
aS'http://www.nasonline.org/member-directory/members/2512664.html'
p80
aS'http://www.nasonline.org/member-directory/members/57353.html'
p81
aS'http://www.nasonline.org/member-directory/members/20010076.html'
p82
aS'http://www.nasonline.org/member-directory/members/3006491.html'
p83
aS'http://www.nasonline.org/member-directory/members/18518.html'
p84
aS'http://www.nasonline.org/member-directory/members/3001988.html'
p85
aS'http://www.nasonline.org/member-directory/members/2529078.html'
p86
aS'http://www.nasonline.org/member-directory/members/57289.html'
p87
aS'http://www.nasonline.org/member-directory/members/61518.html'
p88
aS'http://www.nasonline.org/member-directory/members/20004803.html'
p89
aS'http://www.nasonline.org/member-directory/members/63893.html'
p90
aS'http://www.nasonline.org/member-directory/members/64140.html'
p91
aS'http://www.nasonline.org/member-directory/members/20010115.html'
p92
aS'http://www.nasonline.org/member-directory/members/3015867.html'
p93
aS'http://www.nasonline.org/member-directory/members/44354.html'
p94
aS'http://www.nasonline.org/member-directory/members/3010004.html'
p95
aS'http://www.nasonline.org/member-directory/members/3012626.html'
p96
aS'http://www.nasonline.org/member-directory/members/20014905.html'
p97
aS'http://www.nasonline.org/member-directory/members/2517581.html'
p98
aS'http://www.nasonline.org/member-directory/members/20002178.html'
p99
aS'http://www.nasonline.org/member-directory/members/3010972.html'
p100
aS'http://www.nasonline.org/member-directory/members/20012765.html'
p101
aS'http://www.nasonline.org/member-directory/members/3001382.html'
p102
aS'http://www.nasonline.org/member-directory/members/3005862.html'
p103
aS'http://www.nasonline.org/member-directory/members/27991.html'
p104
aS'http://www.nasonline.org/member-directory/members/3001989.html'
p105
aS'http://www.nasonline.org/member-directory/members/20004855.html'
p106
aS'http://www.nasonline.org/member-directory/members/20002156.html'
p107
aS'http://www.nasonline.org/member-directory/members/20004911.html'
p108
aS'http://www.nasonline.org/member-directory/members/14980.html'
p109
aS'http://www.nasonline.org/member-directory/members/20011156.html'
p110
aS'http://www.nasonline.org/member-directory/members/20002148.html'
p111
aS'http://www.nasonline.org/member-directory/members/6302.html'
p112
aS'http://www.nasonline.org/member-directory/members/20004459.html'
p113
aS'http://www.nasonline.org/member-directory/members/20005929.html'
p114
aS'http://www.nasonline.org/member-directory/members/20007403.html'
p115
aS'http://www.nasonline.org/member-directory/members/57021.html'
p116
aS'http://www.nasonline.org/member-directory/members/2527188.html'
p117
aS'http://www.nasonline.org/member-directory/members/3005912.html'
p118
aS'http://www.nasonline.org/member-directory/members/3437.html'
p119
aS'http://www.nasonline.org/member-directory/members/20010087.html'
p120
aS'http://www.nasonline.org/member-directory/members/3009777.html'
p121
aS'http://www.nasonline.org/member-directory/members/5190.html'
p122
aS'http://www.nasonline.org/member-directory/members/20002181.html'
p123
aS'http://www.nasonline.org/member-directory/members/60944.html'
p124
aS'http://www.nasonline.org/member-directory/members/3003207.html'
p125
aS'http://www.nasonline.org/member-directory/members/20015154.html'
p126
aS'http://www.nasonline.org/member-directory/members/66459.html'
p127
aS'http://www.nasonline.org/member-directory/members/56912.html'
p128
aS'http://www.nasonline.org/member-directory/members/20010083.html'
p129
aS'http://www.nasonline.org/member-directory/members/56909.html'
p130
aS'http://www.nasonline.org/member-directory/members/3004002.html'
p131
aS'http://www.nasonline.org/member-directory/members/3001990.html'
p132
aS'http://www.nasonline.org/member-directory/members/20012447.html'
p133
aS'http://www.nasonline.org/member-directory/members/3012725.html'
p134
aS'http://www.nasonline.org/member-directory/members/20010089.html'
p135
aS'http://www.nasonline.org/member-directory/members/3172.html'
p136
aS'http://www.nasonline.org/member-directory/members/9160.html'
p137
aS'http://www.nasonline.org/member-directory/members/3004357.html'
p138
aS'http://www.nasonline.org/member-directory/members/3015500.html'
p139
aS'http://www.nasonline.org/member-directory/members/3010006.html'
p140
aS'http://www.nasonline.org/member-directory/members/56790.html'
p141
aS'http://www.nasonline.org/member-directory/members/15334.html'
p142
aS'http://www.nasonline.org/member-directory/members/3008451.html'
p143
aS'http://www.nasonline.org/member-directory/members/2517500.html'
p144
aS'http://www.nasonline.org/member-directory/members/20004852.html'
p145
aS'http://www.nasonline.org/member-directory/members/60342.html'
p146
aS'http://www.nasonline.org/member-directory/members/20007499.html'
p147
aS'http://www.nasonline.org/member-directory/members/2537337.html'
p148
aS'http://www.nasonline.org/member-directory/members/3001993.html'
p149
aS'http://www.nasonline.org/member-directory/members/3012740.html'
p150
aS'http://www.nasonline.org/member-directory/members/18915.html'
p151
aS'http://www.nasonline.org/member-directory/members/48373.html'
p152
aS'http://www.nasonline.org/member-directory/members/3012628.html'
p153
aS'http://www.nasonline.org/member-directory/members/20004880.html'
p154
aS'http://www.nasonline.org/member-directory/members/20002643.html'
p155
aS'http://www.nasonline.org/member-directory/members/3012727.html'
p156
aS'http://www.nasonline.org/member-directory/members/3002628.html'
p157
aS'http://www.nasonline.org/member-directory/members/20012678.html'
p158
aS'http://www.nasonline.org/member-directory/members/3003376.html'
p159
aS'http://www.nasonline.org/member-directory/members/20010084.html'
p160
aS'http://www.nasonline.org/member-directory/members/56454.html'
p161
aS'http://www.nasonline.org/member-directory/members/3012541.html'
p162
aS'http://www.nasonline.org/member-directory/members/20012718.html'
p163
aS'http://www.nasonline.org/member-directory/members/20007501.html'
p164
aS'http://www.nasonline.org/member-directory/members/20002226.html'
p165
aS'http://www.nasonline.org/member-directory/members/56393.html'
p166
aS'http://www.nasonline.org/member-directory/members/3008580.html'
p167
aS'http://www.nasonline.org/member-directory/members/3012591.html'
p168
aS'http://www.nasonline.org/member-directory/members/20012691.html'
p169
aS'http://www.nasonline.org/member-directory/members/20007496.html'
p170
aS'http://www.nasonline.org/member-directory/members/2517424.html'
p171
aS'http://www.nasonline.org/member-directory/members/20007497.html'
p172
aS'http://www.nasonline.org/member-directory/members/56362.html'
p173
aS'http://www.nasonline.org/member-directory/members/3008593.html'
p174
aS'http://www.nasonline.org/member-directory/members/20009982.html'
p175
aS'http://www.nasonline.org/member-directory/members/3000900.html'
p176
aS'http://www.nasonline.org/member-directory/members/3014932.html'
p177
aS'http://www.nasonline.org/member-directory/members/3005916.html'
p178
aS'http://www.nasonline.org/member-directory/members/20007502.html'
p179
aS'http://www.nasonline.org/member-directory/members/20012680.html'
p180
aS'http://www.nasonline.org/member-directory/members/20002186.html'
p181
aS'http://www.nasonline.org/member-directory/members/63575.html'
p182
aS'http://www.nasonline.org/member-directory/members/20015073.html'
p183
aS'http://www.nasonline.org/member-directory/members/20002146.html'
p184
aS'http://www.nasonline.org/member-directory/members/3006571.html'
p185
aS'http://www.nasonline.org/member-directory/members/59178.html'
p186
aS'http://www.nasonline.org/member-directory/members/3009913.html'
p187
aS'http://www.nasonline.org/member-directory/members/3010543.html'
p188
aS'http://www.nasonline.org/member-directory/members/59495.html'
p189
aS'http://www.nasonline.org/member-directory/members/20002138.html'
p190
aS'http://www.nasonline.org/member-directory/members/20015071.html'
p191
aS'http://www.nasonline.org/member-directory/members/20002149.html'
p192
aS'http://www.nasonline.org/member-directory/members/4935.html'
p193
aS'http://www.nasonline.org/member-directory/members/20010494.html'
p194
aS'http://www.nasonline.org/member-directory/members/2542156.html'
p195
aS'http://www.nasonline.org/member-directory/members/20006354.html'
p196
aS'http://www.nasonline.org/member-directory/members/63240.html'
p197
aS'http://www.nasonline.org/member-directory/members/20004968.html'
p198
aS'http://www.nasonline.org/member-directory/members/2518086.html'
p199
aS'http://www.nasonline.org/member-directory/members/56129.html'
p200
aS'http://www.nasonline.org/member-directory/members/59804.html'
p201
aS'http://www.nasonline.org/member-directory/members/20012415.html'
p202
aS'http://www.nasonline.org/member-directory/members/3012605.html'
p203
aS'http://www.nasonline.org/member-directory/members/3005921.html'
p204
aS'http://www.nasonline.org/member-directory/members/3002920.html'
p205
aS'http://www.nasonline.org/member-directory/members/3008571.html'
p206
aS'http://www.nasonline.org/member-directory/members/3006721.html'
p207
aS'http://www.nasonline.org/member-directory/members/3001995.html'
p208
aS'http://www.nasonline.org/member-directory/members/20012507.html'
p209
aS'http://www.nasonline.org/member-directory/members/48705.html'
p210
aS'http://www.nasonline.org/member-directory/members/20014917.html'
p211
aS'http://www.nasonline.org/member-directory/members/20010055.html'
p212
aS'http://www.nasonline.org/member-directory/members/20002225.html'
p213
aS'http://www.nasonline.org/member-directory/members/2537477.html'
p214
aS'http://www.nasonline.org/member-directory/members/20014997.html'
p215
aS'http://www.nasonline.org/member-directory/members/20011465.html'
p216
aS'http://www.nasonline.org/member-directory/members/3012543.html'
p217
aS'http://www.nasonline.org/member-directory/members/64966.html'
p218
aS'http://www.nasonline.org/member-directory/members/20014904.html'
p219
aS'http://www.nasonline.org/member-directory/members/3008591.html'
p220
aS'http://www.nasonline.org/member-directory/members/3008573.html'
p221
aS'http://www.nasonline.org/member-directory/members/20012448.html'
p222
aS'http://www.nasonline.org/member-directory/members/59075.html'
p223
aS'http://www.nasonline.org/member-directory/members/3008789.html'
p224
aS'http://www.nasonline.org/member-directory/members/4445.html'
p225
aS'http://www.nasonline.org/member-directory/members/3005860.html'
p226
aS'http://www.nasonline.org/member-directory/members/20005455.html'
p227
aS'http://www.nasonline.org/member-directory/members/55730.html'
p228
aS'http://www.nasonline.org/member-directory/members/6441.html'
p229
aS'http://www.nasonline.org/member-directory/members/20014903.html'
p230
aS'http://www.nasonline.org/member-directory/members/55707.html'
p231
aS'http://www.nasonline.org/member-directory/members/14490.html'
p232
aS'http://www.nasonline.org/member-directory/members/55673.html'
p233
aS'http://www.nasonline.org/member-directory/members/14687.html'
p234
aS'http://www.nasonline.org/member-directory/members/3005085.html'
p235
aS'http://www.nasonline.org/member-directory/members/39944.html'
p236
aS'http://www.nasonline.org/member-directory/members/2537543.html'
p237
aS'http://www.nasonline.org/member-directory/members/20012446.html'
p238
aS'http://www.nasonline.org/member-directory/members/20012682.html'
p239
aS'http://www.nasonline.org/member-directory/members/14600.html'
p240
aS'http://www.nasonline.org/member-directory/members/3006584.html'
p241
aS'http://www.nasonline.org/member-directory/members/3000159.html'
p242
aS'http://www.nasonline.org/member-directory/members/1314.html'
p243
aS'http://www.nasonline.org/member-directory/members/3008590.html'
p244
aS'http://www.nasonline.org/member-directory/members/2527386.html'
p245
aS'http://www.nasonline.org/member-directory/members/40023.html'
p246
aS'http://www.nasonline.org/member-directory/members/2510490.html'
p247
aS'http://www.nasonline.org/member-directory/members/3013256.html'
p248
aS'http://www.nasonline.org/member-directory/members/20012687.html'
p249
aS'http://www.nasonline.org/member-directory/members/63804.html'
p250
aS'http://www.nasonline.org/member-directory/members/2516101.html'
p251
aS'http://www.nasonline.org/member-directory/members/20012689.html'
p252
aS'http://www.nasonline.org/member-directory/members/20012416.html'
p253
aS'http://www.nasonline.org/member-directory/members/60904.html'
p254
aS'http://www.nasonline.org/member-directory/members/55405.html'
p255
aS'http://www.nasonline.org/member-directory/members/3009940.html'
p256
aS'http://www.nasonline.org/member-directory/members/3007953.html'
p257
aS'http://www.nasonline.org/member-directory/members/63936.html'
p258
aS'http://www.nasonline.org/member-directory/members/2529010.html'
p259
aS'http://www.nasonline.org/member-directory/members/3001859.html'
p260
aS'http://www.nasonline.org/member-directory/members/3005870.html'
p261
aS'http://www.nasonline.org/member-directory/members/3013758.html'
p262
aS'http://www.nasonline.org/member-directory/members/3009527.html'
p263
aS'http://www.nasonline.org/member-directory/members/3004880.html'
p264
aS'http://www.nasonline.org/member-directory/members/15056.html'
p265
aS'http://www.nasonline.org/member-directory/members/3008598.html'
p266
aS'http://www.nasonline.org/member-directory/members/1094.html'
p267
aS'http://www.nasonline.org/member-directory/members/3006597.html'
p268
aS'http://www.nasonline.org/member-directory/members/20007486.html'
p269
aS'http://www.nasonline.org/member-directory/members/62469.html'
p270
aS'http://www.nasonline.org/member-directory/members/20002145.html'
p271
aS'http://www.nasonline.org/member-directory/members/3009392.html'
p272
aS'http://www.nasonline.org/member-directory/members/48588.html'
p273
aS'http://www.nasonline.org/member-directory/members/3005878.html'
p274
aS'http://www.nasonline.org/member-directory/members/3005859.html'
p275
aS'http://www.nasonline.org/member-directory/members/20015155.html'
p276
aS'http://www.nasonline.org/member-directory/members/3012556.html'
p277
aS'http://www.nasonline.org/member-directory/members/20007489.html'
p278
aS'http://www.nasonline.org/member-directory/members/3004243.html'
p279
aS'http://www.nasonline.org/member-directory/members/2537659.html'
p280
aS'http://www.nasonline.org/member-directory/members/20009998.html'
p281
aS'http://www.nasonline.org/member-directory/members/3001999.html'
p282
aS'http://www.nasonline.org/member-directory/members/3008588.html'
p283
aS'http://www.nasonline.org/member-directory/members/3007695.html'
p284
aS'http://www.nasonline.org/member-directory/members/20015002.html'
p285
aS'http://www.nasonline.org/member-directory/members/20004788.html'
p286
aS'http://www.nasonline.org/member-directory/members/3005861.html'
p287
aS'http://www.nasonline.org/member-directory/members/2537670.html'
p288
aS'http://www.nasonline.org/member-directory/members/3012608.html'
p289
aS'http://www.nasonline.org/member-directory/members/55032.html'
p290
aS'http://www.nasonline.org/member-directory/members/20002215.html'
p291
aS'http://www.nasonline.org/member-directory/members/3012524.html'
p292
aS'http://www.nasonline.org/member-directory/members/54899.html'
p293
aS'http://www.nasonline.org/member-directory/members/3009492.html'
p294
aS'http://www.nasonline.org/member-directory/members/20002152.html'
p295
aS'http://www.nasonline.org/member-directory/members/3000698.html'
p296
aS'http://www.nasonline.org/member-directory/members/3008620.html'
p297
aS'http://www.nasonline.org/member-directory/members/3005183.html'
p298
aS'http://www.nasonline.org/member-directory/members/3006333.html'
p299
aS'http://www.nasonline.org/member-directory/members/59552.html'
p300
aS'http://www.nasonline.org/member-directory/members/20007504.html'
p301
aS'http://www.nasonline.org/member-directory/members/3008572.html'
p302
aS'http://www.nasonline.org/member-directory/members/3006572.html'
p303
aS'http://www.nasonline.org/member-directory/members/44767.html'
p304
aS'http://www.nasonline.org/member-directory/members/20004806.html'
p305
aS'http://www.nasonline.org/member-directory/members/20002184.html'
p306
aS'http://www.nasonline.org/member-directory/members/3001287.html'
p307
aS'http://www.nasonline.org/member-directory/members/48357.html'
p308
aS'http://www.nasonline.org/member-directory/members/29428.html'
p309
aS'http://www.nasonline.org/member-directory/members/54697.html'
p310
aS'http://www.nasonline.org/member-directory/members/47363.html'
p311
aS'http://www.nasonline.org/member-directory/members/3000347.html'
p312
aS'http://www.nasonline.org/member-directory/members/3012525.html'
p313
aS'http://www.nasonline.org/member-directory/members/3006602.html'
p314
aS'http://www.nasonline.org/member-directory/members/20010000.html'
p315
aS'http://www.nasonline.org/member-directory/members/12754.html'
p316
aS'http://www.nasonline.org/member-directory/members/3006603.html'
p317
aS'http://www.nasonline.org/member-directory/members/20004887.html'
p318
aS'http://www.nasonline.org/member-directory/members/20004889.html'
p319
aS'http://www.nasonline.org/member-directory/members/54620.html'
p320
aS'http://www.nasonline.org/member-directory/members/31102.html'
p321
aS'http://www.nasonline.org/member-directory/members/20008953.html'
p322
aS'http://www.nasonline.org/member-directory/members/3006604.html'
p323
aS'http://www.nasonline.org/member-directory/members/20012387.html'
p324
aS'http://www.nasonline.org/member-directory/members/3008940.html'
p325
aS'http://www.nasonline.org/member-directory/members/3001998.html'
p326
aS'http://www.nasonline.org/member-directory/members/46073.html'
p327
aS'http://www.nasonline.org/member-directory/members/3012728.html'
p328
aS'http://www.nasonline.org/member-directory/members/2516154.html'
p329
aS'http://www.nasonline.org/member-directory/members/2540934.html'
p330
aS'http://www.nasonline.org/member-directory/members/20010027.html'
p331
aS'http://www.nasonline.org/member-directory/members/20002216.html'
p332
aS'http://www.nasonline.org/member-directory/members/2516157.html'
p333
aS'http://www.nasonline.org/member-directory/members/20004866.html'
p334
aS'http://www.nasonline.org/member-directory/members/3009052.html'
p335
aS'http://www.nasonline.org/member-directory/members/2529126.html'
p336
aS'http://www.nasonline.org/member-directory/members/3008941.html'
p337
aS'http://www.nasonline.org/member-directory/members/3006605.html'
p338
aS'http://www.nasonline.org/member-directory/members/3008579.html'
p339
aS'http://www.nasonline.org/member-directory/members/20015157.html'
p340
aS'http://www.nasonline.org/member-directory/members/3012630.html'
p341
aS'http://www.nasonline.org/member-directory/members/3001123.html'
p342
aS'http://www.nasonline.org/member-directory/members/20015159.html'
p343
aS'http://www.nasonline.org/member-directory/members/20012369.html'
p344
aS'http://www.nasonline.org/member-directory/members/20015160.html'
p345
aS'http://www.nasonline.org/member-directory/members/3005590.html'
p346
aS'http://www.nasonline.org/member-directory/members/20004846.html'
p347
aS'http://www.nasonline.org/member-directory/members/54207.html'
p348
aS'http://www.nasonline.org/member-directory/members/2537840.html'
p349
aS'http://www.nasonline.org/member-directory/members/44753.html'
p350
aS'http://www.nasonline.org/member-directory/members/20010090.html'
p351
aS'http://www.nasonline.org/member-directory/members/46092.html'
p352
aS'http://www.nasonline.org/member-directory/members/3007112.html'
p353
aS'http://www.nasonline.org/member-directory/members/3008283.html'
p354
aS'http://www.nasonline.org/member-directory/members/20015061.html'
p355
aS'http://www.nasonline.org/member-directory/members/2535172.html'
p356
aS'http://www.nasonline.org/member-directory/members/54081.html'
p357
aS'http://www.nasonline.org/member-directory/members/20012685.html'
p358
aS'http://www.nasonline.org/member-directory/members/3012619.html'
p359
aS'http://www.nasonline.org/member-directory/members/3005749.html'
p360
aS'http://www.nasonline.org/member-directory/members/54042.html'
p361
aS'http://www.nasonline.org/member-directory/members/3009061.html'
p362
aS'http://www.nasonline.org/member-directory/members/20007410.html'
p363
aS'http://www.nasonline.org/member-directory/members/60697.html'
p364
aS'http://www.nasonline.org/member-directory/members/3404.html'
p365
aS'http://www.nasonline.org/member-directory/members/3005923.html'
p366
aS'http://www.nasonline.org/member-directory/members/892035.html'
p367
aS'http://www.nasonline.org/member-directory/members/54004.html'
p368
aS'http://www.nasonline.org/member-directory/members/2540984.html'
p369
aS'http://www.nasonline.org/member-directory/members/20010029.html'
p370
aS'http://www.nasonline.org/member-directory/members/20003853.html'
p371
aS'http://www.nasonline.org/member-directory/members/3008575.html'
p372
aS'http://www.nasonline.org/member-directory/members/53955.html'
p373
aS'http://www.nasonline.org/member-directory/members/20007321.html'
p374
aS'http://www.nasonline.org/member-directory/members/20007490.html'
p375
aS'http://www.nasonline.org/member-directory/members/20007494.html'
p376
aS'http://www.nasonline.org/member-directory/members/7012.html'
p377
aS'http://www.nasonline.org/member-directory/members/3001455.html'
p378
aS'http://www.nasonline.org/member-directory/members/20007322.html'
p379
aS'http://www.nasonline.org/member-directory/members/3002004.html'
p380
aS'http://www.nasonline.org/member-directory/members/1098.html'
p381
aS'http://www.nasonline.org/member-directory/members/3009542.html'
p382
aS'http://www.nasonline.org/member-directory/members/3010865.html'
p383
aS'http://www.nasonline.org/member-directory/members/60474.html'
p384
aS'http://www.nasonline.org/member-directory/members/2618.html'
p385
aS'http://www.nasonline.org/member-directory/members/20015162.html'
p386
aS'http://www.nasonline.org/member-directory/members/2530266.html'
p387
aS'http://www.nasonline.org/member-directory/members/53776.html'
p388
aS'http://www.nasonline.org/member-directory/members/53763.html'
p389
aS'http://www.nasonline.org/member-directory/members/3012631.html'
p390
aS'http://www.nasonline.org/member-directory/members/2539720.html'
p391
aS'http://www.nasonline.org/member-directory/members/3005896.html'
p392
aS'http://www.nasonline.org/member-directory/members/53749.html'
p393
aS'http://www.nasonline.org/member-directory/members/20002143.html'
p394
aS'http://www.nasonline.org/member-directory/members/3012186.html'
p395
aS'http://www.nasonline.org/member-directory/members/20009976.html'
p396
aS'http://www.nasonline.org/member-directory/members/3008589.html'
p397
aS'http://www.nasonline.org/member-directory/members/3006608.html'
p398
aS'http://www.nasonline.org/member-directory/members/20010091.html'
p399
aS'http://www.nasonline.org/member-directory/members/2542948.html'
p400
aS'http://www.nasonline.org/member-directory/members/20007505.html'
p401
aS'http://www.nasonline.org/member-directory/members/53605.html'
p402
aS'http://www.nasonline.org/member-directory/members/20012696.html'
p403
aS'http://www.nasonline.org/member-directory/members/3004716.html'
p404
aS'http://www.nasonline.org/member-directory/members/3008615.html'
p405
aS'http://www.nasonline.org/member-directory/members/53555.html'
p406
aS'http://www.nasonline.org/member-directory/members/3009114.html'
p407
aS'http://www.nasonline.org/member-directory/members/20015062.html'
p408
aS'http://www.nasonline.org/member-directory/members/20004890.html'
p409
aS'http://www.nasonline.org/member-directory/members/3012612.html'
p410
aS'http://www.nasonline.org/member-directory/members/20004809.html'
p411
aS'http://www.nasonline.org/member-directory/members/53513.html'
p412
aS'http://www.nasonline.org/member-directory/members/3012569.html'
p413
aS'http://www.nasonline.org/member-directory/members/3005892.html'
p414
aS'http://www.nasonline.org/member-directory/members/2532333.html'
p415
aS'http://www.nasonline.org/member-directory/members/3008942.html'
p416
aS'http://www.nasonline.org/member-directory/members/3004009.html'
p417
aS'http://www.nasonline.org/member-directory/members/20002217.html'
p418
aS'http://www.nasonline.org/member-directory/members/3002009.html'
p419
aS'http://www.nasonline.org/member-directory/members/7066.html'
p420
aS'http://www.nasonline.org/member-directory/members/20010098.html'
p421
aS'http://www.nasonline.org/member-directory/members/3009974.html'
p422
aS'http://www.nasonline.org/member-directory/members/53311.html'
p423
aS'http://www.nasonline.org/member-directory/members/3002010.html'
p424
aS'http://www.nasonline.org/member-directory/members/3008944.html'
p425
aS'http://www.nasonline.org/member-directory/members/3012570.html'
p426
aS'http://www.nasonline.org/member-directory/members/20015163.html'
p427
aS'http://www.nasonline.org/member-directory/members/20002158.html'
p428
aS'http://www.nasonline.org/member-directory/members/15975.html'
p429
aS'http://www.nasonline.org/member-directory/members/2538007.html'
p430
aS'http://www.nasonline.org/member-directory/members/3012616.html'
p431
aS'http://www.nasonline.org/member-directory/members/48706.html'
p432
aS'http://www.nasonline.org/member-directory/members/3008597.html'
p433
aS'http://www.nasonline.org/member-directory/members/3011436.html'
p434
aS'http://www.nasonline.org/member-directory/members/20007491.html'
p435
aS'http://www.nasonline.org/member-directory/members/53170.html'
p436
aS'http://www.nasonline.org/member-directory/members/20015164.html'
p437
aS'http://www.nasonline.org/member-directory/members/65500.html'
p438
aS'http://www.nasonline.org/member-directory/members/20015221.html'
p439
aS'http://www.nasonline.org/member-directory/members/3011684.html'
p440
aS'http://www.nasonline.org/member-directory/members/3008945.html'
p441
aS'http://www.nasonline.org/member-directory/members/3009152.html'
p442
aS'http://www.nasonline.org/member-directory/members/3012729.html'
p443
aS'http://www.nasonline.org/member-directory/members/3008947.html'
p444
aS'http://www.nasonline.org/member-directory/members/3005926.html'
p445
aS'http://www.nasonline.org/member-directory/members/20002223.html'
p446
aS'http://www.nasonline.org/member-directory/members/20004909.html'
p447
aS'http://www.nasonline.org/member-directory/members/67008.html'
p448
aS'http://www.nasonline.org/member-directory/members/3012587.html'
p449
aS'http://www.nasonline.org/member-directory/members/66031.html'
p450
aS'http://www.nasonline.org/member-directory/members/3012527.html'
p451
aS'http://www.nasonline.org/member-directory/members/20008956.html'
p452
aS'http://www.nasonline.org/member-directory/members/3000510.html'
p453
aS'http://www.nasonline.org/member-directory/members/3000026.html'
p454
aS'http://www.nasonline.org/member-directory/members/3005914.html'
p455
aS'http://www.nasonline.org/member-directory/members/20004642.html'
p456
aS'http://www.nasonline.org/member-directory/members/2541117.html'
p457
aS'http://www.nasonline.org/member-directory/members/2519299.html'
p458
aS'http://www.nasonline.org/member-directory/members/3004881.html'
p459
aS'http://www.nasonline.org/member-directory/members/60661.html'
p460
aS'http://www.nasonline.org/member-directory/members/2542403.html'
p461
aS'http://www.nasonline.org/member-directory/members/3009531.html'
p462
aS'http://www.nasonline.org/member-directory/members/3011510.html'
p463
aS'http://www.nasonline.org/member-directory/members/59760.html'
p464
aS'http://www.nasonline.org/member-directory/members/3000441.html'
p465
aS'http://www.nasonline.org/member-directory/members/20002168.html'
p466
aS'http://www.nasonline.org/member-directory/members/20012385.html'
p467
aS'http://www.nasonline.org/member-directory/members/52683.html'
p468
aS'http://www.nasonline.org/member-directory/members/52674.html'
p469
aS'http://www.nasonline.org/member-directory/members/64006.html'
p470
aS'http://www.nasonline.org/member-directory/members/3005918.html'
p471
aS'http://www.nasonline.org/member-directory/members/20005471.html'
p472
aS'http://www.nasonline.org/member-directory/members/52639.html'
p473
aS'http://www.nasonline.org/member-directory/members/3004627.html'
p474
aS'http://www.nasonline.org/member-directory/members/3002040.html'
p475
aS'http://www.nasonline.org/member-directory/members/20014430.html'
p476
aS'http://www.nasonline.org/member-directory/members/20012513.html'
p477
aS'http://www.nasonline.org/member-directory/members/20012790.html'
p478
aS'http://www.nasonline.org/member-directory/members/3008600.html'
p479
aS'http://www.nasonline.org/member-directory/members/3008948.html'
p480
aS'http://www.nasonline.org/member-directory/members/20007495.html'
p481
aS'http://www.nasonline.org/member-directory/members/52472.html'
p482
aS'http://www.nasonline.org/member-directory/members/3009545.html'
p483
aS'http://www.nasonline.org/member-directory/members/48356.html'
p484
aS'http://www.nasonline.org/member-directory/members/2538196.html'
p485
aS'http://www.nasonline.org/member-directory/members/52381.html'
p486
aS'http://www.nasonline.org/member-directory/members/3008596.html'
p487
aS'http://www.nasonline.org/member-directory/members/20007506.html'
p488
aS'http://www.nasonline.org/member-directory/members/3000242.html'
p489
aS'http://www.nasonline.org/member-directory/members/3001860.html'
p490
aS'http://www.nasonline.org/member-directory/members/59806.html'
p491
aS'http://www.nasonline.org/member-directory/members/20002219.html'
p492
aS'http://www.nasonline.org/member-directory/members/3010000.html'
p493
aS'http://www.nasonline.org/member-directory/members/6012.html'
p494
aS'http://www.nasonline.org/member-directory/members/20004799.html'
p495
aS'http://www.nasonline.org/member-directory/members/3010012.html'
p496
aS'http://www.nasonline.org/member-directory/members/2532660.html'
p497
aS'http://www.nasonline.org/member-directory/members/3003820.html'
p498
aS'http://www.nasonline.org/member-directory/members/65216.html'
p499
aS'http://www.nasonline.org/member-directory/members/47962.html'
p500
aS'http://www.nasonline.org/member-directory/members/52098.html'
p501
aS'http://www.nasonline.org/member-directory/members/52085.html'
p502
aS'http://www.nasonline.org/member-directory/members/20012496.html'
p503
aS'http://www.nasonline.org/member-directory/members/20004891.html'
p504
aS'http://www.nasonline.org/member-directory/members/3008509.html'
p505
aS'http://www.nasonline.org/member-directory/members/20012508.html'
p506
aS'http://www.nasonline.org/member-directory/members/20006082.html'
p507
aS'http://www.nasonline.org/member-directory/members/3010658.html'
p508
aS'http://www.nasonline.org/member-directory/members/20002224.html'
p509
aS'http://www.nasonline.org/member-directory/members/3002036.html'
p510
aS'http://www.nasonline.org/member-directory/members/5803.html'
p511
aS'http://www.nasonline.org/member-directory/members/3008949.html'
p512
aS'http://www.nasonline.org/member-directory/members/3012188.html'
p513
aS'http://www.nasonline.org/member-directory/members/3006611.html'
p514
aS'http://www.nasonline.org/member-directory/members/20006312.html'
p515
aS'http://www.nasonline.org/member-directory/members/44801.html'
p516
aS'http://www.nasonline.org/member-directory/members/20007411.html'
p517
aS'http://www.nasonline.org/member-directory/members/3012730.html'
p518
aS'http://www.nasonline.org/member-directory/members/20010103.html'
p519
aS'http://www.nasonline.org/member-directory/members/20007508.html'
p520
aS'http://www.nasonline.org/member-directory/members/59647.html'
p521
aS'http://www.nasonline.org/member-directory/members/3003324.html'
p522
aS'http://www.nasonline.org/member-directory/members/3002574.html'
p523
aS'http://www.nasonline.org/member-directory/members/20005305.html'
p524
aS'http://www.nasonline.org/member-directory/members/20012684.html'
p525
aS'http://www.nasonline.org/member-directory/members/3009517.html'
p526
aS'http://www.nasonline.org/member-directory/members/3012731.html'
p527
aS'http://www.nasonline.org/member-directory/members/2538303.html'
p528
aS'http://www.nasonline.org/member-directory/members/60239.html'
p529
aS'http://www.nasonline.org/member-directory/members/20004881.html'
p530
aS'http://www.nasonline.org/member-directory/members/3010022.html'
p531
aS'http://www.nasonline.org/member-directory/members/1848.html'
p532
aS'http://www.nasonline.org/member-directory/members/3006612.html'
p533
aS'http://www.nasonline.org/member-directory/members/3007673.html'
p534
aS'http://www.nasonline.org/member-directory/members/3008576.html'
p535
aS'http://www.nasonline.org/member-directory/members/40267.html'
p536
aS'http://www.nasonline.org/member-directory/members/47433.html'
p537
aS'http://www.nasonline.org/member-directory/members/2532782.html'
p538
aS'http://www.nasonline.org/member-directory/members/20012081.html'
p539
aS'http://www.nasonline.org/member-directory/members/20010056.html'
p540
aS'http://www.nasonline.org/member-directory/members/12694.html'
p541
aS'http://www.nasonline.org/member-directory/members/59660.html'
p542
aS'http://www.nasonline.org/member-directory/members/41498.html'
p543
aS'http://www.nasonline.org/member-directory/members/39985.html'
p544
aS'http://www.nasonline.org/member-directory/members/59807.html'
p545
aS'http://www.nasonline.org/member-directory/members/3015865.html'
p546
aS'http://www.nasonline.org/member-directory/members/20009979.html'
p547
aS'http://www.nasonline.org/member-directory/members/51550.html'
p548
aS'http://www.nasonline.org/member-directory/members/40270.html'
p549
aS'http://www.nasonline.org/member-directory/members/20012690.html'
p550
aS'http://www.nasonline.org/member-directory/members/3012529.html'
p551
aS'http://www.nasonline.org/member-directory/members/44263.html'
p552
aS'http://www.nasonline.org/member-directory/members/51486.html'
p553
aS'http://www.nasonline.org/member-directory/members/7183.html'
p554
aS'http://www.nasonline.org/member-directory/members/46111.html'
p555
aS'http://www.nasonline.org/member-directory/members/2540043.html'
p556
aS'http://www.nasonline.org/member-directory/members/3005836.html'
p557
aS'http://www.nasonline.org/member-directory/members/3000179.html'
p558
aS'http://www.nasonline.org/member-directory/members/20012686.html'
p559
aS'http://www.nasonline.org/member-directory/members/20004810.html'
p560
aS'http://www.nasonline.org/member-directory/members/51407.html'
p561
aS'http://www.nasonline.org/member-directory/members/20010001.html'
p562
aS'http://www.nasonline.org/member-directory/members/20010109.html'
p563
aS'http://www.nasonline.org/member-directory/members/3015852.html'
p564
aS'http://www.nasonline.org/member-directory/members/20000227.html'
p565
aS'http://www.nasonline.org/member-directory/members/60207.html'
p566
aS'http://www.nasonline.org/member-directory/members/3008581.html'
p567
aS'http://www.nasonline.org/member-directory/members/51294.html'
p568
aS'http://www.nasonline.org/member-directory/members/2518456.html'
p569
aS'http://www.nasonline.org/member-directory/members/20010030.html'
p570
aS'http://www.nasonline.org/member-directory/members/20015001.html'
p571
aS'http://www.nasonline.org/member-directory/members/51235.html'
p572
aS'http://www.nasonline.org/member-directory/members/20012492.html'
p573
aS'http://www.nasonline.org/member-directory/members/44810.html'
p574
aS'http://www.nasonline.org/member-directory/members/2510858.html'
p575
aS'http://www.nasonline.org/member-directory/members/51164.html'
p576
aS'http://www.nasonline.org/member-directory/members/20010003.html'
p577
aS'http://www.nasonline.org/member-directory/members/3005910.html'
p578
aS'http://www.nasonline.org/member-directory/members/65399.html'
p579
aS'http://www.nasonline.org/member-directory/members/20010111.html'
p580
aS'http://www.nasonline.org/member-directory/members/3012572.html'
p581
aS'http://www.nasonline.org/member-directory/members/60343.html'
p582
aS'http://www.nasonline.org/member-directory/members/3002042.html'
p583
aS'http://www.nasonline.org/member-directory/members/20002221.html'
p584
aS'http://www.nasonline.org/member-directory/members/3008586.html'
p585
aS'http://www.nasonline.org/member-directory/members/20002182.html'
p586
aS'http://www.nasonline.org/member-directory/members/3003063.html'
p587
aS'http://www.nasonline.org/member-directory/members/20002211.html'
p588
aS'http://www.nasonline.org/member-directory/members/20015166.html'
p589
aS'http://www.nasonline.org/member-directory/members/3008952.html'
p590
aS'http://www.nasonline.org/member-directory/members/12293.html'
p591
aS'http://www.nasonline.org/member-directory/members/20010004.html'
p592
aS'http://www.nasonline.org/member-directory/members/20002153.html'
p593
aS'http://www.nasonline.org/member-directory/members/3002624.html'
p594
aS'http://www.nasonline.org/member-directory/members/61841.html'
p595
aS'http://www.nasonline.org/member-directory/members/3012734.html'
p596
aS'http://www.nasonline.org/member-directory/members/3008570.html'
p597
aS'http://www.nasonline.org/member-directory/members/2501338.html'
p598
aS'http://www.nasonline.org/member-directory/members/62524.html'
p599
aS'http://www.nasonline.org/member-directory/members/3012530.html'
p600
aS'http://www.nasonline.org/member-directory/members/60019.html'
p601
aS'http://www.nasonline.org/member-directory/members/20010112.html'
p602
aS'http://www.nasonline.org/member-directory/members/3006613.html'
p603
aS'http://www.nasonline.org/member-directory/members/20014999.html'
p604
aS'http://www.nasonline.org/member-directory/members/66404.html'
p605
aS'http://www.nasonline.org/member-directory/members/9265.html'
p606
aS'http://www.nasonline.org/member-directory/members/3009519.html'
p607
aS'http://www.nasonline.org/member-directory/members/50755.html'
p608
aS'http://www.nasonline.org/member-directory/members/50749.html'
p609
aS'http://www.nasonline.org/member-directory/members/20005826.html'
p610
aS'http://www.nasonline.org/member-directory/members/12974.html'
p611
aS'http://www.nasonline.org/member-directory/members/892043.html'
p612
aS'http://www.nasonline.org/member-directory/members/2538526.html'
p613
aS'http://www.nasonline.org/member-directory/members/3012602.html'
p614
aS'http://www.nasonline.org/member-directory/members/20015167.html'
p615
aS'http://www.nasonline.org/member-directory/members/3000516.html'
p616
aS'http://www.nasonline.org/member-directory/members/2538535.html'
p617
aS'http://www.nasonline.org/member-directory/members/3010034.html'
p618
aS'http://www.nasonline.org/member-directory/members/3012532.html'
p619
aS'http://www.nasonline.org/member-directory/members/30928.html'
p620
aS'http://www.nasonline.org/member-directory/members/20010113.html'
p621
aS'http://www.nasonline.org/member-directory/members/3000301.html'
p622
aS'http://www.nasonline.org/member-directory/members/4654.html'
p623
aS'http://www.nasonline.org/member-directory/members/20002167.html'
p624
aS'http://www.nasonline.org/member-directory/members/2536258.html'
p625
aS'http://www.nasonline.org/member-directory/members/66596.html'
p626
aS'http://www.nasonline.org/member-directory/members/45378.html'
p627
aS'http://www.nasonline.org/member-directory/members/20010031.html'
p628
aS'http://www.nasonline.org/member-directory/members/3008954.html'
p629
aS'http://www.nasonline.org/member-directory/members/3008957.html'
p630
aS'http://www.nasonline.org/member-directory/members/47400.html'
p631
aS'http://www.nasonline.org/member-directory/members/3008592.html'
p632
aS'http://www.nasonline.org/member-directory/members/46243.html'
p633
aS'http://www.nasonline.org/member-directory/members/20004874.html'
p634
aS'http://www.nasonline.org/member-directory/members/2540198.html'
p635
aS'http://www.nasonline.org/member-directory/members/20009981.html'
p636
aS'http://www.nasonline.org/member-directory/members/50262.html'
p637
aS'http://www.nasonline.org/member-directory/members/50254.html'
p638
aS'http://www.nasonline.org/member-directory/members/3005186.html'
p639
aS'http://www.nasonline.org/member-directory/members/3008594.html'
p640
aS'http://www.nasonline.org/member-directory/members/2538621.html'
p641
aS'http://www.nasonline.org/member-directory/members/5229.html'
p642
aS'http://www.nasonline.org/member-directory/members/20002176.html'
p643
aS'http://www.nasonline.org/member-directory/members/62357.html'
p644
aS'http://www.nasonline.org/member-directory/members/50174.html'
p645
aS'http://www.nasonline.org/member-directory/members/3000222.html'
p646
aS'http://www.nasonline.org/member-directory/members/15977.html'
p647
aS'http://www.nasonline.org/member-directory/members/20014895.html'
p648
aS'http://www.nasonline.org/member-directory/members/3005852.html'
p649
aS'http://www.nasonline.org/member-directory/members/3002536.html'
p650
aS'http://www.nasonline.org/member-directory/members/3005818.html'
p651
aS'http://www.nasonline.org/member-directory/members/3005837.html'
p652
aS'http://www.nasonline.org/member-directory/members/50069.html'
p653
aS'http://www.nasonline.org/member-directory/members/3010037.html'
p654
aS'http://www.nasonline.org/member-directory/members/2519187.html'
p655
aS'http://www.nasonline.org/member-directory/members/65462.html'
p656
aS'http://www.nasonline.org/member-directory/members/64063.html'
p657
aS'http://www.nasonline.org/member-directory/members/7986.html'
p658
aS'http://www.nasonline.org/member-directory/members/20002139.html'
p659
aS'http://www.nasonline.org/member-directory/members/3005865.html'
p660
aS'http://www.nasonline.org/member-directory/members/3009525.html'
p661
aS'http://www.nasonline.org/member-directory/members/3014210.html'
p662
aS'http://www.nasonline.org/member-directory/members/2512579.html'
p663
aS'http://www.nasonline.org/member-directory/members/3005867.html'
p664
aS'http://www.nasonline.org/member-directory/members/20014920.html'
p665
aS'http://www.nasonline.org/member-directory/members/20004791.html'
p666
aS'http://www.nasonline.org/member-directory/members/20015168.html'
p667
aS'http://www.nasonline.org/member-directory/members/3006614.html'
p668
aS'http://www.nasonline.org/member-directory/members/49873.html'
p669
aS'http://www.nasonline.org/member-directory/members/20004892.html'
p670
aS'http://www.nasonline.org/member-directory/members/3008660.html'
p671
aS'http://www.nasonline.org/member-directory/members/20010114.html'
p672
aS'http://www.nasonline.org/member-directory/members/3012597.html'
p673
aS'http://www.nasonline.org/member-directory/members/20010006.html'
p674
aS'http://www.nasonline.org/member-directory/members/3004044.html'
p675
aS'http://www.nasonline.org/member-directory/members/3007829.html'
p676
aS'http://www.nasonline.org/member-directory/members/20002630.html'
p677
aS'http://www.nasonline.org/member-directory/members/20004077.html'
p678
aS'http://www.nasonline.org/member-directory/members/10353.html'
p679
aS'http://www.nasonline.org/member-directory/members/20004894.html'
p680
aS'http://www.nasonline.org/member-directory/members/13055.html'
p681
aS'http://www.nasonline.org/member-directory/members/64761.html'
p682
aS'http://www.nasonline.org/member-directory/members/3005869.html'
p683
aS'http://www.nasonline.org/member-directory/members/2286.html'
p684
aS'http://www.nasonline.org/member-directory/members/3002248.html'
p685
aS'http://www.nasonline.org/member-directory/members/66484.html'
p686
aS'http://www.nasonline.org/member-directory/members/20010116.html'
p687
aS'http://www.nasonline.org/member-directory/members/49681.html'
p688
aS'http://www.nasonline.org/member-directory/members/3000795.html'
p689
aS'http://www.nasonline.org/member-directory/members/695.html'
p690
aS'http://www.nasonline.org/member-directory/members/3009503.html'
p691
aS'http://www.nasonline.org/member-directory/members/3002046.html'
p692
aS'http://www.nasonline.org/member-directory/members/20000338.html'
p693
aS'http://www.nasonline.org/member-directory/members/40085.html'
p694
aS'http://www.nasonline.org/member-directory/members/20004875.html'
p695
aS'http://www.nasonline.org/member-directory/members/3005271.html'
p696
aS'http://www.nasonline.org/member-directory/members/3006987.html'
p697
aS'http://www.nasonline.org/member-directory/members/3010045.html'
p698
aS'http://www.nasonline.org/member-directory/members/20002151.html'
p699
aS'http://www.nasonline.org/member-directory/members/20007886.html'
p700
aS'http://www.nasonline.org/member-directory/members/49475.html'
p701
aS'http://www.nasonline.org/member-directory/members/59761.html'
p702
aS'http://www.nasonline.org/member-directory/members/38746.html'
p703
aS'http://www.nasonline.org/member-directory/members/3012533.html'
p704
aS'http://www.nasonline.org/member-directory/members/3012735.html'
p705
aS'http://www.nasonline.org/member-directory/members/3005841.html'
p706
aS'http://www.nasonline.org/member-directory/members/20007749.html'
p707
aS'http://www.nasonline.org/member-directory/members/2541550.html'
p708
aS'http://www.nasonline.org/member-directory/members/2518940.html'
p709
aS'http://www.nasonline.org/member-directory/members/20007492.html'
p710
aS'http://www.nasonline.org/member-directory/members/3005920.html'
p711
aS'http://www.nasonline.org/member-directory/members/4194.html'
p712
aS'http://www.nasonline.org/member-directory/members/3008004.html'
p713
aS'http://www.nasonline.org/member-directory/members/3005929.html'
p714
aS'http://www.nasonline.org/member-directory/members/3008585.html'
p715
aS'http://www.nasonline.org/member-directory/members/3001112.html'
p716
aS'http://www.nasonline.org/member-directory/members/2529075.html'
p717
aS'http://www.nasonline.org/member-directory/members/49279.html'
p718
aS'http://www.nasonline.org/member-directory/members/49258.html'
p719
aS'http://www.nasonline.org/member-directory/members/20012789.html'
p720
aS'http://www.nasonline.org/member-directory/members/3008577.html'
p721
aS'http://www.nasonline.org/member-directory/members/3004989.html'
p722
aS'http://www.nasonline.org/member-directory/members/2533471.html'
p723
aS'http://www.nasonline.org/member-directory/members/913.html'
p724
aS'http://www.nasonline.org/member-directory/members/20015169.html'
p725
aS'http://www.nasonline.org/member-directory/members/3005864.html'
p726
aS'http://www.nasonline.org/member-directory/members/3009277.html'
p727
aS'http://www.nasonline.org/member-directory/members/20007479.html'
p728
aS'http://www.nasonline.org/member-directory/members/48351.html'
p729
aS'http://www.nasonline.org/member-directory/members/2538844.html'
p730
aS'http://www.nasonline.org/member-directory/members/20007750.html'
p731
aS'http://www.nasonline.org/member-directory/members/2533535.html'
p732
aS'http://www.nasonline.org/member-directory/members/20014902.html'
p733
aS'http://www.nasonline.org/member-directory/members/3000299.html'
p734
aS'http://www.nasonline.org/member-directory/members/3005855.html'
p735
aS'http://www.nasonline.org/member-directory/members/3012598.html'
p736
aS'http://www.nasonline.org/member-directory/members/14459.html'
p737
aS'http://www.nasonline.org/member-directory/members/3011486.html'
p738
aS'http://www.nasonline.org/member-directory/members/48953.html'
p739
aS'http://www.nasonline.org/member-directory/members/48936.html'
p740
aS'http://www.nasonline.org/member-directory/members/66481.html'
p741
aS'http://www.nasonline.org/member-directory/members/3002049.html'
p742
aS'http://www.nasonline.org/member-directory/members/3004896.html'
p743
aS'http://www.nasonline.org/member-directory/members/67173.html'
p744
aS'http://www.nasonline.org/member-directory/members/3008958.html'
p745
aS'http://www.nasonline.org/member-directory/members/3012737.html'
p746
aS'http://www.nasonline.org/member-directory/members/20004790.html'
p747
aS'http://www.nasonline.org/member-directory/members/20004851.html'
p748
aS'http://www.nasonline.org/member-directory/members/3005895.html'
p749
aS'http://www.nasonline.org/member-directory/members/20007498.html'
p750
aS'http://www.nasonline.org/member-directory/members/20012493.html'
p751
aS'http://www.nasonline.org/member-directory/members/20004897.html'
p752
aS'http://www.nasonline.org/member-directory/members/20014921.html'
p753
aS'http://www.nasonline.org/member-directory/members/20012688.html'
p754
aS'http://www.nasonline.org/member-directory/members/3012600.html'
p755
aS'http://www.nasonline.org/member-directory/members/3008679.html'
p756
aS'http://www.nasonline.org/member-directory/members/20015171.html'
p757
aS'http://www.nasonline.org/member-directory/members/10639.html'
p758
aS'http://www.nasonline.org/member-directory/members/3011447.html'
p759
aS'http://www.nasonline.org/member-directory/members/65664.html'
p760
aS'http://www.nasonline.org/member-directory/members/2540399.html'
p761
a.