(lp0
S'http://www.nasonline.org/member-directory/members/58385.html'
p1
aS'http://www.nasonline.org/member-directory/members/58376.html'
p2
aS'http://www.nasonline.org/member-directory/members/66128.html'
p3
aS'http://www.nasonline.org/member-directory/members/66170.html'
p4
aS'http://www.nasonline.org/member-directory/members/64172.html'
p5
aS'http://www.nasonline.org/member-directory/members/64173.html'
p6
aS'http://www.nasonline.org/member-directory/members/3003900.html'
p7
aS'http://www.nasonline.org/member-directory/members/2355.html'
p8
aS'http://www.nasonline.org/member-directory/members/59410.html'
p9
aS'http://www.nasonline.org/member-directory/members/3003904.html'
p10
aS'http://www.nasonline.org/member-directory/members/66118.html'
p11
aS'http://www.nasonline.org/member-directory/members/1660.html'
p12
aS'http://www.nasonline.org/member-directory/members/59396.html'
p13
aS'http://www.nasonline.org/member-directory/members/62025.html'
p14
aS'http://www.nasonline.org/member-directory/members/66134.html'
p15
aS'http://www.nasonline.org/member-directory/members/58234.html'
p16
aS'http://www.nasonline.org/member-directory/members/45565.html'
p17
aS'http://www.nasonline.org/member-directory/members/1659.html'
p18
aS'http://www.nasonline.org/member-directory/members/58155.html'
p19
aS'http://www.nasonline.org/member-directory/members/58153.html'
p20
aS'http://www.nasonline.org/member-directory/members/17420.html'
p21
aS'http://www.nasonline.org/member-directory/members/1376.html'
p22
aS'http://www.nasonline.org/member-directory/members/6055.html'
p23
aS'http://www.nasonline.org/member-directory/members/66121.html'
p24
aS'http://www.nasonline.org/member-directory/members/59412.html'
p25
aS'http://www.nasonline.org/member-directory/members/891747.html'
p26
aS'http://www.nasonline.org/member-directory/members/64174.html'
p27
aS'http://www.nasonline.org/member-directory/members/61141.html'
p28
aS'http://www.nasonline.org/member-directory/members/1338.html'
p29
aS'http://www.nasonline.org/member-directory/members/57922.html'
p30
aS'http://www.nasonline.org/member-directory/members/64175.html'
p31
aS'http://www.nasonline.org/member-directory/members/6372.html'
p32
aS'http://www.nasonline.org/member-directory/members/3001663.html'
p33
aS'http://www.nasonline.org/member-directory/members/48593.html'
p34
aS'http://www.nasonline.org/member-directory/members/3001664.html'
p35
aS'http://www.nasonline.org/member-directory/members/3003901.html'
p36
aS'http://www.nasonline.org/member-directory/members/31110.html'
p37
aS'http://www.nasonline.org/member-directory/members/66129.html'
p38
aS'http://www.nasonline.org/member-directory/members/4692.html'
p39
aS'http://www.nasonline.org/member-directory/members/13166.html'
p40
aS'http://www.nasonline.org/member-directory/members/67754.html'
p41
aS'http://www.nasonline.org/member-directory/members/57688.html'
p42
aS'http://www.nasonline.org/member-directory/members/67720.html'
p43
aS'http://www.nasonline.org/member-directory/members/64209.html'
p44
aS'http://www.nasonline.org/member-directory/members/66103.html'
p45
aS'http://www.nasonline.org/member-directory/members/3001665.html'
p46
aS'http://www.nasonline.org/member-directory/members/59576.html'
p47
aS'http://www.nasonline.org/member-directory/members/66116.html'
p48
aS'http://www.nasonline.org/member-directory/members/57497.html'
p49
aS'http://www.nasonline.org/member-directory/members/1658.html'
p50
aS'http://www.nasonline.org/member-directory/members/67721.html'
p51
aS'http://www.nasonline.org/member-directory/members/57396.html'
p52
aS'http://www.nasonline.org/member-directory/members/4690.html'
p53
aS'http://www.nasonline.org/member-directory/members/5115.html'
p54
aS'http://www.nasonline.org/member-directory/members/57301.html'
p55
aS'http://www.nasonline.org/member-directory/members/62026.html'
p56
aS'http://www.nasonline.org/member-directory/members/67722.html'
p57
aS'http://www.nasonline.org/member-directory/members/62155.html'
p58
aS'http://www.nasonline.org/member-directory/members/59398.html'
p59
aS'http://www.nasonline.org/member-directory/members/64210.html'
p60
aS'http://www.nasonline.org/member-directory/members/47404.html'
p61
aS'http://www.nasonline.org/member-directory/members/4688.html'
p62
aS'http://www.nasonline.org/member-directory/members/4718.html'
p63
aS'http://www.nasonline.org/member-directory/members/57120.html'
p64
aS'http://www.nasonline.org/member-directory/members/67207.html'
p65
aS'http://www.nasonline.org/member-directory/members/59397.html'
p66
aS'http://www.nasonline.org/member-directory/members/66130.html'
p67
aS'http://www.nasonline.org/member-directory/members/64182.html'
p68
aS'http://www.nasonline.org/member-directory/members/57059.html'
p69
aS'http://www.nasonline.org/member-directory/members/4697.html'
p70
aS'http://www.nasonline.org/member-directory/members/60660.html'
p71
aS'http://www.nasonline.org/member-directory/members/4687.html'
p72
aS'http://www.nasonline.org/member-directory/members/3003912.html'
p73
aS'http://www.nasonline.org/member-directory/members/7888.html'
p74
aS'http://www.nasonline.org/member-directory/members/60305.html'
p75
aS'http://www.nasonline.org/member-directory/members/3003882.html'
p76
aS'http://www.nasonline.org/member-directory/members/12719.html'
p77
aS'http://www.nasonline.org/member-directory/members/64204.html'
p78
aS'http://www.nasonline.org/member-directory/members/44379.html'
p79
aS'http://www.nasonline.org/member-directory/members/3001668.html'
p80
aS'http://www.nasonline.org/member-directory/members/14960.html'
p81
aS'http://www.nasonline.org/member-directory/members/62452.html'
p82
aS'http://www.nasonline.org/member-directory/members/64211.html'
p83
aS'http://www.nasonline.org/member-directory/members/1654.html'
p84
aS'http://www.nasonline.org/member-directory/members/3001714.html'
p85
aS'http://www.nasonline.org/member-directory/members/56847.html'
p86
aS'http://www.nasonline.org/member-directory/members/66177.html'
p87
aS'http://www.nasonline.org/member-directory/members/59399.html'
p88
aS'http://www.nasonline.org/member-directory/members/58652.html'
p89
aS'http://www.nasonline.org/member-directory/members/3003968.html'
p90
aS'http://www.nasonline.org/member-directory/members/15935.html'
p91
aS'http://www.nasonline.org/member-directory/members/8945.html'
p92
aS'http://www.nasonline.org/member-directory/members/3003970.html'
p93
aS'http://www.nasonline.org/member-directory/members/8893.html'
p94
aS'http://www.nasonline.org/member-directory/members/3003905.html'
p95
aS'http://www.nasonline.org/member-directory/members/3001698.html'
p96
aS'http://www.nasonline.org/member-directory/members/3003895.html'
p97
aS'http://www.nasonline.org/member-directory/members/45529.html'
p98
aS'http://www.nasonline.org/member-directory/members/56577.html'
p99
aS'http://www.nasonline.org/member-directory/members/8941.html'
p100
aS'http://www.nasonline.org/member-directory/members/8703.html'
p101
aS'http://www.nasonline.org/member-directory/members/64180.html'
p102
aS'http://www.nasonline.org/member-directory/members/56464.html'
p103
aS'http://www.nasonline.org/member-directory/members/64198.html'
p104
aS'http://www.nasonline.org/member-directory/members/27327.html'
p105
aS'http://www.nasonline.org/member-directory/members/56428.html'
p106
aS'http://www.nasonline.org/member-directory/members/56426.html'
p107
aS'http://www.nasonline.org/member-directory/members/61020.html'
p108
aS'http://www.nasonline.org/member-directory/members/56380.html'
p109
aS'http://www.nasonline.org/member-directory/members/67757.html'
p110
aS'http://www.nasonline.org/member-directory/members/66185.html'
p111
aS'http://www.nasonline.org/member-directory/members/3004013.html'
p112
aS'http://www.nasonline.org/member-directory/members/59413.html'
p113
aS'http://www.nasonline.org/member-directory/members/67749.html'
p114
aS'http://www.nasonline.org/member-directory/members/56312.html'
p115
aS'http://www.nasonline.org/member-directory/members/27137.html'
p116
aS'http://www.nasonline.org/member-directory/members/3003973.html'
p117
aS'http://www.nasonline.org/member-directory/members/3001453.html'
p118
aS'http://www.nasonline.org/member-directory/members/5922.html'
p119
aS'http://www.nasonline.org/member-directory/members/3003971.html'
p120
aS'http://www.nasonline.org/member-directory/members/64213.html'
p121
aS'http://www.nasonline.org/member-directory/members/3001700.html'
p122
aS'http://www.nasonline.org/member-directory/members/8891.html'
p123
aS'http://www.nasonline.org/member-directory/members/56161.html'
p124
aS'http://www.nasonline.org/member-directory/members/4607.html'
p125
aS'http://www.nasonline.org/member-directory/members/4606.html'
p126
aS'http://www.nasonline.org/member-directory/members/7987.html'
p127
aS'http://www.nasonline.org/member-directory/members/55995.html'
p128
aS'http://www.nasonline.org/member-directory/members/3003891.html'
p129
aS'http://www.nasonline.org/member-directory/members/59595.html'
p130
aS'http://www.nasonline.org/member-directory/members/4348.html'
p131
aS'http://www.nasonline.org/member-directory/members/1327.html'
p132
aS'http://www.nasonline.org/member-directory/members/15401.html'
p133
aS'http://www.nasonline.org/member-directory/members/48143.html'
p134
aS'http://www.nasonline.org/member-directory/members/55843.html'
p135
aS'http://www.nasonline.org/member-directory/members/55813.html'
p136
aS'http://www.nasonline.org/member-directory/members/64214.html'
p137
aS'http://www.nasonline.org/member-directory/members/55788.html'
p138
aS'http://www.nasonline.org/member-directory/members/605.html'
p139
aS'http://www.nasonline.org/member-directory/members/66105.html'
p140
aS'http://www.nasonline.org/member-directory/members/2394.html'
p141
aS'http://www.nasonline.org/member-directory/members/48392.html'
p142
aS'http://www.nasonline.org/member-directory/members/55647.html'
p143
aS'http://www.nasonline.org/member-directory/members/67723.html'
p144
aS'http://www.nasonline.org/member-directory/members/66122.html'
p145
aS'http://www.nasonline.org/member-directory/members/44473.html'
p146
aS'http://www.nasonline.org/member-directory/members/8940.html'
p147
aS'http://www.nasonline.org/member-directory/members/3915.html'
p148
aS'http://www.nasonline.org/member-directory/members/58650.html'
p149
aS'http://www.nasonline.org/member-directory/members/64215.html'
p150
aS'http://www.nasonline.org/member-directory/members/3003906.html'
p151
aS'http://www.nasonline.org/member-directory/members/66708.html'
p152
aS'http://www.nasonline.org/member-directory/members/3003883.html'
p153
aS'http://www.nasonline.org/member-directory/members/55529.html'
p154
aS'http://www.nasonline.org/member-directory/members/4602.html'
p155
aS'http://www.nasonline.org/member-directory/members/59589.html'
p156
aS'http://www.nasonline.org/member-directory/members/59416.html'
p157
aS'http://www.nasonline.org/member-directory/members/55506.html'
p158
aS'http://www.nasonline.org/member-directory/members/8960.html'
p159
aS'http://www.nasonline.org/member-directory/members/3001701.html'
p160
aS'http://www.nasonline.org/member-directory/members/3003913.html'
p161
aS'http://www.nasonline.org/member-directory/members/4685.html'
p162
aS'http://www.nasonline.org/member-directory/members/5216.html'
p163
aS'http://www.nasonline.org/member-directory/members/67724.html'
p164
aS'http://www.nasonline.org/member-directory/members/1650.html'
p165
aS'http://www.nasonline.org/member-directory/members/3003902.html'
p166
aS'http://www.nasonline.org/member-directory/members/8938.html'
p167
aS'http://www.nasonline.org/member-directory/members/41465.html'
p168
aS'http://www.nasonline.org/member-directory/members/66131.html'
p169
aS'http://www.nasonline.org/member-directory/members/67725.html'
p170
aS'http://www.nasonline.org/member-directory/members/55248.html'
p171
aS'http://www.nasonline.org/member-directory/members/67726.html'
p172
aS'http://www.nasonline.org/member-directory/members/20001416.html'
p173
aS'http://www.nasonline.org/member-directory/members/8936.html'
p174
aS'http://www.nasonline.org/member-directory/members/4578.html'
p175
aS'http://www.nasonline.org/member-directory/members/62029.html'
p176
aS'http://www.nasonline.org/member-directory/members/20001417.html'
p177
aS'http://www.nasonline.org/member-directory/members/5220.html'
p178
aS'http://www.nasonline.org/member-directory/members/64184.html'
p179
aS'http://www.nasonline.org/member-directory/members/66178.html'
p180
aS'http://www.nasonline.org/member-directory/members/43381.html'
p181
aS'http://www.nasonline.org/member-directory/members/8935.html'
p182
aS'http://www.nasonline.org/member-directory/members/4683.html'
p183
aS'http://www.nasonline.org/member-directory/members/46931.html'
p184
aS'http://www.nasonline.org/member-directory/members/54892.html'
p185
aS'http://www.nasonline.org/member-directory/members/54879.html'
p186
aS'http://www.nasonline.org/member-directory/members/4601.html'
p187
aS'http://www.nasonline.org/member-directory/members/64201.html'
p188
aS'http://www.nasonline.org/member-directory/members/59417.html'
p189
aS'http://www.nasonline.org/member-directory/members/20001386.html'
p190
aS'http://www.nasonline.org/member-directory/members/14176.html'
p191
aS'http://www.nasonline.org/member-directory/members/1336.html'
p192
aS'http://www.nasonline.org/member-directory/members/62159.html'
p193
aS'http://www.nasonline.org/member-directory/members/1648.html'
p194
aS'http://www.nasonline.org/member-directory/members/67727.html'
p195
aS'http://www.nasonline.org/member-directory/members/54720.html'
p196
aS'http://www.nasonline.org/member-directory/members/1647.html'
p197
aS'http://www.nasonline.org/member-directory/members/54677.html'
p198
aS'http://www.nasonline.org/member-directory/members/54547.html'
p199
aS'http://www.nasonline.org/member-directory/members/62031.html'
p200
aS'http://www.nasonline.org/member-directory/members/62160.html'
p201
aS'http://www.nasonline.org/member-directory/members/54474.html'
p202
aS'http://www.nasonline.org/member-directory/members/59418.html'
p203
aS'http://www.nasonline.org/member-directory/members/66186.html'
p204
aS'http://www.nasonline.org/member-directory/members/63626.html'
p205
aS'http://www.nasonline.org/member-directory/members/64202.html'
p206
aS'http://www.nasonline.org/member-directory/members/1646.html'
p207
aS'http://www.nasonline.org/member-directory/members/67759.html'
p208
aS'http://www.nasonline.org/member-directory/members/59419.html'
p209
aS'http://www.nasonline.org/member-directory/members/4576.html'
p210
aS'http://www.nasonline.org/member-directory/members/54283.html'
p211
aS'http://www.nasonline.org/member-directory/members/67728.html'
p212
aS'http://www.nasonline.org/member-directory/members/3000462.html'
p213
aS'http://www.nasonline.org/member-directory/members/64189.html'
p214
aS'http://www.nasonline.org/member-directory/members/3001518.html'
p215
aS'http://www.nasonline.org/member-directory/members/3001702.html'
p216
aS'http://www.nasonline.org/member-directory/members/62032.html'
p217
aS'http://www.nasonline.org/member-directory/members/47387.html'
p218
aS'http://www.nasonline.org/member-directory/members/3004014.html'
p219
aS'http://www.nasonline.org/member-directory/members/3001716.html'
p220
aS'http://www.nasonline.org/member-directory/members/4575.html'
p221
aS'http://www.nasonline.org/member-directory/members/4600.html'
p222
aS'http://www.nasonline.org/member-directory/members/3003907.html'
p223
aS'http://www.nasonline.org/member-directory/members/44772.html'
p224
aS'http://www.nasonline.org/member-directory/members/62401.html'
p225
aS'http://www.nasonline.org/member-directory/members/53868.html'
p226
aS'http://www.nasonline.org/member-directory/members/59603.html'
p227
aS'http://www.nasonline.org/member-directory/members/1293.html'
p228
aS'http://www.nasonline.org/member-directory/members/4574.html'
p229
aS'http://www.nasonline.org/member-directory/members/3001703.html'
p230
aS'http://www.nasonline.org/member-directory/members/3001694.html'
p231
aS'http://www.nasonline.org/member-directory/members/3002006.html'
p232
aS'http://www.nasonline.org/member-directory/members/5960.html'
p233
aS'http://www.nasonline.org/member-directory/members/67751.html'
p234
aS'http://www.nasonline.org/member-directory/members/53793.html'
p235
aS'http://www.nasonline.org/member-directory/members/1644.html'
p236
aS'http://www.nasonline.org/member-directory/members/8932.html'
p237
aS'http://www.nasonline.org/member-directory/members/9433.html'
p238
aS'http://www.nasonline.org/member-directory/members/59606.html'
p239
aS'http://www.nasonline.org/member-directory/members/64199.html'
p240
aS'http://www.nasonline.org/member-directory/members/64191.html'
p241
aS'http://www.nasonline.org/member-directory/members/63209.html'
p242
aS'http://www.nasonline.org/member-directory/members/66187.html'
p243
aS'http://www.nasonline.org/member-directory/members/53716.html'
p244
aS'http://www.nasonline.org/member-directory/members/46986.html'
p245
aS'http://www.nasonline.org/member-directory/members/48165.html'
p246
aS'http://www.nasonline.org/member-directory/members/45578.html'
p247
aS'http://www.nasonline.org/member-directory/members/35233.html'
p248
aS'http://www.nasonline.org/member-directory/members/64194.html'
p249
aS'http://www.nasonline.org/member-directory/members/3003908.html'
p250
aS'http://www.nasonline.org/member-directory/members/45301.html'
p251
aS'http://www.nasonline.org/member-directory/members/1643.html'
p252
aS'http://www.nasonline.org/member-directory/members/64207.html'
p253
aS'http://www.nasonline.org/member-directory/members/4190.html'
p254
aS'http://www.nasonline.org/member-directory/members/4662.html'
p255
aS'http://www.nasonline.org/member-directory/members/47401.html'
p256
aS'http://www.nasonline.org/member-directory/members/3001704.html'
p257
aS'http://www.nasonline.org/member-directory/members/66107.html'
p258
aS'http://www.nasonline.org/member-directory/members/18450.html'
p259
aS'http://www.nasonline.org/member-directory/members/10499.html'
p260
aS'http://www.nasonline.org/member-directory/members/4573.html'
p261
aS'http://www.nasonline.org/member-directory/members/67762.html'
p262
aS'http://www.nasonline.org/member-directory/members/59437.html'
p263
aS'http://www.nasonline.org/member-directory/members/59443.html'
p264
aS'http://www.nasonline.org/member-directory/members/53382.html'
p265
aS'http://www.nasonline.org/member-directory/members/59448.html'
p266
aS'http://www.nasonline.org/member-directory/members/8929.html'
p267
aS'http://www.nasonline.org/member-directory/members/3004015.html'
p268
aS'http://www.nasonline.org/member-directory/members/4553.html'
p269
aS'http://www.nasonline.org/member-directory/members/20001964.html'
p270
aS'http://www.nasonline.org/member-directory/members/48390.html'
p271
aS'http://www.nasonline.org/member-directory/members/20001374.html'
p272
aS'http://www.nasonline.org/member-directory/members/61132.html'
p273
aS'http://www.nasonline.org/member-directory/members/59468.html'
p274
aS'http://www.nasonline.org/member-directory/members/53298.html'
p275
aS'http://www.nasonline.org/member-directory/members/47867.html'
p276
aS'http://www.nasonline.org/member-directory/members/4597.html'
p277
aS'http://www.nasonline.org/member-directory/members/1873.html'
p278
aS'http://www.nasonline.org/member-directory/members/44.html'
p279
aS'http://www.nasonline.org/member-directory/members/3003896.html'
p280
aS'http://www.nasonline.org/member-directory/members/62035.html'
p281
aS'http://www.nasonline.org/member-directory/members/4325.html'
p282
aS'http://www.nasonline.org/member-directory/members/62037.html'
p283
aS'http://www.nasonline.org/member-directory/members/1334.html'
p284
aS'http://www.nasonline.org/member-directory/members/53046.html'
p285
aS'http://www.nasonline.org/member-directory/members/62038.html'
p286
aS'http://www.nasonline.org/member-directory/members/67731.html'
p287
aS'http://www.nasonline.org/member-directory/members/66123.html'
p288
aS'http://www.nasonline.org/member-directory/members/66108.html'
p289
aS'http://www.nasonline.org/member-directory/members/67732.html'
p290
aS'http://www.nasonline.org/member-directory/members/52989.html'
p291
aS'http://www.nasonline.org/member-directory/members/64181.html'
p292
aS'http://www.nasonline.org/member-directory/members/8928.html'
p293
aS'http://www.nasonline.org/member-directory/members/891381.html'
p294
aS'http://www.nasonline.org/member-directory/members/45532.html'
p295
aS'http://www.nasonline.org/member-directory/members/47970.html'
p296
aS'http://www.nasonline.org/member-directory/members/3004022.html'
p297
aS'http://www.nasonline.org/member-directory/members/67054.html'
p298
aS'http://www.nasonline.org/member-directory/members/12985.html'
p299
aS'http://www.nasonline.org/member-directory/members/52842.html'
p300
aS'http://www.nasonline.org/member-directory/members/52788.html'
p301
aS'http://www.nasonline.org/member-directory/members/59288.html'
p302
aS'http://www.nasonline.org/member-directory/members/52758.html'
p303
aS'http://www.nasonline.org/member-directory/members/14472.html'
p304
aS'http://www.nasonline.org/member-directory/members/8886.html'
p305
aS'http://www.nasonline.org/member-directory/members/62039.html'
p306
aS'http://www.nasonline.org/member-directory/members/52673.html'
p307
aS'http://www.nasonline.org/member-directory/members/52664.html'
p308
aS'http://www.nasonline.org/member-directory/members/62161.html'
p309
aS'http://www.nasonline.org/member-directory/members/67733.html'
p310
aS'http://www.nasonline.org/member-directory/members/52630.html'
p311
aS'http://www.nasonline.org/member-directory/members/59484.html'
p312
aS'http://www.nasonline.org/member-directory/members/64206.html'
p313
aS'http://www.nasonline.org/member-directory/members/62040.html'
p314
aS'http://www.nasonline.org/member-directory/members/66188.html'
p315
aS'http://www.nasonline.org/member-directory/members/912.html'
p316
aS'http://www.nasonline.org/member-directory/members/3001733.html'
p317
aS'http://www.nasonline.org/member-directory/members/4572.html'
p318
aS'http://www.nasonline.org/member-directory/members/14543.html'
p319
aS'http://www.nasonline.org/member-directory/members/1333.html'
p320
aS'http://www.nasonline.org/member-directory/members/66179.html'
p321
aS'http://www.nasonline.org/member-directory/members/64183.html'
p322
aS'http://www.nasonline.org/member-directory/members/52447.html'
p323
aS'http://www.nasonline.org/member-directory/members/66180.html'
p324
aS'http://www.nasonline.org/member-directory/members/59491.html'
p325
aS'http://www.nasonline.org/member-directory/members/3003915.html'
p326
aS'http://www.nasonline.org/member-directory/members/1640.html'
p327
aS'http://www.nasonline.org/member-directory/members/4571.html'
p328
aS'http://www.nasonline.org/member-directory/members/3003894.html'
p329
aS'http://www.nasonline.org/member-directory/members/52252.html'
p330
aS'http://www.nasonline.org/member-directory/members/66181.html'
p331
aS'http://www.nasonline.org/member-directory/members/3001705.html'
p332
aS'http://www.nasonline.org/member-directory/members/52197.html'
p333
aS'http://www.nasonline.org/member-directory/members/4570.html'
p334
aS'http://www.nasonline.org/member-directory/members/66598.html'
p335
aS'http://www.nasonline.org/member-directory/members/2625.html'
p336
aS'http://www.nasonline.org/member-directory/members/7065.html'
p337
aS'http://www.nasonline.org/member-directory/members/3001695.html'
p338
aS'http://www.nasonline.org/member-directory/members/8925.html'
p339
aS'http://www.nasonline.org/member-directory/members/3001522.html'
p340
aS'http://www.nasonline.org/member-directory/members/66119.html'
p341
aS'http://www.nasonline.org/member-directory/members/62041.html'
p342
aS'http://www.nasonline.org/member-directory/members/8924.html'
p343
aS'http://www.nasonline.org/member-directory/members/66182.html'
p344
aS'http://www.nasonline.org/member-directory/members/59611.html'
p345
aS'http://www.nasonline.org/member-directory/members/67763.html'
p346
aS'http://www.nasonline.org/member-directory/members/1332.html'
p347
aS'http://www.nasonline.org/member-directory/members/9024.html'
p348
aS'http://www.nasonline.org/member-directory/members/17202.html'
p349
aS'http://www.nasonline.org/member-directory/members/48424.html'
p350
aS'http://www.nasonline.org/member-directory/members/51942.html'
p351
aS'http://www.nasonline.org/member-directory/members/18963.html'
p352
aS'http://www.nasonline.org/member-directory/members/3001717.html'
p353
aS'http://www.nasonline.org/member-directory/members/46247.html'
p354
aS'http://www.nasonline.org/member-directory/members/8922.html'
p355
aS'http://www.nasonline.org/member-directory/members/62523.html'
p356
aS'http://www.nasonline.org/member-directory/members/4595.html'
p357
aS'http://www.nasonline.org/member-directory/members/44855.html'
p358
aS'http://www.nasonline.org/member-directory/members/8884.html'
p359
aS'http://www.nasonline.org/member-directory/members/67738.html'
p360
aS'http://www.nasonline.org/member-directory/members/4104.html'
p361
aS'http://www.nasonline.org/member-directory/members/66110.html'
p362
aS'http://www.nasonline.org/member-directory/members/46112.html'
p363
aS'http://www.nasonline.org/member-directory/members/44849.html'
p364
aS'http://www.nasonline.org/member-directory/members/62163.html'
p365
aS'http://www.nasonline.org/member-directory/members/8917.html'
p366
aS'http://www.nasonline.org/member-directory/members/44764.html'
p367
aS'http://www.nasonline.org/member-directory/members/51517.html'
p368
aS'http://www.nasonline.org/member-directory/members/45377.html'
p369
aS'http://www.nasonline.org/member-directory/members/59504.html'
p370
aS'http://www.nasonline.org/member-directory/members/61615.html'
p371
aS'http://www.nasonline.org/member-directory/members/42532.html'
p372
aS'http://www.nasonline.org/member-directory/members/4594.html'
p373
aS'http://www.nasonline.org/member-directory/members/51438.html'
p374
aS'http://www.nasonline.org/member-directory/members/67734.html'
p375
aS'http://www.nasonline.org/member-directory/members/11300.html'
p376
aS'http://www.nasonline.org/member-directory/members/66183.html'
p377
aS'http://www.nasonline.org/member-directory/members/3003916.html'
p378
aS'http://www.nasonline.org/member-directory/members/1330.html'
p379
aS'http://www.nasonline.org/member-directory/members/67735.html'
p380
aS'http://www.nasonline.org/member-directory/members/3003888.html'
p381
aS'http://www.nasonline.org/member-directory/members/51361.html'
p382
aS'http://www.nasonline.org/member-directory/members/3483.html'
p383
aS'http://www.nasonline.org/member-directory/members/3001736.html'
p384
aS'http://www.nasonline.org/member-directory/members/8913.html'
p385
aS'http://www.nasonline.org/member-directory/members/3004019.html'
p386
aS'http://www.nasonline.org/member-directory/members/64195.html'
p387
aS'http://www.nasonline.org/member-directory/members/59507.html'
p388
aS'http://www.nasonline.org/member-directory/members/63592.html'
p389
aS'http://www.nasonline.org/member-directory/members/3001712.html'
p390
aS'http://www.nasonline.org/member-directory/members/8908.html'
p391
aS'http://www.nasonline.org/member-directory/members/67737.html'
p392
aS'http://www.nasonline.org/member-directory/members/66132.html'
p393
aS'http://www.nasonline.org/member-directory/members/8907.html'
p394
aS'http://www.nasonline.org/member-directory/members/64187.html'
p395
aS'http://www.nasonline.org/member-directory/members/51020.html'
p396
aS'http://www.nasonline.org/member-directory/members/66190.html'
p397
aS'http://www.nasonline.org/member-directory/members/64216.html'
p398
aS'http://www.nasonline.org/member-directory/members/66111.html'
p399
aS'http://www.nasonline.org/member-directory/members/64218.html'
p400
aS'http://www.nasonline.org/member-directory/members/64219.html'
p401
aS'http://www.nasonline.org/member-directory/members/43387.html'
p402
aS'http://www.nasonline.org/member-directory/members/59510.html'
p403
aS'http://www.nasonline.org/member-directory/members/62042.html'
p404
aS'http://www.nasonline.org/member-directory/members/50806.html'
p405
aS'http://www.nasonline.org/member-directory/members/47969.html'
p406
aS'http://www.nasonline.org/member-directory/members/44771.html'
p407
aS'http://www.nasonline.org/member-directory/members/67752.html'
p408
aS'http://www.nasonline.org/member-directory/members/62043.html'
p409
aS'http://www.nasonline.org/member-directory/members/64177.html'
p410
aS'http://www.nasonline.org/member-directory/members/3003887.html'
p411
aS'http://www.nasonline.org/member-directory/members/45258.html'
p412
aS'http://www.nasonline.org/member-directory/members/44220.html'
p413
aS'http://www.nasonline.org/member-directory/members/6956.html'
p414
aS'http://www.nasonline.org/member-directory/members/50640.html'
p415
aS'http://www.nasonline.org/member-directory/members/59202.html'
p416
aS'http://www.nasonline.org/member-directory/members/12738.html'
p417
aS'http://www.nasonline.org/member-directory/members/50539.html'
p418
aS'http://www.nasonline.org/member-directory/members/40205.html'
p419
aS'http://www.nasonline.org/member-directory/members/8963.html'
p420
aS'http://www.nasonline.org/member-directory/members/41496.html'
p421
aS'http://www.nasonline.org/member-directory/members/67739.html'
p422
aS'http://www.nasonline.org/member-directory/members/67740.html'
p423
aS'http://www.nasonline.org/member-directory/members/3004025.html'
p424
aS'http://www.nasonline.org/member-directory/members/50430.html'
p425
aS'http://www.nasonline.org/member-directory/members/50420.html'
p426
aS'http://www.nasonline.org/member-directory/members/8881.html'
p427
aS'http://www.nasonline.org/member-directory/members/4588.html'
p428
aS'http://www.nasonline.org/member-directory/members/3003914.html'
p429
aS'http://www.nasonline.org/member-directory/members/67741.html'
p430
aS'http://www.nasonline.org/member-directory/members/64221.html'
p431
aS'http://www.nasonline.org/member-directory/members/66885.html'
p432
aS'http://www.nasonline.org/member-directory/members/50261.html'
p433
aS'http://www.nasonline.org/member-directory/members/8905.html'
p434
aS'http://www.nasonline.org/member-directory/members/65618.html'
p435
aS'http://www.nasonline.org/member-directory/members/1637.html'
p436
aS'http://www.nasonline.org/member-directory/members/4587.html'
p437
aS'http://www.nasonline.org/member-directory/members/3001708.html'
p438
aS'http://www.nasonline.org/member-directory/members/59511.html'
p439
aS'http://www.nasonline.org/member-directory/members/44601.html'
p440
aS'http://www.nasonline.org/member-directory/members/67742.html'
p441
aS'http://www.nasonline.org/member-directory/members/50154.html'
p442
aS'http://www.nasonline.org/member-directory/members/50111.html'
p443
aS'http://www.nasonline.org/member-directory/members/8586.html'
p444
aS'http://www.nasonline.org/member-directory/members/8900.html'
p445
aS'http://www.nasonline.org/member-directory/members/44756.html'
p446
aS'http://www.nasonline.org/member-directory/members/64197.html'
p447
aS'http://www.nasonline.org/member-directory/members/3003910.html'
p448
aS'http://www.nasonline.org/member-directory/members/67743.html'
p449
aS'http://www.nasonline.org/member-directory/members/62044.html'
p450
aS'http://www.nasonline.org/member-directory/members/62045.html'
p451
aS'http://www.nasonline.org/member-directory/members/4586.html'
p452
aS'http://www.nasonline.org/member-directory/members/59616.html'
p453
aS'http://www.nasonline.org/member-directory/members/49945.html'
p454
aS'http://www.nasonline.org/member-directory/members/49938.html'
p455
aS'http://www.nasonline.org/member-directory/members/49936.html'
p456
aS'http://www.nasonline.org/member-directory/members/62046.html'
p457
aS'http://www.nasonline.org/member-directory/members/67744.html'
p458
aS'http://www.nasonline.org/member-directory/members/3001696.html'
p459
aS'http://www.nasonline.org/member-directory/members/64224.html'
p460
aS'http://www.nasonline.org/member-directory/members/66184.html'
p461
aS'http://www.nasonline.org/member-directory/members/62183.html'
p462
aS'http://www.nasonline.org/member-directory/members/4552.html'
p463
aS'http://www.nasonline.org/member-directory/members/4551.html'
p464
aS'http://www.nasonline.org/member-directory/members/67745.html'
p465
aS'http://www.nasonline.org/member-directory/members/14170.html'
p466
aS'http://www.nasonline.org/member-directory/members/18964.html'
p467
aS'http://www.nasonline.org/member-directory/members/62164.html'
p468
aS'http://www.nasonline.org/member-directory/members/59512.html'
p469
aS'http://www.nasonline.org/member-directory/members/3001718.html'
p470
aS'http://www.nasonline.org/member-directory/members/67765.html'
p471
aS'http://www.nasonline.org/member-directory/members/64946.html'
p472
aS'http://www.nasonline.org/member-directory/members/3001709.html'
p473
aS'http://www.nasonline.org/member-directory/members/49657.html'
p474
aS'http://www.nasonline.org/member-directory/members/3001743.html'
p475
aS'http://www.nasonline.org/member-directory/members/3003889.html'
p476
aS'http://www.nasonline.org/member-directory/members/8878.html'
p477
aS'http://www.nasonline.org/member-directory/members/46109.html'
p478
aS'http://www.nasonline.org/member-directory/members/3119.html'
p479
aS'http://www.nasonline.org/member-directory/members/3000160.html'
p480
aS'http://www.nasonline.org/member-directory/members/10812.html'
p481
aS'http://www.nasonline.org/member-directory/members/64193.html'
p482
aS'http://www.nasonline.org/member-directory/members/64222.html'
p483
aS'http://www.nasonline.org/member-directory/members/64203.html'
p484
aS'http://www.nasonline.org/member-directory/members/67766.html'
p485
aS'http://www.nasonline.org/member-directory/members/67746.html'
p486
aS'http://www.nasonline.org/member-directory/members/3003917.html'
p487
aS'http://www.nasonline.org/member-directory/members/66114.html'
p488
aS'http://www.nasonline.org/member-directory/members/49504.html'
p489
aS'http://www.nasonline.org/member-directory/members/66124.html'
p490
aS'http://www.nasonline.org/member-directory/members/62048.html'
p491
aS'http://www.nasonline.org/member-directory/members/62049.html'
p492
aS'http://www.nasonline.org/member-directory/members/49465.html'
p493
aS'http://www.nasonline.org/member-directory/members/4585.html'
p494
aS'http://www.nasonline.org/member-directory/members/1329.html'
p495
aS'http://www.nasonline.org/member-directory/members/1634.html'
p496
aS'http://www.nasonline.org/member-directory/members/67753.html'
p497
aS'http://www.nasonline.org/member-directory/members/49424.html'
p498
aS'http://www.nasonline.org/member-directory/members/49412.html'
p499
aS'http://www.nasonline.org/member-directory/members/20345.html'
p500
aS'http://www.nasonline.org/member-directory/members/3003890.html'
p501
aS'http://www.nasonline.org/member-directory/members/8962.html'
p502
aS'http://www.nasonline.org/member-directory/members/1328.html'
p503
aS'http://www.nasonline.org/member-directory/members/49333.html'
p504
aS'http://www.nasonline.org/member-directory/members/47968.html'
p505
aS'http://www.nasonline.org/member-directory/members/4568.html'
p506
aS'http://www.nasonline.org/member-directory/members/8961.html'
p507
aS'http://www.nasonline.org/member-directory/members/59349.html'
p508
aS'http://www.nasonline.org/member-directory/members/3001711.html'
p509
aS'http://www.nasonline.org/member-directory/members/62329.html'
p510
aS'http://www.nasonline.org/member-directory/members/66192.html'
p511
aS'http://www.nasonline.org/member-directory/members/4584.html'
p512
aS'http://www.nasonline.org/member-directory/members/46075.html'
p513
aS'http://www.nasonline.org/member-directory/members/3001745.html'
p514
aS'http://www.nasonline.org/member-directory/members/3003903.html'
p515
aS'http://www.nasonline.org/member-directory/members/49066.html'
p516
aS'http://www.nasonline.org/member-directory/members/66115.html'
p517
aS'http://www.nasonline.org/member-directory/members/49028.html'
p518
aS'http://www.nasonline.org/member-directory/members/3495.html'
p519
aS'http://www.nasonline.org/member-directory/members/3003911.html'
p520
aS'http://www.nasonline.org/member-directory/members/48991.html'
p521
aS'http://www.nasonline.org/member-directory/members/59517.html'
p522
aS'http://www.nasonline.org/member-directory/members/59522.html'
p523
aS'http://www.nasonline.org/member-directory/members/48942.html'
p524
aS'http://www.nasonline.org/member-directory/members/66194.html'
p525
aS'http://www.nasonline.org/member-directory/members/8898.html'
p526
aS'http://www.nasonline.org/member-directory/members/62166.html'
p527
aS'http://www.nasonline.org/member-directory/members/1339.html'
p528
aS'http://www.nasonline.org/member-directory/members/48882.html'
p529
aS'http://www.nasonline.org/member-directory/members/48166.html'
p530
aS'http://www.nasonline.org/member-directory/members/3001748.html'
p531
aS'http://www.nasonline.org/member-directory/members/45500.html'
p532
aS'http://www.nasonline.org/member-directory/members/3001720.html'
p533
aS'http://www.nasonline.org/member-directory/members/48787.html'
p534
a.