(lp0
S'https://www.nobelprize.org/prizes/physics/2018/ashkin/facts/'
p1
aS'//www.nobelprize.org/prizes/physics/2018/mourou/facts/'
p2
aS'//www.nobelprize.org/prizes/physics/2018/strickland/facts/'
p3
aS'https://www.nobelprize.org/prizes/physics/2017/weiss/facts/'
p4
aS'https://www.nobelprize.org/prizes/physics/2017/barish/facts/'
p5
aS'https://www.nobelprize.org/prizes/physics/2017/thorne/facts/'
p6
aS'https://www.nobelprize.org/prizes/physics/2016/thouless/facts/'
p7
aS'https://www.nobelprize.org/prizes/physics/2016/haldane/facts/'
p8
aS'https://www.nobelprize.org/prizes/physics/2016/kosterlitz/facts/'
p9
aS'https://www.nobelprize.org/prizes/physics/2015/kajita/facts/'
p10
aS'https://www.nobelprize.org/prizes/physics/2015/mcdonald/facts/'
p11
aS'https://www.nobelprize.org/prizes/physics/2014/akasaki/facts/'
p12
aS'https://www.nobelprize.org/prizes/physics/2014/amano/facts/'
p13
aS'https://www.nobelprize.org/prizes/physics/2014/nakamura/facts/'
p14
aS'https://www.nobelprize.org/prizes/physics/2013/englert/facts/'
p15
aS'https://www.nobelprize.org/prizes/physics/2013/higgs/facts/'
p16
aS'https://www.nobelprize.org/prizes/physics/2012/haroche/facts/'
p17
aS'https://www.nobelprize.org/prizes/physics/2012/wineland/facts/'
p18
aS'https://www.nobelprize.org/prizes/physics/2011/perlmutter/facts/'
p19
aS'https://www.nobelprize.org/prizes/physics/2011/schmidt/facts/'
p20
aS'https://www.nobelprize.org/prizes/physics/2011/riess/facts/'
p21
aS'https://www.nobelprize.org/prizes/physics/2010/geim/facts/'
p22
aS'https://www.nobelprize.org/prizes/physics/2010/novoselov/facts/'
p23
aS'https://www.nobelprize.org/prizes/physics/2009/kao/facts/'
p24
aS'https://www.nobelprize.org/prizes/physics/2009/boyle/facts/'
p25
aS'https://www.nobelprize.org/prizes/physics/2009/smith/facts/'
p26
aS'https://www.nobelprize.org/prizes/physics/2008/nambu/facts/'
p27
aS'https://www.nobelprize.org/prizes/physics/2008/kobayashi/facts/'
p28
aS'https://www.nobelprize.org/prizes/physics/2008/maskawa/facts/'
p29
aS'https://www.nobelprize.org/prizes/physics/2007/fert/facts/'
p30
aS'https://www.nobelprize.org/prizes/physics/2007/grunberg/facts/'
p31
aS'https://www.nobelprize.org/prizes/physics/2006/mather/facts/'
p32
aS'https://www.nobelprize.org/prizes/physics/2006/smoot/facts/'
p33
aS'https://www.nobelprize.org/prizes/physics/2005/glauber/facts/'
p34
aS'https://www.nobelprize.org/prizes/physics/2005/hall/facts/'
p35
aS'https://www.nobelprize.org/prizes/physics/2005/hansch/facts/'
p36
aS'https://www.nobelprize.org/prizes/physics/2004/gross/facts/'
p37
aS'https://www.nobelprize.org/prizes/physics/2004/politzer/facts/'
p38
aS'https://www.nobelprize.org/prizes/physics/2004/wilczek/facts/'
p39
aS'https://www.nobelprize.org/prizes/physics/2003/abrikosov/facts/'
p40
aS'https://www.nobelprize.org/prizes/physics/2003/ginzburg/facts/'
p41
aS'https://www.nobelprize.org/prizes/physics/2003/leggett/facts/'
p42
aS'https://www.nobelprize.org/prizes/physics/2002/davis/facts/'
p43
aS'https://www.nobelprize.org/prizes/physics/2002/koshiba/facts/'
p44
aS'https://www.nobelprize.org/prizes/physics/2002/giacconi/facts/'
p45
aS'https://www.nobelprize.org/prizes/physics/2001/cornell/facts/'
p46
aS'https://www.nobelprize.org/prizes/physics/2001/ketterle/facts/'
p47
aS'https://www.nobelprize.org/prizes/physics/2001/wieman/facts/'
p48
aS'https://www.nobelprize.org/prizes/physics/2000/alferov/facts/'
p49
aS'https://www.nobelprize.org/prizes/physics/2000/kroemer/facts/'
p50
aS'https://www.nobelprize.org/prizes/physics/2000/kilby/facts/'
p51
aS'https://www.nobelprize.org/prizes/physics/1999/thooft/facts/'
p52
aS'https://www.nobelprize.org/prizes/physics/1999/veltman/facts/'
p53
aS'https://www.nobelprize.org/prizes/physics/1998/laughlin/facts/'
p54
aS'https://www.nobelprize.org/prizes/physics/1998/stormer/facts/'
p55
aS'https://www.nobelprize.org/prizes/physics/1998/tsui/facts/'
p56
aS'https://www.nobelprize.org/prizes/physics/1997/chu/facts/'
p57
aS'https://www.nobelprize.org/prizes/physics/1997/cohen-tannoudji/facts/'
p58
aS'https://www.nobelprize.org/prizes/physics/1997/phillips/facts/'
p59
aS'https://www.nobelprize.org/prizes/physics/1996/lee/facts/'
p60
aS'https://www.nobelprize.org/prizes/physics/1996/osheroff/facts/'
p61
aS'https://www.nobelprize.org/prizes/physics/1996/richardson/facts/'
p62
aS'https://www.nobelprize.org/prizes/physics/1995/perl/facts/'
p63
aS'https://www.nobelprize.org/prizes/physics/1995/reines/facts/'
p64
aS'https://www.nobelprize.org/prizes/physics/1994/brockhouse/facts/'
p65
aS'https://www.nobelprize.org/prizes/physics/1994/shull/facts/'
p66
aS'https://www.nobelprize.org/prizes/physics/1993/hulse/facts/'
p67
aS'https://www.nobelprize.org/prizes/physics/1993/taylor/facts/'
p68
aS'https://www.nobelprize.org/prizes/physics/1992/charpak/facts/'
p69
aS'https://www.nobelprize.org/prizes/physics/1991/gennes/facts/'
p70
aS'https://www.nobelprize.org/prizes/physics/1990/friedman/facts/'
p71
aS'https://www.nobelprize.org/prizes/physics/1990/kendall/facts/'
p72
aS'https://www.nobelprize.org/prizes/physics/1990/taylor/facts/'
p73
aS'https://www.nobelprize.org/prizes/physics/1989/ramsey/facts/'
p74
aS'https://www.nobelprize.org/prizes/physics/1989/dehmelt/facts/'
p75
aS'https://www.nobelprize.org/prizes/physics/1989/paul/facts/'
p76
aS'https://www.nobelprize.org/prizes/physics/1988/lederman/facts/'
p77
aS'https://www.nobelprize.org/prizes/physics/1988/schwartz/facts/'
p78
aS'https://www.nobelprize.org/prizes/physics/1988/steinberger/facts/'
p79
aS'https://www.nobelprize.org/prizes/physics/1987/bednorz/facts/'
p80
aS'https://www.nobelprize.org/prizes/physics/1987/muller/facts/'
p81
aS'https://www.nobelprize.org/prizes/physics/1986/ruska/facts/'
p82
aS'https://www.nobelprize.org/prizes/physics/1986/binnig/facts/'
p83
aS'https://www.nobelprize.org/prizes/physics/1986/rohrer/facts/'
p84
aS'https://www.nobelprize.org/prizes/physics/1985/klitzing/facts/'
p85
aS'https://www.nobelprize.org/prizes/physics/1984/rubbia/facts/'
p86
aS'https://www.nobelprize.org/prizes/physics/1984/meer/facts/'
p87
aS'https://www.nobelprize.org/prizes/physics/1983/chandrasekhar/facts/'
p88
aS'https://www.nobelprize.org/prizes/physics/1983/fowler/facts/'
p89
aS'https://www.nobelprize.org/prizes/physics/1982/wilson/facts/'
p90
aS'https://www.nobelprize.org/prizes/physics/1981/bloembergen/facts/'
p91
aS'https://www.nobelprize.org/prizes/physics/1981/schawlow/facts/'
p92
aS'https://www.nobelprize.org/prizes/physics/1981/siegbahn/facts/'
p93
aS'https://www.nobelprize.org/prizes/physics/1980/cronin/facts/'
p94
aS'https://www.nobelprize.org/prizes/physics/1980/fitch/facts/'
p95
aS'https://www.nobelprize.org/prizes/physics/1979/glashow/facts/'
p96
aS'https://www.nobelprize.org/prizes/physics/1979/salam/facts/'
p97
aS'https://www.nobelprize.org/prizes/physics/1979/weinberg/facts/'
p98
aS'https://www.nobelprize.org/prizes/physics/1978/kapitsa/facts/'
p99
aS'https://www.nobelprize.org/prizes/physics/1978/penzias/facts/'
p100
aS'https://www.nobelprize.org/prizes/physics/1978/wilson/facts/'
p101
aS'https://www.nobelprize.org/prizes/physics/1977/anderson/facts/'
p102
aS'https://www.nobelprize.org/prizes/physics/1977/mott/facts/'
p103
aS'https://www.nobelprize.org/prizes/physics/1977/vleck/facts/'
p104
aS'https://www.nobelprize.org/prizes/physics/1976/richter/facts/'
p105
aS'https://www.nobelprize.org/prizes/physics/1976/ting/facts/'
p106
aS'https://www.nobelprize.org/prizes/physics/1975/bohr/facts/'
p107
aS'https://www.nobelprize.org/prizes/physics/1975/mottelson/facts/'
p108
aS'https://www.nobelprize.org/prizes/physics/1975/rainwater/facts/'
p109
aS'https://www.nobelprize.org/prizes/physics/1974/ryle/facts/'
p110
aS'https://www.nobelprize.org/prizes/physics/1974/hewish/facts/'
p111
aS'https://www.nobelprize.org/prizes/physics/1973/esaki/facts/'
p112
aS'https://www.nobelprize.org/prizes/physics/1973/giaever/facts/'
p113
aS'https://www.nobelprize.org/prizes/physics/1973/josephson/facts/'
p114
aS'https://www.nobelprize.org/prizes/physics/1972/bardeen/facts/'
p115
aS'https://www.nobelprize.org/prizes/physics/1972/cooper/facts/'
p116
aS'https://www.nobelprize.org/prizes/physics/1972/schrieffer/facts/'
p117
aS'https://www.nobelprize.org/prizes/physics/1971/gabor/facts/'
p118
aS'https://www.nobelprize.org/prizes/physics/1970/alfven/facts/'
p119
aS'https://www.nobelprize.org/prizes/physics/1970/neel/facts/'
p120
aS'https://www.nobelprize.org/prizes/physics/1969/gell-mann/facts/'
p121
aS'https://www.nobelprize.org/prizes/physics/1968/alvarez/facts/'
p122
aS'https://www.nobelprize.org/prizes/physics/1967/bethe/facts/'
p123
aS'https://www.nobelprize.org/prizes/physics/1966/kastler/facts/'
p124
aS'https://www.nobelprize.org/prizes/physics/1965/tomonaga/facts/'
p125
aS'https://www.nobelprize.org/prizes/physics/1965/schwinger/facts/'
p126
aS'https://www.nobelprize.org/prizes/physics/1965/feynman/facts/'
p127
aS'https://www.nobelprize.org/prizes/physics/1964/townes/facts/'
p128
aS'https://www.nobelprize.org/prizes/physics/1964/basov/facts/'
p129
aS'https://www.nobelprize.org/prizes/physics/1964/prokhorov/facts/'
p130
aS'https://www.nobelprize.org/prizes/physics/1963/wigner/facts/'
p131
aS'https://www.nobelprize.org/prizes/physics/1963/mayer/facts/'
p132
aS'https://www.nobelprize.org/prizes/physics/1963/jensen/facts/'
p133
aS'https://www.nobelprize.org/prizes/physics/1962/landau/facts/'
p134
aS'https://www.nobelprize.org/prizes/physics/1961/hofstadter/facts/'
p135
aS'https://www.nobelprize.org/prizes/physics/1961/mossbauer/facts/'
p136
aS'https://www.nobelprize.org/prizes/physics/1960/glaser/facts/'
p137
aS'https://www.nobelprize.org/prizes/physics/1959/segre/facts/'
p138
aS'https://www.nobelprize.org/prizes/physics/1959/chamberlain/facts/'
p139
aS'https://www.nobelprize.org/prizes/physics/1958/cerenkov/facts/'
p140
aS'https://www.nobelprize.org/prizes/physics/1958/frank/facts/'
p141
aS'https://www.nobelprize.org/prizes/physics/1958/tamm/facts/'
p142
aS'https://www.nobelprize.org/prizes/physics/1957/yang/facts/'
p143
aS'https://www.nobelprize.org/prizes/physics/1957/lee/facts/'
p144
aS'https://www.nobelprize.org/prizes/physics/1956/shockley/facts/'
p145
aS'https://www.nobelprize.org/prizes/physics/1956/bardeen/facts/'
p146
aS'https://www.nobelprize.org/prizes/physics/1956/brattain/facts/'
p147
aS'https://www.nobelprize.org/prizes/physics/1955/lamb/facts/'
p148
aS'https://www.nobelprize.org/prizes/physics/1955/kusch/facts/'
p149
aS'https://www.nobelprize.org/prizes/physics/1954/born/facts/'
p150
aS'https://www.nobelprize.org/prizes/physics/1954/bothe/facts/'
p151
aS'https://www.nobelprize.org/prizes/physics/1953/zernike/facts/'
p152
aS'https://www.nobelprize.org/prizes/physics/1952/bloch/facts/'
p153
aS'https://www.nobelprize.org/prizes/physics/1952/purcell/facts/'
p154
aS'https://www.nobelprize.org/prizes/physics/1951/cockcroft/facts/'
p155
aS'https://www.nobelprize.org/prizes/physics/1951/walton/facts/'
p156
aS'https://www.nobelprize.org/prizes/physics/1950/powell/facts/'
p157
aS'https://www.nobelprize.org/prizes/physics/1949/yukawa/facts/'
p158
aS'https://www.nobelprize.org/prizes/physics/1948/blackett/facts/'
p159
aS'https://www.nobelprize.org/prizes/physics/1947/appleton/facts/'
p160
aS'https://www.nobelprize.org/prizes/physics/1946/bridgman/facts/'
p161
aS'https://www.nobelprize.org/prizes/physics/1945/pauli/facts/'
p162
aS'https://www.nobelprize.org/prizes/physics/1944/rabi/facts/'
p163
aS'https://www.nobelprize.org/prizes/physics/1943/stern/facts/'
p164
aS'https://www.nobelprize.org/prizes/physics/1939/lawrence/facts/'
p165
aS'https://www.nobelprize.org/prizes/physics/1938/fermi/facts/'
p166
aS'https://www.nobelprize.org/prizes/physics/1937/davisson/facts/'
p167
aS'https://www.nobelprize.org/prizes/physics/1937/thomson/facts/'
p168
aS'https://www.nobelprize.org/prizes/physics/1936/hess/facts/'
p169
aS'https://www.nobelprize.org/prizes/physics/1936/anderson/facts/'
p170
aS'https://www.nobelprize.org/prizes/physics/1935/chadwick/facts/'
p171
aS'https://www.nobelprize.org/prizes/physics/1933/schrodinger/facts/'
p172
aS'https://www.nobelprize.org/prizes/physics/1933/dirac/facts/'
p173
aS'https://www.nobelprize.org/prizes/physics/1932/heisenberg/facts/'
p174
aS'https://www.nobelprize.org/prizes/physics/1930/raman/facts/'
p175
aS'https://www.nobelprize.org/prizes/physics/1929/broglie/facts/'
p176
aS'https://www.nobelprize.org/prizes/physics/1928/richardson/facts/'
p177
aS'https://www.nobelprize.org/prizes/physics/1927/compton/facts/'
p178
aS'https://www.nobelprize.org/prizes/physics/1927/wilson/facts/'
p179
aS'https://www.nobelprize.org/prizes/physics/1926/perrin/facts/'
p180
aS'https://www.nobelprize.org/prizes/physics/1925/franck/facts/'
p181
aS'https://www.nobelprize.org/prizes/physics/1925/hertz/facts/'
p182
aS'https://www.nobelprize.org/prizes/physics/1924/siegbahn/facts/'
p183
aS'https://www.nobelprize.org/prizes/physics/1923/millikan/facts/'
p184
aS'https://www.nobelprize.org/prizes/physics/1922/bohr/facts/'
p185
aS'https://www.nobelprize.org/prizes/physics/1921/einstein/facts/'
p186
aS'https://www.nobelprize.org/prizes/physics/1920/guillaume/facts/'
p187
aS'https://www.nobelprize.org/prizes/physics/1919/stark/facts/'
p188
aS'https://www.nobelprize.org/prizes/physics/1918/planck/facts/'
p189
aS'https://www.nobelprize.org/prizes/physics/1917/barkla/facts/'
p190
aS'https://www.nobelprize.org/prizes/physics/1915/wh-bragg/facts/'
p191
aS'https://www.nobelprize.org/prizes/physics/1915/wl-bragg/facts/'
p192
aS'https://www.nobelprize.org/prizes/physics/1914/laue/facts/'
p193
aS'https://www.nobelprize.org/prizes/physics/1913/onnes/facts/'
p194
aS'https://www.nobelprize.org/prizes/physics/1912/dalen/facts/'
p195
aS'https://www.nobelprize.org/prizes/physics/1911/wien/facts/'
p196
aS'https://www.nobelprize.org/prizes/physics/1910/waals/facts/'
p197
aS'https://www.nobelprize.org/prizes/physics/1909/marconi/facts/'
p198
aS'https://www.nobelprize.org/prizes/physics/1909/braun/facts/'
p199
aS'https://www.nobelprize.org/prizes/physics/1908/lippmann/facts/'
p200
aS'https://www.nobelprize.org/prizes/physics/1907/michelson/facts/'
p201
aS'https://www.nobelprize.org/prizes/physics/1906/thomson/facts/'
p202
aS'https://www.nobelprize.org/prizes/physics/1905/lenard/facts/'
p203
aS'https://www.nobelprize.org/prizes/physics/1904/strutt/facts/'
p204
aS'https://www.nobelprize.org/prizes/physics/1903/becquerel/facts/'
p205
aS'https://www.nobelprize.org/prizes/physics/1903/pierre-curie/facts/'
p206
aS'https://www.nobelprize.org/prizes/physics/1903/marie-curie/facts/'
p207
aS'https://www.nobelprize.org/prizes/physics/1902/lorentz/facts/'
p208
aS'https://www.nobelprize.org/prizes/physics/1902/zeeman/facts/'
p209
aS'https://www.nobelprize.org/prizes/physics/1901/rontgen/facts/'
p210
aS'https://www.nobelprize.org/prizes/chemistry/2018/arnold/facts/'
p211
aS'https://www.nobelprize.org/prizes/chemistry/2018/smith/facts/'
p212
aS'https://www.nobelprize.org/prizes/chemistry/2018/winter/facts/'
p213
aS'https://www.nobelprize.org/prizes/chemistry/2017/dubochet/facts/'
p214
aS'https://www.nobelprize.org/prizes/chemistry/2017/frank/facts/'
p215
aS'https://www.nobelprize.org/prizes/chemistry/2017/henderson/facts/'
p216
aS'https://www.nobelprize.org/prizes/chemistry/2016/sauvage/facts/'
p217
aS'https://www.nobelprize.org/prizes/chemistry/2016/stoddart/facts/'
p218
aS'https://www.nobelprize.org/prizes/chemistry/2016/feringa/facts/'
p219
aS'https://www.nobelprize.org/prizes/chemistry/2015/lindahl/facts/'
p220
aS'https://www.nobelprize.org/prizes/chemistry/2015/modrich/facts/'
p221
aS'https://www.nobelprize.org/prizes/chemistry/2015/sancar/facts/'
p222
aS'https://www.nobelprize.org/prizes/chemistry/2014/betzig/facts/'
p223
aS'https://www.nobelprize.org/prizes/chemistry/2014/hell/facts/'
p224
aS'https://www.nobelprize.org/prizes/chemistry/2014/moerner/facts/'
p225
aS'https://www.nobelprize.org/prizes/chemistry/2013/karplus/facts/'
p226
aS'https://www.nobelprize.org/prizes/chemistry/2013/levitt/facts/'
p227
aS'https://www.nobelprize.org/prizes/chemistry/2013/warshel/facts/'
p228
aS'https://www.nobelprize.org/prizes/chemistry/2012/lefkowitz/facts/'
p229
aS'https://www.nobelprize.org/prizes/chemistry/2012/kobilka/facts/'
p230
aS'https://www.nobelprize.org/prizes/chemistry/2011/shechtman/facts/'
p231
aS'https://www.nobelprize.org/prizes/chemistry/2010/heck/facts/'
p232
aS'https://www.nobelprize.org/prizes/chemistry/2010/negishi/facts/'
p233
aS'https://www.nobelprize.org/prizes/chemistry/2010/suzuki/facts/'
p234
aS'https://www.nobelprize.org/prizes/chemistry/2009/ramakrishnan/facts/'
p235
aS'https://www.nobelprize.org/prizes/chemistry/2009/steitz/facts/'
p236
aS'https://www.nobelprize.org/prizes/chemistry/2009/yonath/facts/'
p237
aS'https://www.nobelprize.org/prizes/chemistry/2008/shimomura/facts/'
p238
aS'https://www.nobelprize.org/prizes/chemistry/2008/chalfie/facts/'
p239
aS'https://www.nobelprize.org/prizes/chemistry/2008/tsien/facts/'
p240
aS'https://www.nobelprize.org/prizes/chemistry/2007/ertl/facts/'
p241
aS'https://www.nobelprize.org/prizes/chemistry/2006/kornberg/facts/'
p242
aS'https://www.nobelprize.org/prizes/chemistry/2005/chauvin/facts/'
p243
aS'https://www.nobelprize.org/prizes/chemistry/2005/grubbs/facts/'
p244
aS'https://www.nobelprize.org/prizes/chemistry/2005/schrock/facts/'
p245
aS'https://www.nobelprize.org/prizes/chemistry/2004/ciechanover/facts/'
p246
aS'https://www.nobelprize.org/prizes/chemistry/2004/hershko/facts/'
p247
aS'https://www.nobelprize.org/prizes/chemistry/2004/rose/facts/'
p248
aS'https://www.nobelprize.org/prizes/chemistry/2003/agre/facts/'
p249
aS'https://www.nobelprize.org/prizes/chemistry/2003/mackinnon/facts/'
p250
aS'https://www.nobelprize.org/prizes/chemistry/2002/fenn/facts/'
p251
aS'https://www.nobelprize.org/prizes/chemistry/2002/tanaka/facts/'
p252
aS'https://www.nobelprize.org/prizes/chemistry/2002/wuthrich/facts/'
p253
aS'https://www.nobelprize.org/prizes/chemistry/2001/knowles/facts/'
p254
aS'https://www.nobelprize.org/prizes/chemistry/2001/noyori/facts/'
p255
aS'https://www.nobelprize.org/prizes/chemistry/2001/sharpless/facts/'
p256
aS'https://www.nobelprize.org/prizes/chemistry/2000/heeger/facts/'
p257
aS'https://www.nobelprize.org/prizes/chemistry/2000/macdiarmid/facts/'
p258
aS'https://www.nobelprize.org/prizes/chemistry/2000/shirakawa/facts/'
p259
aS'https://www.nobelprize.org/prizes/chemistry/1999/zewail/facts/'
p260
aS'https://www.nobelprize.org/prizes/chemistry/1998/kohn/facts/'
p261
aS'https://www.nobelprize.org/prizes/chemistry/1998/pople/facts/'
p262
aS'https://www.nobelprize.org/prizes/chemistry/1997/boyer/facts/'
p263
aS'https://www.nobelprize.org/prizes/chemistry/1997/walker/facts/'
p264
aS'https://www.nobelprize.org/prizes/chemistry/1997/skou/facts/'
p265
aS'https://www.nobelprize.org/prizes/chemistry/1996/curl/facts/'
p266
aS'https://www.nobelprize.org/prizes/chemistry/1996/kroto/facts/'
p267
aS'https://www.nobelprize.org/prizes/chemistry/1996/smalley/facts/'
p268
aS'https://www.nobelprize.org/prizes/chemistry/1995/crutzen/facts/'
p269
aS'https://www.nobelprize.org/prizes/chemistry/1995/molina/facts/'
p270
aS'https://www.nobelprize.org/prizes/chemistry/1995/rowland/facts/'
p271
aS'https://www.nobelprize.org/prizes/chemistry/1994/olah/facts/'
p272
aS'https://www.nobelprize.org/prizes/chemistry/1993/mullis/facts/'
p273
aS'https://www.nobelprize.org/prizes/chemistry/1993/smith/facts/'
p274
aS'https://www.nobelprize.org/prizes/chemistry/1992/marcus/facts/'
p275
aS'https://www.nobelprize.org/prizes/chemistry/1991/ernst/facts/'
p276
aS'https://www.nobelprize.org/prizes/chemistry/1990/corey/facts/'
p277
aS'https://www.nobelprize.org/prizes/chemistry/1989/altman/facts/'
p278
aS'https://www.nobelprize.org/prizes/chemistry/1989/cech/facts/'
p279
aS'https://www.nobelprize.org/prizes/chemistry/1988/deisenhofer/facts/'
p280
aS'https://www.nobelprize.org/prizes/chemistry/1988/huber/facts/'
p281
aS'https://www.nobelprize.org/prizes/chemistry/1988/michel/facts/'
p282
aS'https://www.nobelprize.org/prizes/chemistry/1987/cram/facts/'
p283
aS'https://www.nobelprize.org/prizes/chemistry/1987/lehn/facts/'
p284
aS'https://www.nobelprize.org/prizes/chemistry/1987/pedersen/facts/'
p285
aS'https://www.nobelprize.org/prizes/chemistry/1986/herschbach/facts/'
p286
aS'https://www.nobelprize.org/prizes/chemistry/1986/lee/facts/'
p287
aS'https://www.nobelprize.org/prizes/chemistry/1986/polanyi/facts/'
p288
aS'https://www.nobelprize.org/prizes/chemistry/1985/hauptman/facts/'
p289
aS'https://www.nobelprize.org/prizes/chemistry/1985/karle/facts/'
p290
aS'https://www.nobelprize.org/prizes/chemistry/1984/merrifield/facts/'
p291
aS'https://www.nobelprize.org/prizes/chemistry/1983/taube/facts/'
p292
aS'https://www.nobelprize.org/prizes/chemistry/1982/klug/facts/'
p293
aS'https://www.nobelprize.org/prizes/chemistry/1981/fukui/facts/'
p294
aS'https://www.nobelprize.org/prizes/chemistry/1981/hoffmann/facts/'
p295
aS'https://www.nobelprize.org/prizes/chemistry/1980/berg/facts/'
p296
aS'https://www.nobelprize.org/prizes/chemistry/1980/gilbert/facts/'
p297
aS'https://www.nobelprize.org/prizes/chemistry/1980/sanger/facts/'
p298
aS'https://www.nobelprize.org/prizes/chemistry/1979/brown/facts/'
p299
aS'https://www.nobelprize.org/prizes/chemistry/1979/wittig/facts/'
p300
aS'https://www.nobelprize.org/prizes/chemistry/1978/mitchell/facts/'
p301
aS'https://www.nobelprize.org/prizes/chemistry/1977/prigogine/facts/'
p302
aS'https://www.nobelprize.org/prizes/chemistry/1976/lipscomb/facts/'
p303
aS'https://www.nobelprize.org/prizes/chemistry/1975/cornforth/facts/'
p304
aS'https://www.nobelprize.org/prizes/chemistry/1975/prelog/facts/'
p305
aS'https://www.nobelprize.org/prizes/chemistry/1974/flory/facts/'
p306
aS'https://www.nobelprize.org/prizes/chemistry/1973/fischer/facts/'
p307
aS'https://www.nobelprize.org/prizes/chemistry/1973/wilkinson/facts/'
p308
aS'https://www.nobelprize.org/prizes/chemistry/1972/anfinsen/facts/'
p309
aS'https://www.nobelprize.org/prizes/chemistry/1972/moore/facts/'
p310
aS'https://www.nobelprize.org/prizes/chemistry/1972/stein/facts/'
p311
aS'https://www.nobelprize.org/prizes/chemistry/1971/herzberg/facts/'
p312
aS'https://www.nobelprize.org/prizes/chemistry/1970/leloir/facts/'
p313
aS'https://www.nobelprize.org/prizes/chemistry/1969/barton/facts/'
p314
aS'https://www.nobelprize.org/prizes/chemistry/1969/hassel/facts/'
p315
aS'https://www.nobelprize.org/prizes/chemistry/1968/onsager/facts/'
p316
aS'https://www.nobelprize.org/prizes/chemistry/1967/eigen/facts/'
p317
aS'https://www.nobelprize.org/prizes/chemistry/1967/norrish/facts/'
p318
aS'https://www.nobelprize.org/prizes/chemistry/1967/porter/facts/'
p319
aS'https://www.nobelprize.org/prizes/chemistry/1966/mulliken/facts/'
p320
aS'https://www.nobelprize.org/prizes/chemistry/1965/woodward/facts/'
p321
aS'https://www.nobelprize.org/prizes/chemistry/1964/hodgkin/facts/'
p322
aS'https://www.nobelprize.org/prizes/chemistry/1963/ziegler/facts/'
p323
aS'https://www.nobelprize.org/prizes/chemistry/1963/natta/facts/'
p324
aS'https://www.nobelprize.org/prizes/chemistry/1962/perutz/facts/'
p325
aS'https://www.nobelprize.org/prizes/chemistry/1962/kendrew/facts/'
p326
aS'https://www.nobelprize.org/prizes/chemistry/1961/calvin/facts/'
p327
aS'https://www.nobelprize.org/prizes/chemistry/1960/libby/facts/'
p328
aS'https://www.nobelprize.org/prizes/chemistry/1959/heyrovsky/facts/'
p329
aS'https://www.nobelprize.org/prizes/chemistry/1958/sanger/facts/'
p330
aS'https://www.nobelprize.org/prizes/chemistry/1957/todd/facts/'
p331
aS'https://www.nobelprize.org/prizes/chemistry/1956/hinshelwood/facts/'
p332
aS'https://www.nobelprize.org/prizes/chemistry/1956/semenov/facts/'
p333
aS'https://www.nobelprize.org/prizes/chemistry/1955/vigneaud/facts/'
p334
aS'https://www.nobelprize.org/prizes/chemistry/1954/pauling/facts/'
p335
aS'https://www.nobelprize.org/prizes/chemistry/1953/staudinger/facts/'
p336
aS'https://www.nobelprize.org/prizes/chemistry/1952/martin/facts/'
p337
aS'https://www.nobelprize.org/prizes/chemistry/1952/synge/facts/'
p338
aS'https://www.nobelprize.org/prizes/chemistry/1951/mcmillan/facts/'
p339
aS'https://www.nobelprize.org/prizes/chemistry/1951/seaborg/facts/'
p340
aS'https://www.nobelprize.org/prizes/chemistry/1950/diels/facts/'
p341
aS'https://www.nobelprize.org/prizes/chemistry/1950/alder/facts/'
p342
aS'https://www.nobelprize.org/prizes/chemistry/1949/giauque/facts/'
p343
aS'https://www.nobelprize.org/prizes/chemistry/1948/tiselius/facts/'
p344
aS'https://www.nobelprize.org/prizes/chemistry/1947/robinson/facts/'
p345
aS'https://www.nobelprize.org/prizes/chemistry/1946/sumner/facts/'
p346
aS'https://www.nobelprize.org/prizes/chemistry/1946/northrop/facts/'
p347
aS'https://www.nobelprize.org/prizes/chemistry/1946/stanley/facts/'
p348
aS'https://www.nobelprize.org/prizes/chemistry/1945/virtanen/facts/'
p349
aS'https://www.nobelprize.org/prizes/chemistry/1944/hahn/facts/'
p350
aS'https://www.nobelprize.org/prizes/chemistry/1943/hevesy/facts/'
p351
aS'https://www.nobelprize.org/prizes/chemistry/1939/butenandt/facts/'
p352
aS'https://www.nobelprize.org/prizes/chemistry/1939/ruzicka/facts/'
p353
aS'https://www.nobelprize.org/prizes/chemistry/1938/kuhn/facts/'
p354
aS'https://www.nobelprize.org/prizes/chemistry/1937/haworth/facts/'
p355
aS'https://www.nobelprize.org/prizes/chemistry/1937/karrer/facts/'
p356
aS'https://www.nobelprize.org/prizes/chemistry/1936/debye/facts/'
p357
aS'https://www.nobelprize.org/prizes/chemistry/1935/joliot-fred/facts/'
p358
aS'https://www.nobelprize.org/prizes/chemistry/1935/joliot-curie/facts/'
p359
aS'https://www.nobelprize.org/prizes/chemistry/1934/urey/facts/'
p360
aS'https://www.nobelprize.org/prizes/chemistry/1932/langmuir/facts/'
p361
aS'https://www.nobelprize.org/prizes/chemistry/1931/bosch/facts/'
p362
aS'https://www.nobelprize.org/prizes/chemistry/1931/bergius/facts/'
p363
aS'https://www.nobelprize.org/prizes/chemistry/1930/fischer/facts/'
p364
aS'https://www.nobelprize.org/prizes/chemistry/1929/harden/facts/'
p365
aS'https://www.nobelprize.org/prizes/chemistry/1929/euler-chelpin/facts/'
p366
aS'https://www.nobelprize.org/prizes/chemistry/1928/windaus/facts/'
p367
aS'https://www.nobelprize.org/prizes/chemistry/1927/wieland/facts/'
p368
aS'https://www.nobelprize.org/prizes/chemistry/1926/svedberg/facts/'
p369
aS'https://www.nobelprize.org/prizes/chemistry/1925/zsigmondy/facts/'
p370
aS'https://www.nobelprize.org/prizes/chemistry/1923/pregl/facts/'
p371
aS'https://www.nobelprize.org/prizes/chemistry/1922/aston/facts/'
p372
aS'https://www.nobelprize.org/prizes/chemistry/1921/soddy/facts/'
p373
aS'https://www.nobelprize.org/prizes/chemistry/1920/nernst/facts/'
p374
aS'https://www.nobelprize.org/prizes/chemistry/1918/haber/facts/'
p375
aS'https://www.nobelprize.org/prizes/chemistry/1915/willstatter/facts/'
p376
aS'https://www.nobelprize.org/prizes/chemistry/1914/richards/facts/'
p377
aS'https://www.nobelprize.org/prizes/chemistry/1913/werner/facts/'
p378
aS'https://www.nobelprize.org/prizes/chemistry/1912/grignard/facts/'
p379
aS'https://www.nobelprize.org/prizes/chemistry/1912/sabatier/facts/'
p380
aS'https://www.nobelprize.org/prizes/chemistry/1911/marie-curie/facts/'
p381
aS'https://www.nobelprize.org/prizes/chemistry/1910/wallach/facts/'
p382
aS'https://www.nobelprize.org/prizes/chemistry/1909/ostwald/facts/'
p383
aS'https://www.nobelprize.org/prizes/chemistry/1908/rutherford/facts/'
p384
aS'https://www.nobelprize.org/prizes/chemistry/1907/buchner/facts/'
p385
aS'https://www.nobelprize.org/prizes/chemistry/1906/moissan/facts/'
p386
aS'https://www.nobelprize.org/prizes/chemistry/1905/baeyer/facts/'
p387
aS'https://www.nobelprize.org/prizes/chemistry/1904/ramsay/facts/'
p388
aS'https://www.nobelprize.org/prizes/chemistry/1903/arrhenius/facts/'
p389
aS'https://www.nobelprize.org/prizes/chemistry/1902/fischer/facts/'
p390
aS'https://www.nobelprize.org/prizes/chemistry/1901/hoff/facts/'
p391
aS'https://www.nobelprize.org/prizes/medicine/2018/allison/facts/'
p392
aS'https://www.nobelprize.org/prizes/medicine/2018/honjo/facts/'
p393
aS'https://www.nobelprize.org/prizes/medicine/2017/hall/facts/'
p394
aS'https://www.nobelprize.org/prizes/medicine/2017/rosbash/facts/'
p395
aS'https://www.nobelprize.org/prizes/medicine/2017/young/facts/'
p396
aS'https://www.nobelprize.org/prizes/medicine/2016/ohsumi/facts/'
p397
aS'https://www.nobelprize.org/prizes/medicine/2015/campbell/facts/'
p398
aS'https://www.nobelprize.org/prizes/medicine/2015/omura/facts/'
p399
aS'https://www.nobelprize.org/prizes/medicine/2015/tu/facts/'
p400
aS'https://www.nobelprize.org/prizes/medicine/2014/okeefe/facts/'
p401
aS'https://www.nobelprize.org/prizes/medicine/2014/may-britt-moser/facts/'
p402
aS'https://www.nobelprize.org/prizes/medicine/2014/edvard-moser/facts/'
p403
aS'https://www.nobelprize.org/prizes/medicine/2013/rothman/facts/'
p404
aS'https://www.nobelprize.org/prizes/medicine/2013/schekman/facts/'
p405
aS'https://www.nobelprize.org/prizes/medicine/2013/sudhof/facts/'
p406
aS'https://www.nobelprize.org/prizes/medicine/2012/gurdon/facts/'
p407
aS'https://www.nobelprize.org/prizes/medicine/2012/yamanaka/facts/'
p408
aS'https://www.nobelprize.org/prizes/medicine/2011/beutler/facts/'
p409
aS'https://www.nobelprize.org/prizes/medicine/2011/hoffmann/facts/'
p410
aS'https://www.nobelprize.org/prizes/medicine/2011/steinman/facts/'
p411
aS'https://www.nobelprize.org/prizes/medicine/2010/edwards/facts/'
p412
aS'https://www.nobelprize.org/prizes/medicine/2009/blackburn/facts/'
p413
aS'https://www.nobelprize.org/prizes/medicine/2009/greider/facts/'
p414
aS'https://www.nobelprize.org/prizes/medicine/2009/szostak/facts/'
p415
aS'https://www.nobelprize.org/prizes/medicine/2008/hausen/facts/'
p416
aS'https://www.nobelprize.org/prizes/medicine/2008/barre-sinoussi/facts/'
p417
aS'https://www.nobelprize.org/prizes/medicine/2008/montagnier/facts/'
p418
aS'https://www.nobelprize.org/prizes/medicine/2007/capecchi/facts/'
p419
aS'https://www.nobelprize.org/prizes/medicine/2007/evans/facts/'
p420
aS'https://www.nobelprize.org/prizes/medicine/2007/smithies/facts/'
p421
aS'https://www.nobelprize.org/prizes/medicine/2006/fire/facts/'
p422
aS'https://www.nobelprize.org/prizes/medicine/2006/mello/facts/'
p423
aS'https://www.nobelprize.org/prizes/medicine/2005/marshall/facts/'
p424
aS'https://www.nobelprize.org/prizes/medicine/2005/warren/facts/'
p425
aS'https://www.nobelprize.org/prizes/medicine/2004/axel/facts/'
p426
aS'https://www.nobelprize.org/prizes/medicine/2004/buck/facts/'
p427
aS'https://www.nobelprize.org/prizes/medicine/2003/lauterbur/facts/'
p428
aS'https://www.nobelprize.org/prizes/medicine/2003/mansfield/facts/'
p429
aS'https://www.nobelprize.org/prizes/medicine/2002/brenner/facts/'
p430
aS'https://www.nobelprize.org/prizes/medicine/2002/horvitz/facts/'
p431
aS'https://www.nobelprize.org/prizes/medicine/2002/sulston/facts/'
p432
aS'https://www.nobelprize.org/prizes/medicine/2001/hartwell/facts/'
p433
aS'https://www.nobelprize.org/prizes/medicine/2001/hunt/facts/'
p434
aS'https://www.nobelprize.org/prizes/medicine/2001/nurse/facts/'
p435
aS'https://www.nobelprize.org/prizes/medicine/2000/carlsson/facts/'
p436
aS'https://www.nobelprize.org/prizes/medicine/2000/greengard/facts/'
p437
aS'https://www.nobelprize.org/prizes/medicine/2000/kandel/facts/'
p438
aS'https://www.nobelprize.org/prizes/medicine/1999/blobel/facts/'
p439
aS'https://www.nobelprize.org/prizes/medicine/1998/furchgott/facts/'
p440
aS'https://www.nobelprize.org/prizes/medicine/1998/ignarro/facts/'
p441
aS'https://www.nobelprize.org/prizes/medicine/1998/murad/facts/'
p442
aS'https://www.nobelprize.org/prizes/medicine/1997/prusiner/facts/'
p443
aS'https://www.nobelprize.org/prizes/medicine/1996/doherty/facts/'
p444
aS'https://www.nobelprize.org/prizes/medicine/1996/zinkernagel/facts/'
p445
aS'https://www.nobelprize.org/prizes/medicine/1995/lewis/facts/'
p446
aS'https://www.nobelprize.org/prizes/medicine/1995/nusslein-volhard/facts/'
p447
aS'https://www.nobelprize.org/prizes/medicine/1995/wieschaus/facts/'
p448
aS'https://www.nobelprize.org/prizes/medicine/1994/gilman/facts/'
p449
aS'https://www.nobelprize.org/prizes/medicine/1994/rodbell/facts/'
p450
aS'https://www.nobelprize.org/prizes/medicine/1993/roberts/facts/'
p451
aS'https://www.nobelprize.org/prizes/medicine/1993/sharp/facts/'
p452
aS'https://www.nobelprize.org/prizes/medicine/1992/fischer/facts/'
p453
aS'https://www.nobelprize.org/prizes/medicine/1992/krebs/facts/'
p454
aS'https://www.nobelprize.org/prizes/medicine/1991/neher/facts/'
p455
aS'https://www.nobelprize.org/prizes/medicine/1991/sakmann/facts/'
p456
aS'https://www.nobelprize.org/prizes/medicine/1990/murray/facts/'
p457
aS'https://www.nobelprize.org/prizes/medicine/1990/thomas/facts/'
p458
aS'https://www.nobelprize.org/prizes/medicine/1989/bishop/facts/'
p459
aS'https://www.nobelprize.org/prizes/medicine/1989/varmus/facts/'
p460
aS'https://www.nobelprize.org/prizes/medicine/1988/black/facts/'
p461
aS'https://www.nobelprize.org/prizes/medicine/1988/elion/facts/'
p462
aS'https://www.nobelprize.org/prizes/medicine/1988/hitchings/facts/'
p463
aS'https://www.nobelprize.org/prizes/medicine/1987/tonegawa/facts/'
p464
aS'https://www.nobelprize.org/prizes/medicine/1986/cohen/facts/'
p465
aS'https://www.nobelprize.org/prizes/medicine/1986/levi-montalcini/facts/'
p466
aS'https://www.nobelprize.org/prizes/medicine/1985/brown/facts/'
p467
aS'https://www.nobelprize.org/prizes/medicine/1985/goldstein/facts/'
p468
aS'https://www.nobelprize.org/prizes/medicine/1984/jerne/facts/'
p469
aS'https://www.nobelprize.org/prizes/medicine/1984/kohler/facts/'
p470
aS'https://www.nobelprize.org/prizes/medicine/1984/milstein/facts/'
p471
aS'https://www.nobelprize.org/prizes/medicine/1983/mcclintock/facts/'
p472
aS'https://www.nobelprize.org/prizes/medicine/1982/bergstrom/facts/'
p473
aS'https://www.nobelprize.org/prizes/medicine/1982/samuelsson/facts/'
p474
aS'https://www.nobelprize.org/prizes/medicine/1982/vane/facts/'
p475
aS'https://www.nobelprize.org/prizes/medicine/1981/sperry/facts/'
p476
aS'https://www.nobelprize.org/prizes/medicine/1981/hubel/facts/'
p477
aS'https://www.nobelprize.org/prizes/medicine/1981/wiesel/facts/'
p478
aS'https://www.nobelprize.org/prizes/medicine/1980/benacerraf/facts/'
p479
aS'https://www.nobelprize.org/prizes/medicine/1980/dausset/facts/'
p480
aS'https://www.nobelprize.org/prizes/medicine/1980/snell/facts/'
p481
aS'https://www.nobelprize.org/prizes/medicine/1979/cormack/facts/'
p482
aS'https://www.nobelprize.org/prizes/medicine/1979/hounsfield/facts/'
p483
aS'https://www.nobelprize.org/prizes/medicine/1978/arber/facts/'
p484
aS'https://www.nobelprize.org/prizes/medicine/1978/nathans/facts/'
p485
aS'https://www.nobelprize.org/prizes/medicine/1978/smith/facts/'
p486
aS'https://www.nobelprize.org/prizes/medicine/1977/guillemin/facts/'
p487
aS'https://www.nobelprize.org/prizes/medicine/1977/schally/facts/'
p488
aS'https://www.nobelprize.org/prizes/medicine/1977/yalow/facts/'
p489
aS'https://www.nobelprize.org/prizes/medicine/1976/blumberg/facts/'
p490
aS'https://www.nobelprize.org/prizes/medicine/1976/gajdusek/facts/'
p491
aS'https://www.nobelprize.org/prizes/medicine/1975/baltimore/facts/'
p492
aS'https://www.nobelprize.org/prizes/medicine/1975/dulbecco/facts/'
p493
aS'https://www.nobelprize.org/prizes/medicine/1975/temin/facts/'
p494
aS'https://www.nobelprize.org/prizes/medicine/1974/claude/facts/'
p495
aS'https://www.nobelprize.org/prizes/medicine/1974/duve/facts/'
p496
aS'https://www.nobelprize.org/prizes/medicine/1974/palade/facts/'
p497
aS'https://www.nobelprize.org/prizes/medicine/1973/frisch/facts/'
p498
aS'https://www.nobelprize.org/prizes/medicine/1973/lorenz/facts/'
p499
aS'https://www.nobelprize.org/prizes/medicine/1973/tinbergen/facts/'
p500
aS'https://www.nobelprize.org/prizes/medicine/1972/edelman/facts/'
p501
aS'https://www.nobelprize.org/prizes/medicine/1972/porter/facts/'
p502
aS'https://www.nobelprize.org/prizes/medicine/1971/sutherland/facts/'
p503
aS'https://www.nobelprize.org/prizes/medicine/1970/katz/facts/'
p504
aS'https://www.nobelprize.org/prizes/medicine/1970/euler/facts/'
p505
aS'https://www.nobelprize.org/prizes/medicine/1970/axelrod/facts/'
p506
aS'https://www.nobelprize.org/prizes/medicine/1969/delbruck/facts/'
p507
aS'https://www.nobelprize.org/prizes/medicine/1969/hershey/facts/'
p508
aS'https://www.nobelprize.org/prizes/medicine/1969/luria/facts/'
p509
aS'https://www.nobelprize.org/prizes/medicine/1968/holley/facts/'
p510
aS'https://www.nobelprize.org/prizes/medicine/1968/khorana/facts/'
p511
aS'https://www.nobelprize.org/prizes/medicine/1968/nirenberg/facts/'
p512
aS'https://www.nobelprize.org/prizes/medicine/1967/granit/facts/'
p513
aS'https://www.nobelprize.org/prizes/medicine/1967/hartline/facts/'
p514
aS'https://www.nobelprize.org/prizes/medicine/1967/wald/facts/'
p515
aS'https://www.nobelprize.org/prizes/medicine/1966/rous/facts/'
p516
aS'https://www.nobelprize.org/prizes/medicine/1966/huggins/facts/'
p517
aS'https://www.nobelprize.org/prizes/medicine/1965/jacob/facts/'
p518
aS'https://www.nobelprize.org/prizes/medicine/1965/lwoff/facts/'
p519
aS'https://www.nobelprize.org/prizes/medicine/1965/monod/facts/'
p520
aS'https://www.nobelprize.org/prizes/medicine/1964/bloch/facts/'
p521
aS'https://www.nobelprize.org/prizes/medicine/1964/lynen/facts/'
p522
aS'https://www.nobelprize.org/prizes/medicine/1963/eccles/facts/'
p523
aS'https://www.nobelprize.org/prizes/medicine/1963/hodgkin/facts/'
p524
aS'https://www.nobelprize.org/prizes/medicine/1963/huxley/facts/'
p525
aS'https://www.nobelprize.org/prizes/medicine/1962/crick/facts/'
p526
aS'https://www.nobelprize.org/prizes/medicine/1962/watson/facts/'
p527
aS'https://www.nobelprize.org/prizes/medicine/1962/wilkins/facts/'
p528
aS'https://www.nobelprize.org/prizes/medicine/1961/bekesy/facts/'
p529
aS'https://www.nobelprize.org/prizes/medicine/1960/burnet/facts/'
p530
aS'https://www.nobelprize.org/prizes/medicine/1960/medawar/facts/'
p531
aS'https://www.nobelprize.org/prizes/medicine/1959/ochoa/facts/'
p532
aS'https://www.nobelprize.org/prizes/medicine/1959/kornberg/facts/'
p533
aS'https://www.nobelprize.org/prizes/medicine/1958/beadle/facts/'
p534
aS'https://www.nobelprize.org/prizes/medicine/1958/tatum/facts/'
p535
aS'https://www.nobelprize.org/prizes/medicine/1958/lederberg/facts/'
p536
aS'https://www.nobelprize.org/prizes/medicine/1957/bovet/facts/'
p537
aS'https://www.nobelprize.org/prizes/medicine/1956/cournand/facts/'
p538
aS'https://www.nobelprize.org/prizes/medicine/1956/forssmann/facts/'
p539
aS'https://www.nobelprize.org/prizes/medicine/1956/richards/facts/'
p540
aS'https://www.nobelprize.org/prizes/medicine/1955/theorell/facts/'
p541
aS'https://www.nobelprize.org/prizes/medicine/1954/enders/facts/'
p542
aS'https://www.nobelprize.org/prizes/medicine/1954/weller/facts/'
p543
aS'https://www.nobelprize.org/prizes/medicine/1954/robbins/facts/'
p544
aS'https://www.nobelprize.org/prizes/medicine/1953/krebs/facts/'
p545
aS'https://www.nobelprize.org/prizes/medicine/1953/lipmann/facts/'
p546
aS'https://www.nobelprize.org/prizes/medicine/1952/waksman/facts/'
p547
aS'https://www.nobelprize.org/prizes/medicine/1951/theiler/facts/'
p548
aS'https://www.nobelprize.org/prizes/medicine/1950/kendall/facts/'
p549
aS'https://www.nobelprize.org/prizes/medicine/1950/reichstein/facts/'
p550
aS'https://www.nobelprize.org/prizes/medicine/1950/hench/facts/'
p551
aS'https://www.nobelprize.org/prizes/medicine/1949/hess/facts/'
p552
aS'https://www.nobelprize.org/prizes/medicine/1949/moniz/facts/'
p553
aS'https://www.nobelprize.org/prizes/medicine/1948/muller/facts/'
p554
aS'https://www.nobelprize.org/prizes/medicine/1947/cori-cf/facts/'
p555
aS'https://www.nobelprize.org/prizes/medicine/1947/cori-gt/facts/'
p556
aS'https://www.nobelprize.org/prizes/medicine/1947/houssay/facts/'
p557
aS'https://www.nobelprize.org/prizes/medicine/1946/muller/facts/'
p558
aS'https://www.nobelprize.org/prizes/medicine/1945/fleming/facts/'
p559
aS'https://www.nobelprize.org/prizes/medicine/1945/chain/facts/'
p560
aS'https://www.nobelprize.org/prizes/medicine/1945/florey/facts/'
p561
aS'https://www.nobelprize.org/prizes/medicine/1944/erlanger/facts/'
p562
aS'https://www.nobelprize.org/prizes/medicine/1944/gasser/facts/'
p563
aS'https://www.nobelprize.org/prizes/medicine/1943/dam/facts/'
p564
aS'https://www.nobelprize.org/prizes/medicine/1943/doisy/facts/'
p565
aS'https://www.nobelprize.org/prizes/medicine/1939/domagk/facts/'
p566
aS'https://www.nobelprize.org/prizes/medicine/1938/heymans/facts/'
p567
aS'https://www.nobelprize.org/prizes/medicine/1937/szent-gyorgyi/facts/'
p568
aS'https://www.nobelprize.org/prizes/medicine/1936/dale/facts/'
p569
aS'https://www.nobelprize.org/prizes/medicine/1936/loewi/facts/'
p570
aS'https://www.nobelprize.org/prizes/medicine/1935/spemann/facts/'
p571
aS'https://www.nobelprize.org/prizes/medicine/1934/whipple/facts/'
p572
aS'https://www.nobelprize.org/prizes/medicine/1934/minot/facts/'
p573
aS'https://www.nobelprize.org/prizes/medicine/1934/murphy/facts/'
p574
aS'https://www.nobelprize.org/prizes/medicine/1933/morgan/facts/'
p575
aS'https://www.nobelprize.org/prizes/medicine/1932/sherrington/facts/'
p576
aS'https://www.nobelprize.org/prizes/medicine/1932/adrian/facts/'
p577
aS'https://www.nobelprize.org/prizes/medicine/1931/warburg/facts/'
p578
aS'https://www.nobelprize.org/prizes/medicine/1930/landsteiner/facts/'
p579
aS'https://www.nobelprize.org/prizes/medicine/1929/eijkman/facts/'
p580
aS'https://www.nobelprize.org/prizes/medicine/1929/hopkins/facts/'
p581
aS'https://www.nobelprize.org/prizes/medicine/1928/nicolle/facts/'
p582
aS'https://www.nobelprize.org/prizes/medicine/1927/wagner-jauregg/facts/'
p583
aS'https://www.nobelprize.org/prizes/medicine/1926/fibiger/facts/'
p584
aS'https://www.nobelprize.org/prizes/medicine/1924/einthoven/facts/'
p585
aS'https://www.nobelprize.org/prizes/medicine/1923/banting/facts/'
p586
aS'https://www.nobelprize.org/prizes/medicine/1923/macleod/facts/'
p587
aS'https://www.nobelprize.org/prizes/medicine/1922/hill/facts/'
p588
aS'https://www.nobelprize.org/prizes/medicine/1922/meyerhof/facts/'
p589
aS'https://www.nobelprize.org/prizes/medicine/1920/krogh/facts/'
p590
aS'https://www.nobelprize.org/prizes/medicine/1919/bordet/facts/'
p591
aS'https://www.nobelprize.org/prizes/medicine/1914/barany/facts/'
p592
aS'https://www.nobelprize.org/prizes/medicine/1913/richet/facts/'
p593
aS'https://www.nobelprize.org/prizes/medicine/1912/carrel/facts/'
p594
aS'https://www.nobelprize.org/prizes/medicine/1911/gullstrand/facts/'
p595
aS'https://www.nobelprize.org/prizes/medicine/1910/kossel/facts/'
p596
aS'https://www.nobelprize.org/prizes/medicine/1909/kocher/facts/'
p597
aS'https://www.nobelprize.org/prizes/medicine/1908/mechnikov/facts/'
p598
aS'https://www.nobelprize.org/prizes/medicine/1908/ehrlich/facts/'
p599
aS'https://www.nobelprize.org/prizes/medicine/1907/laveran/facts/'
p600
aS'https://www.nobelprize.org/prizes/medicine/1906/golgi/facts/'
p601
aS'https://www.nobelprize.org/prizes/medicine/1906/cajal/facts/'
p602
aS'https://www.nobelprize.org/prizes/medicine/1905/koch/facts/'
p603
aS'https://www.nobelprize.org/prizes/medicine/1904/pavlov/facts/'
p604
aS'https://www.nobelprize.org/prizes/medicine/1903/finsen/facts/'
p605
aS'https://www.nobelprize.org/prizes/medicine/1902/ross/facts/'
p606
aS'https://www.nobelprize.org/prizes/medicine/1901/behring/facts/'
p607
aS'https://www.nobelprize.org/prizes/literature/2017/ishiguro/facts/'
p608
aS'https://www.nobelprize.org/prizes/literature/2016/dylan/facts/'
p609
aS'https://www.nobelprize.org/prizes/literature/2015/alexievich/facts/'
p610
aS'https://www.nobelprize.org/prizes/literature/2014/modiano/facts/'
p611
aS'https://www.nobelprize.org/prizes/literature/2013/munro/facts/'
p612
aS'https://www.nobelprize.org/prizes/literature/2012/yan/facts/'
p613
aS'https://www.nobelprize.org/prizes/literature/2011/transtromer/facts/'
p614
aS'https://www.nobelprize.org/prizes/literature/2010/vargas_llosa/facts/'
p615
aS'https://www.nobelprize.org/prizes/literature/2009/muller/facts/'
p616
aS'https://www.nobelprize.org/prizes/literature/2008/clezio/facts/'
p617
aS'https://www.nobelprize.org/prizes/literature/2007/lessing/facts/'
p618
aS'https://www.nobelprize.org/prizes/literature/2006/pamuk/facts/'
p619
aS'https://www.nobelprize.org/prizes/literature/2005/pinter/facts/'
p620
aS'https://www.nobelprize.org/prizes/literature/2004/jelinek/facts/'
p621
aS'https://www.nobelprize.org/prizes/literature/2003/coetzee/facts/'
p622
aS'https://www.nobelprize.org/prizes/literature/2002/kertesz/facts/'
p623
aS'https://www.nobelprize.org/prizes/literature/2001/naipaul/facts/'
p624
aS'https://www.nobelprize.org/prizes/literature/2000/gao/facts/'
p625
aS'https://www.nobelprize.org/prizes/literature/1999/grass/facts/'
p626
aS'https://www.nobelprize.org/prizes/literature/1998/saramago/facts/'
p627
aS'https://www.nobelprize.org/prizes/literature/1997/fo/facts/'
p628
aS'https://www.nobelprize.org/prizes/literature/1996/szymborska/facts/'
p629
aS'https://www.nobelprize.org/prizes/literature/1995/heaney/facts/'
p630
aS'https://www.nobelprize.org/prizes/literature/1994/oe/facts/'
p631
aS'https://www.nobelprize.org/prizes/literature/1993/morrison/facts/'
p632
aS'https://www.nobelprize.org/prizes/literature/1992/walcott/facts/'
p633
aS'https://www.nobelprize.org/prizes/literature/1991/gordimer/facts/'
p634
aS'https://www.nobelprize.org/prizes/literature/1990/paz/facts/'
p635
aS'https://www.nobelprize.org/prizes/literature/1989/cela/facts/'
p636
aS'https://www.nobelprize.org/prizes/literature/1988/mahfouz/facts/'
p637
aS'https://www.nobelprize.org/prizes/literature/1987/brodsky/facts/'
p638
aS'https://www.nobelprize.org/prizes/literature/1986/soyinka/facts/'
p639
aS'https://www.nobelprize.org/prizes/literature/1985/simon/facts/'
p640
aS'https://www.nobelprize.org/prizes/literature/1984/seifert/facts/'
p641
aS'https://www.nobelprize.org/prizes/literature/1983/golding/facts/'
p642
aS'https://www.nobelprize.org/prizes/literature/1982/marquez/facts/'
p643
aS'https://www.nobelprize.org/prizes/literature/1981/canetti/facts/'
p644
aS'https://www.nobelprize.org/prizes/literature/1980/milosz/facts/'
p645
aS'https://www.nobelprize.org/prizes/literature/1979/elytis/facts/'
p646
aS'https://www.nobelprize.org/prizes/literature/1978/singer/facts/'
p647
aS'https://www.nobelprize.org/prizes/literature/1977/aleixandre/facts/'
p648
aS'https://www.nobelprize.org/prizes/literature/1976/bellow/facts/'
p649
aS'https://www.nobelprize.org/prizes/literature/1975/montale/facts/'
p650
aS'https://www.nobelprize.org/prizes/literature/1974/johnson/facts/'
p651
aS'https://www.nobelprize.org/prizes/literature/1974/martinson/facts/'
p652
aS'https://www.nobelprize.org/prizes/literature/1973/white/facts/'
p653
aS'https://www.nobelprize.org/prizes/literature/1972/boll/facts/'
p654
aS'https://www.nobelprize.org/prizes/literature/1971/neruda/facts/'
p655
aS'https://www.nobelprize.org/prizes/literature/1970/solzhenitsyn/facts/'
p656
aS'https://www.nobelprize.org/prizes/literature/1969/beckett/facts/'
p657
aS'https://www.nobelprize.org/prizes/literature/1968/kawabata/facts/'
p658
aS'https://www.nobelprize.org/prizes/literature/1967/asturias/facts/'
p659
aS'https://www.nobelprize.org/prizes/literature/1966/agnon/facts/'
p660
aS'https://www.nobelprize.org/prizes/literature/1966/sachs/facts/'
p661
aS'https://www.nobelprize.org/prizes/literature/1965/sholokhov/facts/'
p662
aS'https://www.nobelprize.org/prizes/literature/1964/sartre/facts/'
p663
aS'https://www.nobelprize.org/prizes/literature/1963/seferis/facts/'
p664
aS'https://www.nobelprize.org/prizes/literature/1962/steinbeck/facts/'
p665
aS'https://www.nobelprize.org/prizes/literature/1961/andric/facts/'
p666
aS'https://www.nobelprize.org/prizes/literature/1960/perse/facts/'
p667
aS'https://www.nobelprize.org/prizes/literature/1959/quasimodo/facts/'
p668
aS'https://www.nobelprize.org/prizes/literature/1958/pasternak/facts/'
p669
aS'https://www.nobelprize.org/prizes/literature/1957/camus/facts/'
p670
aS'https://www.nobelprize.org/prizes/literature/1956/jimenez/facts/'
p671
aS'https://www.nobelprize.org/prizes/literature/1955/laxness/facts/'
p672
aS'https://www.nobelprize.org/prizes/literature/1954/hemingway/facts/'
p673
aS'https://www.nobelprize.org/prizes/literature/1953/churchill/facts/'
p674
aS'https://www.nobelprize.org/prizes/literature/1952/mauriac/facts/'
p675
aS'https://www.nobelprize.org/prizes/literature/1951/lagerkvist/facts/'
p676
aS'https://www.nobelprize.org/prizes/literature/1950/russell/facts/'
p677
aS'https://www.nobelprize.org/prizes/literature/1949/faulkner/facts/'
p678
aS'https://www.nobelprize.org/prizes/literature/1948/eliot/facts/'
p679
aS'https://www.nobelprize.org/prizes/literature/1947/gide/facts/'
p680
aS'https://www.nobelprize.org/prizes/literature/1946/hesse/facts/'
p681
aS'https://www.nobelprize.org/prizes/literature/1945/mistral/facts/'
p682
aS'https://www.nobelprize.org/prizes/literature/1944/jensen/facts/'
p683
aS'https://www.nobelprize.org/prizes/literature/1939/sillanpaa/facts/'
p684
aS'https://www.nobelprize.org/prizes/literature/1938/buck/facts/'
p685
aS'https://www.nobelprize.org/prizes/literature/1937/gard/facts/'
p686
aS'https://www.nobelprize.org/prizes/literature/1936/oneill/facts/'
p687
aS'https://www.nobelprize.org/prizes/literature/1934/pirandello/facts/'
p688
aS'https://www.nobelprize.org/prizes/literature/1933/bunin/facts/'
p689
aS'https://www.nobelprize.org/prizes/literature/1932/galsworthy/facts/'
p690
aS'https://www.nobelprize.org/prizes/literature/1931/karlfeldt/facts/'
p691
aS'https://www.nobelprize.org/prizes/literature/1930/lewis/facts/'
p692
aS'https://www.nobelprize.org/prizes/literature/1929/mann/facts/'
p693
aS'https://www.nobelprize.org/prizes/literature/1928/undset/facts/'
p694
aS'https://www.nobelprize.org/prizes/literature/1927/bergson/facts/'
p695
aS'https://www.nobelprize.org/prizes/literature/1926/deledda/facts/'
p696
aS'https://www.nobelprize.org/prizes/literature/1925/shaw/facts/'
p697
aS'https://www.nobelprize.org/prizes/literature/1924/reymont/facts/'
p698
aS'https://www.nobelprize.org/prizes/literature/1923/yeats/facts/'
p699
aS'https://www.nobelprize.org/prizes/literature/1922/benavente/facts/'
p700
aS'https://www.nobelprize.org/prizes/literature/1921/france/facts/'
p701
aS'https://www.nobelprize.org/prizes/literature/1920/hamsun/facts/'
p702
aS'https://www.nobelprize.org/prizes/literature/1919/spitteler/facts/'
p703
aS'https://www.nobelprize.org/prizes/literature/1917/gjellerup/facts/'
p704
aS'https://www.nobelprize.org/prizes/literature/1917/pontoppidan/facts/'
p705
aS'https://www.nobelprize.org/prizes/literature/1916/heidenstam/facts/'
p706
aS'https://www.nobelprize.org/prizes/literature/1915/rolland/facts/'
p707
aS'https://www.nobelprize.org/prizes/literature/1913/tagore/facts/'
p708
aS'https://www.nobelprize.org/prizes/literature/1912/hauptmann/facts/'
p709
aS'https://www.nobelprize.org/prizes/literature/1911/maeterlinck/facts/'
p710
aS'https://www.nobelprize.org/prizes/literature/1910/heyse/facts/'
p711
aS'https://www.nobelprize.org/prizes/literature/1909/lagerlof/facts/'
p712
aS'https://www.nobelprize.org/prizes/literature/1908/eucken/facts/'
p713
aS'https://www.nobelprize.org/prizes/literature/1907/kipling/facts/'
p714
aS'https://www.nobelprize.org/prizes/literature/1906/carducci/facts/'
p715
aS'https://www.nobelprize.org/prizes/literature/1905/sienkiewicz/facts/'
p716
aS'https://www.nobelprize.org/prizes/literature/1904/mistral/facts/'
p717
aS'https://www.nobelprize.org/prizes/literature/1904/eizaguirre/facts/'
p718
aS'https://www.nobelprize.org/prizes/literature/1903/bjornson/facts/'
p719
aS'https://www.nobelprize.org/prizes/literature/1902/mommsen/facts/'
p720
aS'https://www.nobelprize.org/prizes/literature/1901/prudhomme/facts/'
p721
aS'https://www.nobelprize.org/prizes/peace/2017/ican/facts/'
p722
aS'https://www.nobelprize.org/prizes/peace/2016/santos/facts/'
p723
aS'https://www.nobelprize.org/prizes/peace/2015/tndq/facts/'
p724
aS'https://www.nobelprize.org/prizes/peace/2014/satyarthi/facts/'
p725
aS'https://www.nobelprize.org/prizes/peace/2014/yousafzai/facts/'
p726
aS'https://www.nobelprize.org/prizes/peace/2013/opcw/facts/'
p727
aS'https://www.nobelprize.org/prizes/peace/2012/eu/facts/'
p728
aS'https://www.nobelprize.org/prizes/peace/2011/johnson_sirleaf/facts/'
p729
aS'https://www.nobelprize.org/prizes/peace/2011/gbowee/facts/'
p730
aS'https://www.nobelprize.org/prizes/peace/2011/karman/facts/'
p731
aS'https://www.nobelprize.org/prizes/peace/2010/xiaobo/facts/'
p732
aS'https://www.nobelprize.org/prizes/peace/2009/obama/facts/'
p733
aS'https://www.nobelprize.org/prizes/peace/2008/ahtisaari/facts/'
p734
aS'https://www.nobelprize.org/prizes/peace/2007/ipcc/facts/'
p735
aS'https://www.nobelprize.org/prizes/peace/2007/gore/facts/'
p736
aS'https://www.nobelprize.org/prizes/peace/2006/yunus/facts/'
p737
aS'https://www.nobelprize.org/prizes/peace/2006/grameen/facts/'
p738
aS'https://www.nobelprize.org/prizes/peace/2005/iaea/facts/'
p739
aS'https://www.nobelprize.org/prizes/peace/2005/elbaradei/facts/'
p740
aS'https://www.nobelprize.org/prizes/peace/2003/ebadi/facts/'
p741
aS'https://www.nobelprize.org/prizes/peace/2002/carter/facts/'
p742
aS'https://www.nobelprize.org/prizes/peace/2001/un/facts/'
p743
aS'https://www.nobelprize.org/prizes/peace/2001/annan/facts/'
p744
aS'https://www.nobelprize.org/prizes/peace/2000/dae-jung/facts/'
p745
aS'https://www.nobelprize.org/prizes/peace/1999/msf/facts/'
p746
aS'https://www.nobelprize.org/prizes/peace/1998/hume/facts/'
p747
aS'https://www.nobelprize.org/prizes/peace/1998/trimble/facts/'
p748
aS'https://www.nobelprize.org/prizes/peace/1997/icbl/facts/'
p749
aS'https://www.nobelprize.org/prizes/peace/1997/williams/facts/'
p750
aS'https://www.nobelprize.org/prizes/peace/1996/belo/facts/'
p751
aS'https://www.nobelprize.org/prizes/peace/1996/ramos-horta/facts/'
p752
aS'https://www.nobelprize.org/prizes/peace/1995/rotblat/facts/'
p753
aS'https://www.nobelprize.org/prizes/peace/1995/pugwash/facts/'
p754
aS'https://www.nobelprize.org/prizes/peace/1994/arafat/facts/'
p755
aS'https://www.nobelprize.org/prizes/peace/1994/peres/facts/'
p756
aS'https://www.nobelprize.org/prizes/peace/1994/rabin/facts/'
p757
aS'https://www.nobelprize.org/prizes/peace/1993/mandela/facts/'
p758
aS'https://www.nobelprize.org/prizes/peace/1993/klerk/facts/'
p759
aS'https://www.nobelprize.org/prizes/peace/1992/tum/facts/'
p760
aS'https://www.nobelprize.org/prizes/peace/1991/kyi/facts/'
p761
aS'https://www.nobelprize.org/prizes/peace/1990/gorbachev/facts/'
p762
aS'https://www.nobelprize.org/prizes/peace/1989/lama/facts/'
p763
aS'https://www.nobelprize.org/prizes/peace/1988/un/facts/'
p764
aS'https://www.nobelprize.org/prizes/peace/1987/arias/facts/'
p765
aS'https://www.nobelprize.org/prizes/peace/1986/wiesel/facts/'
p766
aS'https://www.nobelprize.org/prizes/peace/1985/physicians/facts/'
p767
aS'https://www.nobelprize.org/prizes/peace/1984/tutu/facts/'
p768
aS'https://www.nobelprize.org/prizes/peace/1983/walesa/facts/'
p769
aS'https://www.nobelprize.org/prizes/peace/1982/myrdal/facts/'
p770
aS'https://www.nobelprize.org/prizes/peace/1982/robles/facts/'
p771
aS'https://www.nobelprize.org/prizes/peace/1981/refugees/facts/'
p772
aS'https://www.nobelprize.org/prizes/peace/1980/esquivel/facts/'
p773
aS'https://www.nobelprize.org/prizes/peace/1979/teresa/facts/'
p774
aS'https://www.nobelprize.org/prizes/peace/1978/al-sadat/facts/'
p775
aS'https://www.nobelprize.org/prizes/peace/1978/begin/facts/'
p776
aS'https://www.nobelprize.org/prizes/peace/1977/amnesty/facts/'
p777
aS'https://www.nobelprize.org/prizes/peace/1976/williams/facts/'
p778
aS'https://www.nobelprize.org/prizes/peace/1976/corrigan/facts/'
p779
aS'https://www.nobelprize.org/prizes/peace/1975/sakharov/facts/'
p780
aS'https://www.nobelprize.org/prizes/peace/1974/macbride/facts/'
p781
aS'https://www.nobelprize.org/prizes/peace/1974/sato/facts/'
p782
aS'https://www.nobelprize.org/prizes/peace/1973/kissinger/facts/'
p783
aS'https://www.nobelprize.org/prizes/peace/1973/tho/facts/'
p784
aS'https://www.nobelprize.org/prizes/peace/1971/brandt/facts/'
p785
aS'https://www.nobelprize.org/prizes/peace/1970/borlaug/facts/'
p786
aS'https://www.nobelprize.org/prizes/peace/1969/labour/facts/'
p787
aS'https://www.nobelprize.org/prizes/peace/1968/cassin/facts/'
p788
aS'https://www.nobelprize.org/prizes/peace/1965/unicef/facts/'
p789
aS'https://www.nobelprize.org/prizes/peace/1964/king/facts/'
p790
aS'https://www.nobelprize.org/prizes/peace/1963/red-cross/facts/'
p791
aS'https://www.nobelprize.org/prizes/peace/1963/red-cross-league/facts/'
p792
aS'https://www.nobelprize.org/prizes/peace/1962/pauling/facts/'
p793
aS'https://www.nobelprize.org/prizes/peace/1961/hammarskjold/facts/'
p794
aS'https://www.nobelprize.org/prizes/peace/1960/lutuli/facts/'
p795
aS'https://www.nobelprize.org/prizes/peace/1959/noel-baker/facts/'
p796
aS'https://www.nobelprize.org/prizes/peace/1958/pire/facts/'
p797
aS'https://www.nobelprize.org/prizes/peace/1957/pearson/facts/'
p798
aS'https://www.nobelprize.org/prizes/peace/1954/refugees/facts/'
p799
aS'https://www.nobelprize.org/prizes/peace/1953/marshall/facts/'
p800
aS'https://www.nobelprize.org/prizes/peace/1952/schweitzer/facts/'
p801
aS'https://www.nobelprize.org/prizes/peace/1951/jouhaux/facts/'
p802
aS'https://www.nobelprize.org/prizes/peace/1950/bunche/facts/'
p803
aS'https://www.nobelprize.org/prizes/peace/1949/orr/facts/'
p804
aS'https://www.nobelprize.org/prizes/peace/1947/friends-council/facts/'
p805
aS'https://www.nobelprize.org/prizes/peace/1947/friends-committee/facts/'
p806
aS'https://www.nobelprize.org/prizes/peace/1946/balch/facts/'
p807
aS'https://www.nobelprize.org/prizes/peace/1946/mott/facts/'
p808
aS'https://www.nobelprize.org/prizes/peace/1945/hull/facts/'
p809
aS'https://www.nobelprize.org/prizes/peace/1944/red-cross/facts/'
p810
aS'https://www.nobelprize.org/prizes/peace/1938/nansen/facts/'
p811
aS'https://www.nobelprize.org/prizes/peace/1937/chelwood/facts/'
p812
aS'https://www.nobelprize.org/prizes/peace/1936/lamas/facts/'
p813
aS'https://www.nobelprize.org/prizes/peace/1935/ossietzky/facts/'
p814
aS'https://www.nobelprize.org/prizes/peace/1934/henderson/facts/'
p815
aS'https://www.nobelprize.org/prizes/peace/1933/angell/facts/'
p816
aS'https://www.nobelprize.org/prizes/peace/1931/addams/facts/'
p817
aS'https://www.nobelprize.org/prizes/peace/1931/butler/facts/'
p818
aS'https://www.nobelprize.org/prizes/peace/1930/soderblom/facts/'
p819
aS'https://www.nobelprize.org/prizes/peace/1929/kellogg/facts/'
p820
aS'https://www.nobelprize.org/prizes/peace/1927/buisson/facts/'
p821
aS'https://www.nobelprize.org/prizes/peace/1927/quidde/facts/'
p822
aS'https://www.nobelprize.org/prizes/peace/1926/briand/facts/'
p823
aS'https://www.nobelprize.org/prizes/peace/1926/stresemann/facts/'
p824
aS'https://www.nobelprize.org/prizes/peace/1925/chamberlain/facts/'
p825
aS'https://www.nobelprize.org/prizes/peace/1925/dawes/facts/'
p826
aS'https://www.nobelprize.org/prizes/peace/1922/nansen/facts/'
p827
aS'https://www.nobelprize.org/prizes/peace/1921/branting/facts/'
p828
aS'https://www.nobelprize.org/prizes/peace/1921/lange/facts/'
p829
aS'https://www.nobelprize.org/prizes/peace/1920/bourgeois/facts/'
p830
aS'https://www.nobelprize.org/prizes/peace/1919/wilson/facts/'
p831
aS'https://www.nobelprize.org/prizes/peace/1917/red-cross/facts/'
p832
aS'https://www.nobelprize.org/prizes/peace/1913/fontaine/facts/'
p833
aS'https://www.nobelprize.org/prizes/peace/1912/root/facts/'
p834
aS'https://www.nobelprize.org/prizes/peace/1911/asser/facts/'
p835
aS'https://www.nobelprize.org/prizes/peace/1911/fried/facts/'
p836
aS'https://www.nobelprize.org/prizes/peace/1910/peace-bureau/facts/'
p837
aS'https://www.nobelprize.org/prizes/peace/1909/beernaert/facts/'
p838
aS'https://www.nobelprize.org/prizes/peace/1909/balluet/facts/'
p839
aS'https://www.nobelprize.org/prizes/peace/1908/arnoldson/facts/'
p840
aS'https://www.nobelprize.org/prizes/peace/1908/bajer/facts/'
p841
aS'https://www.nobelprize.org/prizes/peace/1907/moneta/facts/'
p842
aS'https://www.nobelprize.org/prizes/peace/1907/renault/facts/'
p843
aS'https://www.nobelprize.org/prizes/peace/1906/roosevelt/facts/'
p844
aS'https://www.nobelprize.org/prizes/peace/1905/suttner/facts/'
p845
aS'https://www.nobelprize.org/prizes/peace/1904/international-law/facts/'
p846
aS'https://www.nobelprize.org/prizes/peace/1903/cremer/facts/'
p847
aS'https://www.nobelprize.org/prizes/peace/1902/ducommun/facts/'
p848
aS'https://www.nobelprize.org/prizes/peace/1902/gobat/facts/'
p849
aS'https://www.nobelprize.org/prizes/peace/1901/dunant/facts/'
p850
aS'https://www.nobelprize.org/prizes/peace/1901/passy/facts/'
p851
aS'https://www.nobelprize.org/prizes/economics/2018/nordhaus/facts/'
p852
aS'https://www.nobelprize.org/prizes/economics/2018/romer/facts/'
p853
aS'https://www.nobelprize.org/prizes/economics/2017/thaler/facts/'
p854
aS'https://www.nobelprize.org/prizes/economics/2016/hart/facts/'
p855
aS'https://www.nobelprize.org/prizes/economics/2016/holmstrom/facts/'
p856
aS'https://www.nobelprize.org/prizes/economics/2015/deaton/facts/'
p857
aS'https://www.nobelprize.org/prizes/economics/2014/tirole/facts/'
p858
aS'https://www.nobelprize.org/prizes/economics/2013/fama/facts/'
p859
aS'https://www.nobelprize.org/prizes/economics/2013/hansen/facts/'
p860
aS'https://www.nobelprize.org/prizes/economics/2013/shiller/facts/'
p861
aS'https://www.nobelprize.org/prizes/economics/2012/roth/facts/'
p862
aS'https://www.nobelprize.org/prizes/economics/2012/shapley/facts/'
p863
aS'https://www.nobelprize.org/prizes/economics/2011/sargent/facts/'
p864
aS'https://www.nobelprize.org/prizes/economics/2011/sims/facts/'
p865
aS'https://www.nobelprize.org/prizes/economics/2010/diamond/facts/'
p866
aS'https://www.nobelprize.org/prizes/economics/2010/mortensen/facts/'
p867
aS'https://www.nobelprize.org/prizes/economics/2010/pissarides/facts/'
p868
aS'https://www.nobelprize.org/prizes/economics/2009/ostrom/facts/'
p869
aS'https://www.nobelprize.org/prizes/economics/2009/williamson/facts/'
p870
aS'https://www.nobelprize.org/prizes/economics/2008/krugman/facts/'
p871
aS'https://www.nobelprize.org/prizes/economics/2007/hurwicz/facts/'
p872
aS'https://www.nobelprize.org/prizes/economics/2007/maskin/facts/'
p873
aS'https://www.nobelprize.org/prizes/economics/2007/myerson/facts/'
p874
aS'https://www.nobelprize.org/prizes/economics/2006/phelps/facts/'
p875
aS'https://www.nobelprize.org/prizes/economics/2005/aumann/facts/'
p876
aS'https://www.nobelprize.org/prizes/economics/2005/schelling/facts/'
p877
aS'https://www.nobelprize.org/prizes/economics/2004/kydland/facts/'
p878
aS'https://www.nobelprize.org/prizes/economics/2004/prescott/facts/'
p879
aS'https://www.nobelprize.org/prizes/economics/2003/engle/facts/'
p880
aS'https://www.nobelprize.org/prizes/economics/2003/granger/facts/'
p881
aS'https://www.nobelprize.org/prizes/economics/2002/kahneman/facts/'
p882
aS'https://www.nobelprize.org/prizes/economics/2002/smith/facts/'
p883
aS'https://www.nobelprize.org/prizes/economics/2001/akerlof/facts/'
p884
aS'https://www.nobelprize.org/prizes/economics/2001/spence/facts/'
p885
aS'https://www.nobelprize.org/prizes/economics/2001/stiglitz/facts/'
p886
aS'https://www.nobelprize.org/prizes/economics/2000/heckman/facts/'
p887
aS'https://www.nobelprize.org/prizes/economics/2000/mcfadden/facts/'
p888
aS'https://www.nobelprize.org/prizes/economics/1999/mundell/facts/'
p889
aS'https://www.nobelprize.org/prizes/economics/1998/sen/facts/'
p890
aS'https://www.nobelprize.org/prizes/economics/1997/merton/facts/'
p891
aS'https://www.nobelprize.org/prizes/economics/1997/scholes/facts/'
p892
aS'https://www.nobelprize.org/prizes/economics/1996/mirrlees/facts/'
p893
aS'https://www.nobelprize.org/prizes/economics/1996/vickrey/facts/'
p894
aS'https://www.nobelprize.org/prizes/economics/1995/lucas/facts/'
p895
aS'https://www.nobelprize.org/prizes/economics/1994/harsanyi/facts/'
p896
aS'https://www.nobelprize.org/prizes/economics/1994/nash/facts/'
p897
aS'https://www.nobelprize.org/prizes/economics/1994/selten/facts/'
p898
aS'https://www.nobelprize.org/prizes/economics/1993/fogel/facts/'
p899
aS'https://www.nobelprize.org/prizes/economics/1993/north/facts/'
p900
aS'https://www.nobelprize.org/prizes/economics/1992/becker/facts/'
p901
aS'https://www.nobelprize.org/prizes/economics/1991/coase/facts/'
p902
aS'https://www.nobelprize.org/prizes/economics/1990/markowitz/facts/'
p903
aS'https://www.nobelprize.org/prizes/economics/1990/miller/facts/'
p904
aS'https://www.nobelprize.org/prizes/economics/1990/sharpe/facts/'
p905
aS'https://www.nobelprize.org/prizes/economics/1989/haavelmo/facts/'
p906
aS'https://www.nobelprize.org/prizes/economics/1988/allais/facts/'
p907
aS'https://www.nobelprize.org/prizes/economics/1987/solow/facts/'
p908
aS'https://www.nobelprize.org/prizes/economics/1986/buchanan/facts/'
p909
aS'https://www.nobelprize.org/prizes/economics/1985/modigliani/facts/'
p910
aS'https://www.nobelprize.org/prizes/economics/1984/stone/facts/'
p911
aS'https://www.nobelprize.org/prizes/economics/1983/debreu/facts/'
p912
aS'https://www.nobelprize.org/prizes/economics/1982/stigler/facts/'
p913
aS'https://www.nobelprize.org/prizes/economics/1981/tobin/facts/'
p914
aS'https://www.nobelprize.org/prizes/economics/1980/klein/facts/'
p915
aS'https://www.nobelprize.org/prizes/economics/1979/schultz/facts/'
p916
aS'https://www.nobelprize.org/prizes/economics/1979/lewis/facts/'
p917
aS'https://www.nobelprize.org/prizes/economics/1978/simon/facts/'
p918
aS'https://www.nobelprize.org/prizes/economics/1977/ohlin/facts/'
p919
aS'https://www.nobelprize.org/prizes/economics/1977/meade/facts/'
p920
aS'https://www.nobelprize.org/prizes/economics/1976/friedman/facts/'
p921
aS'https://www.nobelprize.org/prizes/economics/1975/kantorovich/facts/'
p922
aS'https://www.nobelprize.org/prizes/economics/1975/koopmans/facts/'
p923
aS'https://www.nobelprize.org/prizes/economics/1974/myrdal/facts/'
p924
aS'https://www.nobelprize.org/prizes/economics/1974/hayek/facts/'
p925
aS'https://www.nobelprize.org/prizes/economics/1973/leontief/facts/'
p926
aS'https://www.nobelprize.org/prizes/economics/1972/hicks/facts/'
p927
aS'https://www.nobelprize.org/prizes/economics/1972/arrow/facts/'
p928
aS'https://www.nobelprize.org/prizes/economics/1971/kuznets/facts/'
p929
aS'https://www.nobelprize.org/prizes/economics/1970/samuelson/facts/'
p930
aS'https://www.nobelprize.org/prizes/economics/1969/frisch/facts/'
p931
aS'https://www.nobelprize.org/prizes/economics/1969/tinbergen/facts/'
p932
a.