(lp0
S'/directory/adimurthi-adi'
p1
aS'/directory/agarwal-bina'
p2
aS'/directory/albarwani-sulayma'
p3
aS'/directory/bruzual-gustavo'
p4
aS'/directory/canuto-sylvio'
p5
aS'/directory/chang-mei-hwei'
p6
aS'/directory/chattopadhyay-amitabha'
p7
aS'/directory/chen-shiyi'
p8
aS'/directory/cherkaoui-el-moursli-rajaa'
p9
aS'/directory/cheung-fanny-miu-ching'
p10
aS'/directory/chung-sun-lin'
p11
aS'/directory/collins-james'
p12
aS'/directory/dakora-felix-dapare'
p13
aS'/directory/diaz-casado-lorenzo-justiniano'
p14
aS'/directory/duraiappah-anantha'
p15
aS'/directory/dzhumadildaev-askar'
p16
aS'/directory/gong-qihuang'
p17
aS'/directory/guo-zhengtang'
p18
aS'/directory/han-buxing'
p19
aS'/directory/huang-lusheng'
p20
aS'/directory/kamau-luna'
p21
aS'/directory/kantam-lakshmi-mannepalli'
p22
aS'/directory/kasimbazi-emmanuel'
p23
aS'/directory/khalid-sami-ahmed'
p24
aS'/directory/khan-haseena'
p25
aS'/directory/kumaran-viswanathan'
p26
aS'/directory/lee-wen-hwa'
p27
aS'/directory/leke-gana-fomban-rose'
p28
aS'/directory/liu-yunqi'
p29
aS'/directory/lizano-susana'
p30
aS'/directory/madhi-shabir-ahmed'
p31
aS'/directory/marquet-pablo'
p32
aS'/directory/menck-carlos-frederico-martins'
p33
aS'/directory/minwalla-shiraz'
p34
aS'/directory/pun-kit-fai'
p35
aS'/directory/rao-jagannatha-kosagisharaf'
p36
aS'/directory/roy-siddhartha'
p37
aS'/directory/rozikov-utkir'
p38
aS'/directory/sahni-varun'
p39
aS'/directory/scholes-robert-john'
p40
aS'/directory/sinha-sudeshna'
p41
aS'/directory/sithole-niang-idah'
p42
aS'/directory/slamet-loedin-inez'
p43
aS'/directory/stenseth-nils-christian'
p44
aS'/directory/thomson-jennifer-ann'
p45
aS'/directory/tsai-siu-mui'
p46
aS'/directory/victora-cesar-gomes'
p47
aS'/directory/visweswariah-sandhya'
p48
aS'/directory/williams-roberto-juan-jose'
p49
aS'/directory/xie-xin-cheng'
p50
aS'/directory/yassemi-siamak'
p51
aS'/directory/zhang-xu'
p52
aS'/directory/zhou-qi'
p53
aS'/directory/zhou-xiangyu'
p54
aS'/directory/zou-zhigang'
p55
aS'/directory/al-nimr-mohd-ahmad-mohammad'
p56
aS'/directory/ali-nahid'
p57
aS'/directory/bakibinga-david-justin'
p58
aS'/directory/bouskela-eliete'
p59
aS'/directory/cao-xiaofeng'
p60
aS'/directory/chen-fahu'
p61
aS'/directory/chiang-ann-shyn'
p62
aS'/directory/choudhuri-arnab-rai'
p63
aS'/directory/chu-yun-han'
p64
aS'/directory/de-los-reyes-juan-carlos'
p65
aS'/directory/fanta-demel-teketay'
p66
aS'/directory/ferreira-valderez-p'
p67
aS'/directory/forrester-terrence'
p68
aS'/directory/grotschel-martin'
p69
aS'/directory/khanduja-sudesh-kaur'
p70
aS'/directory/khurana-paramjit'
p71
aS'/directory/kulmala-markku-tapio'
p72
aS'/directory/li-chao-jun'
p73
aS'/directory/li-peng'
p74
aS'/directory/liu-weimin'
p75
aS'/directory/lu-gaoqing-max'
p76
aS'/directory/menchaca-rocha-arturo'
p77
aS'/directory/pal-nikhil-ranjan'
p78
aS'/directory/pujals-enrique'
p79
aS'/directory/ramamurty-upadrasta'
p80
aS'/directory/rentala-madhubala'
p81
aS'/directory/rubinstein-marcelo'
p82
aS'/directory/singh-vinod-kumar'
p83
aS'/directory/stein-dan'
p84
aS'/directory/tan-weihong'
p85
aS'/directory/trivedi-sandip'
p86
aS'/directory/turki-kamoun-najoua'
p87
aS'/directory/valente-gaiesky-vera-lucia-da-silva'
p88
aS'/directory/varshney-rajeev-kumar'
p89
aS'/directory/wang-wei-hua'
p90
aS'/directory/wang-yifang'
p91
aS'/directory/yespolov-tlektes'
p92
aS'/directory/yu-jihong'
p93
aS'/directory/zhang-pingwen'
p94
aS'/directory/zheng-xiaoying'
p95
aS'/directory/abdool-karim-quarraisha'
p96
aS'/directory/ahmad-wasim'
p97
aS'/directory/ajayaghosh-ayyappanpillai'
p98
aS'/directory/chattopadhyay-samit'
p99
aS'/directory/chen-deliang'
p100
aS'/directory/chen-guanrong-ron'
p101
aS'/directory/chen-yongchuan-william'
p102
aS'/directory/ciminelli-virginia-sampaio-teixeira'
p103
aS'/directory/concepcion-gisela'
p104
aS'/directory/daubechies-ingrid'
p105
aS'/directory/ding-jian'
p106
aS'/directory/enshassi-adnan'
p107
aS'/directory/foguel-debora'
p108
aS'/directory/gingrich-andre'
p109
aS'/directory/gopakumar-rajesh'
p110
aS'/directory/gui-jian-fang'
p111
aS'/directory/hasan-gaiti'
p112
aS'/directory/hong-yongmiao'
p113
aS'/directory/jog-chanda-j'
p114
aS'/directory/kelemu-segenet'
p115
aS'/directory/lepine-jacques'
p116
aS'/directory/li-shushen'
p117
aS'/directory/liu-zhongfan'
p118
aS'/directory/manna-indranil'
p119
aS'/directory/mbanya-jean-claude-nganou'
p120
aS'/directory/moosavi-movahedi-ali-akbar'
p121
aS'/directory/narayan-ramesh'
p122
aS'/directory/okeke-francisca-nneka'
p123
aS'/directory/pandit-aniruddha-bhalchandra'
p124
aS'/directory/pandit-rahul'
p125
aS'/directory/poor-harold-vincent'
p126
aS'/directory/rabinovich-gabriel-adrian'
p127
aS'/directory/sanyal-milan-k'
p128
aS'/directory/sharma-amit'
p129
aS'/directory/shi-yong'
p130
aS'/directory/sobti-ranbir-chander'
p131
aS'/directory/sundar-shyam'
p132
aS'/directory/taba-kalulu'
p133
aS'/directory/xiang-tao'
p134
aS'/directory/xie-yi'
p135
aS'/directory/yu-jing'
p136
aS'/directory/yuan-yaxiang'
p137
aS'/directory/zhang-hongjie'
p138
aS'/directory/zhou-zhonghe'
p139
aS'/directory/abdurakhmonov-ibrokhim'
p140
aS'/directory/al-sulaiman-sabah-ahmed-abdul-wahab'
p141
aS'/directory/alleyne-trevor'
p142
aS'/directory/alves-oswaldo-luiz'
p143
aS'/directory/brahmachari-samir-kumar'
p144
aS'/directory/chary-venkata-ramana-kandala'
p145
aS'/directory/chebiyyam-siva-ram-murthy'
p146
aS'/directory/cheng-hui-ming'
p147
aS'/directory/correa-oliveira-rodrigo'
p148
aS'/directory/cunha-fernando-de-queiroz'
p149
aS'/directory/datta-swapan-kumar'
p150
aS'/directory/elgoyhen-ana-belen'
p151
aS'/directory/feresu-sarah'
p152
aS'/directory/gao-fu-george'
p153
aS'/directory/grossi-de-sa-maria-fatima'
p154
aS'/directory/han-bin'
p155
aS'/directory/jiao-nianzhi'
p156
aS'/directory/kuan-chung-ming'
p157
aS'/directory/kuroda-reiko'
p158
aS'/directory/li-ker-chau'
p159
aS'/directory/li-yadong'
p160
aS'/directory/lutz-wolfgang'
p161
aS'/directory/majumder-hemanta-kumar'
p162
aS'/directory/mgaya-yunus-daud'
p163
aS'/directory/mirabel-igor-felix'
p164
aS'/directory/mukhi-sunil'
p165
aS'/directory/munns-rana-ellen'
p166
aS'/directory/mutabingwa-theonest-kahangwa'
p167
aS'/directory/nguerekata-gaston-mandata'
p168
aS'/directory/omar-asem-samira'
p169
aS'/directory/palinkas-jozsef'
p170
aS'/directory/pati-swapan-kumar'
p171
aS'/directory/pimenta-marcos-assuncao'
p172
aS'/directory/ron-santiago'
p173
aS'/directory/salotra-poonam'
p174
aS'/directory/salunke-dinakar-m'
p175
aS'/directory/shaha-chandrima'
p176
aS'/directory/srinivas-vasudevan'
p177
aS'/directory/tan-tieniu'
p178
aS'/directory/tian-zhongqun'
p179
aS'/directory/tsai-ming-daw'
p180
aS'/directory/wu-yue-liang'
p181
aS'/directory/zeilinger-anton'
p182
aS'/directory/zhai-mingguo'
p183
aS'/directory/zhang-linxiu'
p184
aS'/directory/zhao-jincai'
p185
aS'/directory/abbasov-ali-m'
p186
aS'/directory/amatore-christian'
p187
aS'/directory/aseffa-abraham'
p188
aS'/directory/azevedo-ricardo-antunes-de'
p189
aS'/directory/barreto-mauricio-l'
p190
aS'/directory/basu-kaushik'
p191
aS'/directory/berkovits-nathan'
p192
aS'/directory/bica-eduardo-luiz-damiani'
p193
aS'/directory/bolzani-vanderlan-da-silva'
p194
aS'/directory/chattaraj-pratim-kumar'
p195
aS'/directory/cheah-kathryn-song-eng'
p196
aS'/directory/chen-xiao-ming'
p197
aS'/directory/cheng-soo-chen'
p198
aS'/directory/fazzio-adalberto'
p199
aS'/directory/font-anamaria'
p200
aS'/directory/gao-song'
p201
aS'/directory/gilani-anwar-ul-hassan'
p202
aS'/directory/gojobori-takashi'
p203
aS'/directory/hsieh-tao-shih'
p204
aS'/directory/huang-jikun'
p205
aS'/directory/jagadish-chennupati'
p206
aS'/directory/kellner-alexander-wilhelm-armin'
p207
aS'/directory/khan-zeyaur-rahman'
p208
aS'/directory/khurana-jitendra-paul'
p209
aS'/directory/kumar-anurag'
p210
aS'/directory/lacerda-luiz-drude'
p211
aS'/directory/lee-sang-yup'
p212
aS'/directory/lee-shih-chang'
p213
aS'/directory/liu-shaw-chen'
p214
aS'/directory/lo-yuk-ming-dennis'
p215
aS'/directory/lopes-artur-oscar'
p216
aS'/directory/maldacena-juan-martin'
p217
aS'/directory/mallik-ranjan-kumar'
p218
aS'/directory/mathur-deepak'
p219
aS'/directory/mbede-evelyne-isaack'
p220
aS'/directory/mehra-narinder-kumar'
p221
aS'/directory/mei-hong'
p222
aS'/directory/mohan-viswanathan'
p223
aS'/directory/nader-helena-b'
p224
aS'/directory/phan-quoc-khanh'
p225
aS'/directory/phu-hoang-xuan'
p226
aS'/directory/poliakoff-martyn'
p227
aS'/directory/ruffolo-david'
p228
aS'/directory/satheesh-sreedharan-krishnakumari'
p229
aS'/directory/seck-papa-abdoulaye'
p230
aS'/directory/shen-bao-gen'
p231
aS'/directory/shestakov-ivan'
p232
aS'/directory/singh-bhim'
p233
aS'/directory/sukumar-raman'
p234
aS'/directory/tian-he'
p235
aS'/directory/udgaonkar-jayant'
p236
aS'/directory/zhu-yuxian'
p237
aS'/directory/abdulrazak-shaukat-ali'
p238
aS'/directory/agrawal-manindra'
p239
aS'/directory/anosa-victor-o'
p240
aS'/directory/banerjee-soumitro'
p241
aS'/directory/bhattacharya-santanu'
p242
aS'/directory/borkar-vivek-shripad'
p243
aS'/directory/chen-jianping'
p244
aS'/directory/chu-shih-i'
p245
aS'/directory/cotta-renato-machado'
p246
aS'/directory/dallagnol-roberto'
p247
aS'/directory/demissew-sebsebe'
p248
aS'/directory/dupont-jairton'
p249
aS'/directory/frenkel-daan'
p250
aS'/directory/fu-bo-jie'
p251
aS'/directory/gao-hong-jun'
p252
aS'/directory/garcia-eloi-de-souza'
p253
aS'/directory/gasparini-zulma-n'
p254
aS'/directory/guo-huadong'
p255
aS'/directory/gupta-anil-kumar'
p256
aS'/directory/hefez-abramo'
p257
aS'/directory/hou-fan-fan'
p258
aS'/directory/hu-chenming'
p259
aS'/directory/jiang-guibin'
p260
aS'/directory/jiang-lei'
p261
aS'/directory/jin-ya-qiu'
p262
aS'/directory/kahwa-ishenkumba'
p263
aS'/directory/kang-le'
p264
aS'/directory/liang-kung-yee'
p265
aS'/directory/lu-yonglong'
p266
aS'/directory/madkour-magdy'
p267
aS'/directory/mandal-chitra'
p268
aS'/directory/moreira-carlos-gustavo-tamm-de-araujo'
p269
aS'/directory/nagaraja-valakunja'
p270
aS'/directory/nan-ce-wen'
p271
aS'/directory/olunloyo-vincent-olusegun-sowemimo'
p272
aS'/directory/osumi-noriko'
p273
aS'/directory/padmanabhan-thanu'
p274
aS'/directory/pan-jian-wei'
p275
aS'/directory/parkin-stuart-stephen-papworth'
p276
aS'/directory/sampathkumaran-echur-varadadesikan'
p277
aS'/directory/sewankambo-nelson-k'
p278
aS'/directory/shu-hong-bing'
p279
aS'/directory/tawfik-abdel-nasser'
p280
aS'/directory/teixeira-mauro-m'
p281
aS'/directory/vercesi-anibal-e'
p282
aS'/directory/wang-kuan'
p283
aS'/directory/wang-lu-hai'
p284
aS'/directory/xu-hong-kun'
p285
aS'/directory/yan-chun-hua'
p286
aS'/directory/alencar-da-silva-hilario'
p287
aS'/directory/ashfaq-muhammad'
p288
aS'/directory/augusto-ohara'
p289
aS'/directory/badrie-neela'
p290
aS'/directory/bao-xinhe'
p291
aS'/directory/bousmina-mostapha'
p292
aS'/directory/brandan-maria-ester'
p293
aS'/directory/brito-cruz-carlos-henrique'
p294
aS'/directory/chakrabarti-pinakpani'
p295
aS'/directory/chang-shih-lin'
p296
aS'/directory/chang-wen-chang'
p297
aS'/directory/chaudhuri-bidyut-baran'
p298
aS'/directory/chen-pei-jer'
p299
aS'/directory/chopra-kanchan'
p300
aS'/directory/clayton-anthony'
p301
aS'/directory/cruz-lourdes-j'
p302
aS'/directory/diab-roseanne'
p303
aS'/directory/el-khozondar-hala'
p304
aS'/directory/farrant-jill-margaret'
p305
aS'/directory/fuchs-harald'
p306
aS'/directory/ghosh-ratna'
p307
aS'/directory/guhl-felipe'
p308
aS'/directory/gupta-mahabir-prashad'
p309
aS'/directory/hoa-le-tuan'
p310
aS'/directory/krishnamurthy-hulikal-r'
p311
aS'/directory/lee-yuan-pern'
p312
aS'/directory/lin-wenjuan'
p313
aS'/directory/majumder-partha-pratim'
p314
aS'/directory/miatello-roberto-jorge'
p315
aS'/directory/moudachirou-mansourou'
p316
aS'/directory/oliva-glaucius'
p317
aS'/directory/oliveira-sergio-costa'
p318
aS'/directory/prasad-guntupalli-vr'
p319
aS'/directory/qadri-firdausi'
p320
aS'/directory/ramasesha-suryanarayana-sastry'
p321
aS'/directory/storchi-bergmann-thaisa'
p322
aS'/directory/sun-chang-pu'
p323
aS'/directory/tuteja-narendra'
p324
aS'/directory/wang-hongyang'
p325
aS'/directory/wang-shouyang'
p326
aS'/directory/xu-ningsheng'
p327
aS'/directory/yao-andrew-chi-chih'
p328
aS'/directory/zanotto-edgar-dutra'
p329
aS'/directory/zhao-guo-ping'
p330
aS'/directory/zheng-yong-fei'
p331
aS'/directory/al-kindy-salma-muhammed-zahran'
p332
aS'/directory/almeida-virgilio-augusto-f'
p333
aS'/directory/almomin-sabah'
p334
aS'/directory/arruda-paulo'
p335
aS'/directory/asfaw-berhane'
p336
aS'/directory/baralle-francisco'
p337
aS'/directory/boujaoude-saouma'
p338
aS'/directory/chakravarty-akhil-r'
p339
aS'/directory/chidume-charles-ejike'
p340
aS'/directory/chu-cyrus-chin-yi'
p341
aS'/directory/cui-xiangqun'
p342
aS'/directory/diaz-sandra-myrna'
p343
aS'/directory/diop-e-salif'
p344
aS'/directory/fan-shoushan'
p345
aS'/directory/fang-xin'
p346
aS'/directory/galembeck-fernando'
p347
aS'/directory/gazzinelli-ricardo-t'
p348
aS'/directory/ghosh-swapan-kumar'
p349
aS'/directory/goles-eric'
p350
aS'/directory/hayat-tasawar'
p351
aS'/directory/he-lin'
p352
aS'/directory/heong-kong-luen'
p353
aS'/directory/ho-paul'
p354
aS'/directory/hu-haiyan'
p355
aS'/directory/ismail-asma'
p356
aS'/directory/jansen-jonathan-david'
p357
aS'/directory/kamal-eldin-afaf'
p358
aS'/directory/kofane-timoleon-crepin'
p359
aS'/directory/koiller-belita'
p360
aS'/directory/kumar-panganamala-ramana'
p361
aS'/directory/landim-claudio'
p362
aS'/directory/littlewood-peter-brent'
p363
aS'/directory/maccioni-hugo-jf'
p364
aS'/directory/mammo-deneke-wendimagegn'
p365
aS'/directory/marwala-tshilidzi'
p366
aS'/directory/mondal-naba-kumar'
p367
aS'/directory/muniyappa-k'
p368
aS'/directory/pimentel-marcio'
p369
aS'/directory/quevedo-fernando'
p370
aS'/directory/sharma-ashutosh'
p371
aS'/directory/soares-marcio-gomes'
p372
aS'/directory/sorooshian-soroosh'
p373
aS'/directory/tong-shuk-yin'
p374
aS'/directory/tzeng-ovid-jyh-lang'
p375
aS'/directory/vijayraghavan-krishnaswamy'
p376
aS'/directory/wan-li-jun'
p377
aS'/directory/wu-kenneth-k'
p378
aS'/directory/yadav-ganapati-dadasaheb'
p379
aS'/directory/yao-meng-chao'
p380
aS'/directory/yeh-anthony-gar'
p381
aS'/directory/yusoff-khatijah-mohamad'
p382
aS'/directory/zhao-dongyuan'
p383
aS'/directory/zhao-jindong'
p384
aS'/directory/zheng-xiaojing'
p385
aS'/directory/zhou-weijian'
p386
aS'/directory/zhuang-wen-ying'
p387
aS'/directory/abdool-karim-salim'
p388
aS'/directory/abidi-asad'
p389
aS'/directory/artaxo-paulo'
p390
aS'/directory/bagnato-vanderelei'
p391
aS'/directory/bautista-ramos-raymundo'
p392
aS'/directory/beachy-roger'
p393
aS'/directory/bhatia-rajendra'
p394
aS'/directory/carneiro-da-cunha-maria-manuela'
p395
aS'/directory/cerda-arcadio-alberto'
p396
aS'/directory/chaibi-m-thameur'
p397
aS'/directory/chamseddine-ali-hani'
p398
aS'/directory/chandrasekhar-vadapalli'
p399
aS'/directory/chen-lih-juann'
p400
aS'/directory/chen-lin'
p401
aS'/directory/chen-mu-fa'
p402
aS'/directory/chinsamy-turan-anusuya'
p403
aS'/directory/coutsoudis-anna'
p404
aS'/directory/crewe-robin'
p405
aS'/directory/dani-shrikrishna-gopalrao'
p406
aS'/directory/demir-durmus'
p407
aS'/directory/ebecken-nelson-francisco-favilla'
p408
aS'/directory/ezin-jean-pierre-onvehoun'
p409
aS'/directory/godbole-rohini-m'
p410
aS'/directory/goswami-bhupendra-nath'
p411
aS'/directory/guo-guang-can'
p412
aS'/directory/hassan-rashid-mekki'
p413
aS'/directory/hidalgo-cecilia'
p414
aS'/directory/ibidapo-obe-oyewusi'
p415
aS'/directory/lakshmanan-muthusamy'
p416
aS'/directory/li-wen-hsiung'
p417
aS'/directory/mando-abdoulaye'
p418
aS'/directory/nome-faruk'
p419
aS'/directory/norden-bengt'
p420
aS'/directory/nyokong-tebello'
p421
aS'/directory/orozco-esther'
p422
aS'/directory/qaiser-mohammad'
p423
aS'/directory/rao-mohan-chintalagiri'
p424
aS'/directory/reichardt-klaus'
p425
aS'/directory/saidapur-srinivas-k'
p426
aS'/directory/scharifker-benjamin-r'
p427
aS'/directory/shen-che-kun'
p428
aS'/directory/shi-yunyu'
p429
aS'/directory/shyamasundar-rudrapatna-kallikote'
p430
aS'/directory/sial-alcides-nobrega'
p431
aS'/directory/singer-peter-alexander'
p432
aS'/directory/tyagi-akhilesh-kumar'
p433
aS'/directory/warner-brian'
p434
aS'/directory/wingfield-brenda-diana'
p435
aS'/directory/zare-richard-n'
p436
aS'/directory/zhu-daoben'
p437
aS'/directory/alvarez-diaz-lilliam-margarita'
p438
aS'/directory/baskaran-ganapathy'
p439
aS'/directory/bekele-endashaw'
p440
aS'/directory/bhattacharyya-kankan'
p441
aS'/directory/blundell-tom'
p442
aS'/directory/cao-yong'
p443
aS'/directory/chandrashekar-tavarekere-kalliah'
p444
aS'/directory/chen-xiao-ya'
p445
aS'/directory/dagne-ermias'
p446
aS'/directory/dimri-vijay-prasad'
p447
aS'/directory/duan-shumin'
p448
aS'/directory/exel-ruy'
p449
aS'/directory/fang-jingyun'
p450
aS'/directory/ganeev-rashid'
p451
aS'/directory/gupta-narinder-kumar'
p452
aS'/directory/hosur-ramakrishna-vijayacharya'
p453
aS'/directory/jornada-joao-alziro-herz-da'
p454
aS'/directory/joshi-jyeshtharaj-b'
p455
aS'/directory/lee-der-tsai'
p456
aS'/directory/lions-pierre-louis'
p457
aS'/directory/liu-depei'
p458
aS'/directory/long-yiming'
p459
aS'/directory/lucena-carlos-jp'
p460
aS'/directory/ma-shengming'
p461
aS'/directory/mcdowell-sean-alistair'
p462
aS'/directory/mendonca-previato-lucia'
p463
aS'/directory/meng-anming'
p464
aS'/directory/morel-carlos-medicis'
p465
aS'/directory/moura-neto-vivaldo'
p466
aS'/directory/mow-van-c'
p467
aS'/directory/mu-mu'
p468
aS'/directory/naqvi-syed-wajih-ahmad'
p469
aS'/directory/pena-sergio-danilo-junho'
p470
aS'/directory/ramaswamy-ramakrishna'
p471
aS'/directory/svanberg-sune'
p472
aS'/directory/wang-enge'
p473
aS'/directory/yang-huanming'
p474
aS'/directory/yang-pan-chyr'
p475
aS'/directory/zeng-yi-xin'
p476
aS'/directory/zhang-jie'
p477
aS'/directory/balseiro-carlos-antonio'
p478
aS'/directory/banerjee-srikumar'
p479
aS'/directory/barbuy-beatriz-leonor-silveira'
p480
aS'/directory/chatterji-dipankar'
p481
aS'/directory/che-chi-ming'
p482
aS'/directory/chen-chien-te'
p483
aS'/directory/chen-sai-juan'
p484
aS'/directory/ciarlet-philippe-g'
p485
aS'/directory/daar-abdallah-salim-said'
p486
aS'/directory/dasgupta-chandan'
p487
aS'/directory/dasgupta-somnath'
p488
aS'/directory/fang-rongxiang'
p489
aS'/directory/faruque-shah-mohammad'
p490
aS'/directory/flawia-de-torres-mirtha-maria'
p491
aS'/directory/garidkhuu-jamts'
p492
aS'/directory/gross-david'
p493
aS'/directory/handoussa-heba'
p494
aS'/directory/huang-baiyun'
p495
aS'/directory/ibrahim-muntaser-eltayeb'
p496
aS'/directory/izquierdo-ivan-antonio'
p497
aS'/directory/lee-wu-yan-hwa'
p498
aS'/directory/lee-typhoon'
p499
aS'/directory/maculan-nelson'
p500
aS'/directory/pacifico-maria-jose'
p501
aS'/directory/parker-mohamed-iqbal'
p502
aS'/directory/paulraj-arogyaswami-joseph'
p503
aS'/directory/philander-samuel-george'
p504
aS'/directory/ramesh-rengaswamy'
p505
aS'/directory/rech-elibio-leopoldo'
p506
aS'/directory/rees-martin-john'
p507
aS'/directory/samper-cristian'
p508
aS'/directory/sarma-dipankar-das'
p509
aS'/directory/shamsipur-mojtaba'
p510
aS'/directory/steiner-joao'
p511
aS'/directory/steyn-pieter-s'
p512
aS'/directory/sur-mriganka'
p513
aS'/directory/vanegas-horacio-f'
p514
aS'/directory/verez-bencomo-vicente'
p515
aS'/directory/wong-chi-huey'
p516
aS'/directory/xu-zhiqin'
p517
aS'/directory/zago-marco-antonio'
p518
aS'/directory/zhang-ya-ping'
p519
aS'/directory/zhu-jing'
p520
aS'/directory/barma-mustansir'
p521
aS'/directory/ben-lakhdar-akrout-zohra'
p522
aS'/directory/catlow-richard'
p523
aS'/directory/chattoo-bharat-bhushan'
p524
aS'/directory/chauhan-virander-singh'
p525
aS'/directory/chen-yuan-tsong'
p526
aS'/directory/clegg-michael-tran'
p527
aS'/directory/dao-trong-thi'
p528
aS'/directory/deng-zixin'
p529
aS'/directory/dhar-deepak'
p530
aS'/directory/ding-zhongli'
p531
aS'/directory/erzan-ayse'
p532
aS'/directory/ganesh-krishnarajanagar-nagapa'
p533
aS'/directory/hans-gill-rajinder-jeet'
p534
aS'/directory/jerew-dakhil-hassan'
p535
aS'/directory/kalil-jorge'
p536
aS'/directory/kurokawa-kiyoshi'
p537
aS'/directory/lai-michael-mc'
p538
aS'/directory/laurencin-cato-thomas'
p539
aS'/directory/lee-lou-chuang'
p540
aS'/directory/lee-shuit-tong'
p541
aS'/directory/liu-tai-ping'
p542
aS'/directory/nobre-carlos-afonso'
p543
aS'/directory/obi-timothy-uzochukwu'
p544
aS'/directory/park-sang-dai'
p545
aS'/directory/raghavendra-agepati-srinivasa'
p546
aS'/directory/reis-elisa'
p547
aS'/directory/sarin-shiv-kumar'
p548
aS'/directory/silva-jerson-l'
p549
aS'/directory/srinivasan-mandyman-veerabudi'
p550
aS'/directory/terrones-mauricio'
p551
aS'/directory/tu-chuanyi'
p552
aS'/directory/upreti-bishal-nath'
p553
aS'/directory/ventura-dora-fix'
p554
aS'/directory/wadia-spenta-rustom'
p555
aS'/directory/wang-en-duo'
p556
aS'/directory/yadav-jhillu-singh'
p557
aS'/directory/yam-vivian-wing-wah'
p558
aS'/directory/yang-xiongli'
p559
aS'/directory/zhang-kan'
p560
aS'/directory/andreo-carlos-santiago'
p561
aS'/directory/asenjo-juan-alfonso'
p562
aS'/directory/barbeito-erba-luis-hector'
p563
aS'/directory/bhan-maharaj-kishan'
p564
aS'/directory/camargo-erney-felicio-plessmann-de'
p565
aS'/directory/cavalcante-leny-alves'
p566
aS'/directory/chakravorty-dipankar'
p567
aS'/directory/chen-chien-jen'
p568
aS'/directory/chen-han-fu'
p569
aS'/directory/coovadia-hoosen'
p570
aS'/directory/dajczer-marcos'
p571
aS'/directory/das-veena'
p572
aS'/directory/de-araujo-cid-bartolomeu'
p573
aS'/directory/dipolo-aleman-reinaldo'
p574
aS'/directory/el-beltagy-adel-el-sayed-tawfik'
p575
aS'/directory/fang-cheng'
p576
aS'/directory/gambini-rodolfo'
p577
aS'/directory/gu-bing-lin'
p578
aS'/directory/he-fuchu'
p579
aS'/directory/hong-maochun'
p580
aS'/directory/hussein-mahir-saleh'
p581
aS'/directory/jones-monty-patrick'
p582
aS'/directory/li-can'
p583
aS'/directory/lin-justin-yifu'
p584
aS'/directory/liu-kopin'
p585
aS'/directory/lohani-bindu-nath'
p586
aS'/directory/maler-karl-goran'
p587
aS'/directory/martinez-aguilera-servet'
p588
aS'/directory/murenzi-romain'
p589
aS'/directory/paredes-lopez-octavio'
p590
aS'/directory/patarroyo-murillo-manuel-elkin'
p591
aS'/directory/ramanathan-veerabhadran'
p592
aS'/directory/ratnasooriya-wanigasekara-daya'
p593
aS'/directory/safavi-afsaneh'
p594
aS'/directory/sahni-ashok'
p595
aS'/directory/sathyamurthy-narayanasami'
p596
aS'/directory/shi-yaolin'
p597
aS'/directory/shu-frank-hsia-san'
p598
aS'/directory/sopory-sudhir-kumar'
p599
aS'/directory/tenenblat-keti'
p600
aS'/directory/van-ginkel-hans-j'
p601
aS'/directory/wang-andrew-h-j'
p602
aS'/directory/wang-zhizhen-chih-chen'
p603
aS'/directory/wen-lan'
p604
aS'/directory/yu-su-may'
p605
aS'/directory/zhu-rixiang'
p606
aS'/directory/al-khaja-najib-mohd-hadi'
p607
aS'/directory/al-kharafi-fayzah-ma'
p608
aS'/directory/arroyo-mary-therese-kalin'
p609
aS'/directory/ashenafi-mogessie'
p610
aS'/directory/autrey-louis-jean-claude'
p611
aS'/directory/bagchi-biman'
p612
aS'/directory/barbosa-joao-lucas-marques'
p613
aS'/directory/bhattacharyya-bhabatarak'
p614
aS'/directory/caicedo-xavier'
p615
aS'/directory/castilla-zenobi-juan-carlos'
p616
aS'/directory/chan-sunney-i'
p617
aS'/directory/crutzen-paul-josef'
p618
aS'/directory/ellis-george'
p619
aS'/directory/fu-ting-dong'
p620
aS'/directory/goswami-jitendra-nath'
p621
aS'/directory/grebogi-celso'
p622
aS'/directory/gumedzoe-yawovi-mawuena-dieudonne'
p623
aS'/directory/ha-huy-khoai'
p624
aS'/directory/hajiyev-asaf-haji-oglu'
p625
aS'/directory/hamzah-riyad-yousif'
p626
aS'/directory/han-qide-chide'
p627
aS'/directory/herren-hans-rudolf'
p628
aS'/directory/herrera-estrella-luis-rafael'
p629
aS'/directory/ho-tuan-hua-david'
p630
aS'/directory/hou-jianguo'
p631
aS'/directory/hounkonnou-mahouton-norbert'
p632
aS'/directory/hussain-malek-gm'
p633
aS'/directory/ip-nancy-yuk-yu'
p634
aS'/directory/izadpanah-jahromi-keramatollah'
p635
aS'/directory/jemmis-eluvathingal-devassy'
p636
aS'/directory/katiyar-sarvagya-singh'
p637
aS'/directory/klein-michael-lawrence'
p638
aS'/directory/li-jiayang'
p639
aS'/directory/liu-chao-han'
p640
aS'/directory/lu-ke'
p641
aS'/directory/lubchenco-jane'
p642
aS'/directory/malekzadeh-reza'
p643
aS'/directory/mugyenyi-peter-ndimbirwe'
p644
aS'/directory/muhongo-sospeter-mwijarubi'
p645
aS'/directory/murthy-mathur-ramabhadrashastry-narasimha'
p646
aS'/directory/nair-gopinath-balakrish'
p647
aS'/directory/padron-raul-alejandro'
p648
aS'/directory/peng-shie-ming'
p649
aS'/directory/qin-dahe'
p650
aS'/directory/radi-rafael'
p651
aS'/directory/rao-zihe'
p652
aS'/directory/rezende-sergio'
p653
aS'/directory/roesky-herbert-w'
p654
aS'/directory/sen-ashoke'
p655
aS'/directory/seyani-jameson-henry'
p656
aS'/directory/shabat-mohammed-musa'
p657
aS'/directory/shakoori-abdul-rauf'
p658
aS'/directory/singhvi-ashok-kumar'
p659
aS'/directory/suresh-subra'
p660
aS'/directory/tanya-vincent-ngwang'
p661
aS'/directory/terrones-humberto'
p662
aS'/directory/titanji-vincent-pryde-kehdingha'
p663
aS'/directory/urrutia-fucugauchi-jaime'
p664
aS'/directory/wong-henry-nai-ching'
p665
aS'/directory/wu-maw-kuen'
p666
aS'/directory/xie-sishen'
p667
aS'/directory/xu-zhizhan'
p668
aS'/directory/yang-wei'
p669
aS'/directory/zatz-mayana'
p670
aS'/directory/alper-howard'
p671
aS'/directory/anand-ashima'
p672
aS'/directory/araujo-aloisio-pessoa-de'
p673
aS'/directory/arfaei-hessamaddin'
p674
aS'/directory/ashraf-muhammad'
p675
aS'/directory/atluri-satya-n'
p676
aS'/directory/ayupov-shavkat-abdullaevich'
p677
aS'/directory/bahri-akica-akissa'
p678
aS'/directory/balakrishnan-narayanaswamy'
p679
aS'/directory/campos-de-carvalho-antonio-carlos'
p680
aS'/directory/de-la-pena-jose-antonio'
p681
aS'/directory/deb-bidyendu-mohan'
p682
aS'/directory/dorjnamjaa-dorj'
p683
aS'/directory/dosreis-george-alexandre'
p684
aS'/directory/fernandez-alves-julio-angel'
p685
aS'/directory/ganguly-nirmal-kumar'
p686
aS'/directory/graziani-mauro'
p687
aS'/directory/gros-francois'
p688
aS'/directory/gupta-laxmi-chand'
p689
aS'/directory/hassan-mohammad-osman'
p690
aS'/directory/hu-hesheng'
p691
aS'/directory/hussain-rabia'
p692
aS'/directory/kaveh-ali'
p693
aS'/directory/khan-hameed-ahmed'
p694
aS'/directory/khan-muhammad-ajmal'
p695
aS'/directory/kim-yong-hae'
p696
aS'/directory/krishnaswamy-kamala'
p697
aS'/directory/li-jinghai'
p698
aS'/directory/mirsaidov-ulmas'
p699
aS'/directory/ou-yang-zhong-can'
p700
aS'/directory/ouyang-ziyuan'
p701
aS'/directory/paul-dalim-kumar'
p702
aS'/directory/perez-jose-fernando'
p703
aS'/directory/ramkissoon-harold'
p704
aS'/directory/reddy-batmanathan-dayanand'
p705
aS'/directory/romo-ranulfo'
p706
aS'/directory/seade-kuri-jose-antonio'
p707
aS'/directory/singh-tej-pal'
p708
aS'/directory/surolia-avadhesha'
p709
aS'/directory/toguebaye-bhen-sikina'
p710
aS'/directory/verma-desh-pal-singh'
p711
aS'/directory/xu-ruren'
p712
aS'/directory/abdul-salam-jasem-m'
p713
aS'/directory/ai-guoxiang'
p714
aS'/directory/aragao-de-carvalho-carlos-alberto'
p715
aS'/directory/azad-ahmed-abdullah'
p716
aS'/directory/bevilacqua-luiz'
p717
aS'/directory/cavalheiro-esper-abrao'
p718
aS'/directory/chi-je-geun'
p719
aS'/directory/choudhary-muhammad-iqbal'
p720
aS'/directory/colli-walter'
p721
aS'/directory/cordaro-paulo-domingos'
p722
aS'/directory/datta-kasturi'
p723
aS'/directory/davidovich-luiz'
p724
aS'/directory/desiraju-gautam-r'
p725
aS'/directory/el-hassan-ahmed-mohamed'
p726
aS'/directory/gevers-wieland'
p727
aS'/directory/gonzaga-clovis-caesar'
p728
aS'/directory/guo-lei'
p729
aS'/directory/guzman-maria-guadalupe'
p730
aS'/directory/iusem-alfredo-noel'
p731
aS'/directory/jan-mohammad-qasim'
p732
aS'/directory/manoharan-periakaruppan'
p733
aS'/directory/marchesin-dan'
p734
aS'/directory/mariscotti-mario-alberto-juan'
p735
aS'/directory/ogallo-laban'
p736
aS'/directory/pang-tikki'
p737
aS'/directory/petters-sunday-williamson'
p738
aS'/directory/ranganathan-srinivasa'
p739
aS'/directory/rao-manchanahalli-rangaswamy-satyanarayana'
p740
aS'/directory/rosswall-thomas'
p741
aS'/directory/salih-abdin-mohamed-ali'
p742
aS'/directory/singh-jamuna-sharan'
p743
aS'/directory/sinha-kalyan-bidhan'
p744
aS'/directory/siqueira-jose-oswaldo'
p745
aS'/directory/somayajulu-bhamidipati-lk'
p746
aS'/directory/toma-henrique-eisi'
p747
aS'/directory/tsetseg-baljinova'
p748
aS'/directory/xian-dingchang'
p749
aS'/directory/xu-shaoxie'
p750
aS'/directory/alberts-bruce-m'
p751
aS'/directory/barsbold-rinchen'
p752
aS'/directory/bass-hyman'
p753
aS'/directory/chandra-hombe-gowda-sharat'
p754
aS'/directory/chen-ding-shinn'
p755
aS'/directory/chen-jia-er'
p756
aS'/directory/cheng-jin-pei'
p757
aS'/directory/chi-cheng-wu'
p758
aS'/directory/dasgupta-partha-sarathi'
p759
aS'/directory/dissanayake-chandrasekara-bandara'
p760
aS'/directory/goel-prem-shankar'
p761
aS'/directory/hong-de-yuan'
p762
aS'/directory/hong-tao'
p763
aS'/directory/kulkarni-bhaskar-d'
p764
aS'/directory/lee-jai-young'
p765
aS'/directory/leon-portilla-miguel'
p766
aS'/directory/li-desheng'
p767
aS'/directory/li-guojie'
p768
aS'/directory/mahajan-ramesh-chander'
p769
aS'/directory/ming-nai-ben'
p770
aS'/directory/mizrahi-valerie'
p771
aS'/directory/mukherjee-debashis'
p772
aS'/directory/parra-jose-roberto-postali'
p773
aS'/directory/pei-gang'
p774
aS'/directory/qaim-syed-muhammad'
p775
aS'/directory/ramamurthy-valangiman-subramanian'
p776
aS'/directory/ravindranath-vijayalakshmi'
p777
aS'/directory/roy-shasanka-mohan'
p778
aS'/directory/sabiiti-elly-nyambobo'
p779
aS'/directory/serageldin-ismail'
p780
aS'/directory/singh-lalji'
p781
aS'/directory/sinha-bikash'
p782
aS'/directory/sood-ajay-kumar'
p783
aS'/directory/tandon-sampat-kumar'
p784
aS'/directory/torres-peimbert-silvia'
p785
aS'/directory/tsong-tien-tzou'
p786
aS'/directory/van-montagu-marc'
p787
aS'/directory/vesentini-edoardo'
p788
aS'/directory/vijayan-mamannamana'
p789
aS'/directory/wang-pin-xian'
p790
aS'/directory/xu-guanhua'
p791
aS'/directory/zhang-chun-ting'
p792
aS'/directory/zhang-weiping'
p793
aS'/directory/zhou-bingkun'
p794
aS'/directory/zhu-qingshi'
p795
aS'/directory/zhisheng'
p796
aS'/directory/ardalan-farhad'
p797
aS'/directory/bayoumi-riad-abdel-latif'
p798
aS'/directory/castellanos-serra-lila'
p799
aS'/directory/cazzulo-juan-jose'
p800
aS'/directory/chaimovich-hernan'
p801
aS'/directory/chen-louis-hy'
p802
aS'/directory/chen-yong'
p803
aS'/directory/de-figueiredo-djairo-guedes'
p804
aS'/directory/dutta-majumder-dwijesh-kumar'
p805
aS'/directory/fan-hai-fu'
p806
aS'/directory/firouzabadi-habib'
p807
aS'/directory/gadagkar-raghavendra'
p808
aS'/directory/gaur-vinod-k'
p809
aS'/directory/griffiths-phillip'
p810
aS'/directory/guarneros-pena-gabriel'
p811
aS'/directory/gupta-chhitar-mal'
p812
aS'/directory/han-kyu'
p813
aS'/directory/haq-anwar-ul'
p814
aS'/directory/hentati-faycal'
p815
aS'/directory/konotey-ahulu-felix-israel-domeno'
p816
aS'/directory/kwon-wook-hyun'
p817
aS'/directory/liu-xin-yuan'
p818
aS'/directory/mansouri-reza'
p819
aS'/directory/mathur-asha'
p820
aS'/directory/mboup-souleymane'
p821
aS'/directory/mittal-jai-pal'
p822
aS'/directory/mujeeb-kazi-abdul'
p823
aS'/directory/ngo-viet-trung'
p824
aS'/directory/nussenzveig-herch-moyses'
p825
aS'/directory/ramasami-thirumalachari'
p826
aS'/directory/ramirez-dolores'
p827
aS'/directory/rodriguez-luis-felipe'
p828
aS'/directory/rudomin-zevnovaty-pablo'
p829
aS'/directory/salzano-francisco-mauro'
p830
aS'/directory/shastry-b-sriram'
p831
aS'/directory/sivaram-swaminathan'
p832
aS'/directory/su-zhao-bin'
p833
aS'/directory/wambebe-charles'
p834
aS'/directory/wang-fosong'
p835
aS'/directory/yan-luguang'
p836
aS'/directory/zhang-qifa'
p837
aS'/directory/zhou-chaochen'
p838
aS'/directory/atweh-samir-f'
p839
aS'/directory/bolivar-zapata-francisco'
p840
aS'/directory/cetto-kramis-ana-maria'
p841
aS'/directory/chandrasekaran-srinivasan'
p842
aS'/directory/charreau-eduardo-h'
p843
aS'/directory/chen-yun-tai'
p844
aS'/directory/chen-zhu'
p845
aS'/directory/chitre-shashikumar-madhusudan'
p846
aS'/directory/dattagupta-sushanta'
p847
aS'/directory/dellagi-koussay'
p848
aS'/directory/di-prisco-carlos-augusto'
p849
aS'/directory/dong-shaojun'
p850
aS'/directory/franco-avilio-antonio'
p851
aS'/directory/guo-jing-kun'
p852
aS'/directory/hasan-mashooda'
p853
aS'/directory/hasnain-seyed-ehtesham'
p854
aS'/directory/hwu-jih-ru'
p855
aS'/directory/jairajpuri-mohammad-shamim'
p856
aS'/directory/jha-sudhanshu-s'
p857
aS'/directory/king-david-anthony'
p858
aS'/directory/lantican-ricardo-manzo'
p859
aS'/directory/li-yiyi'
p860
aS'/directory/lin-qun'
p861
aS'/directory/ndiaye-ahmadou-lamine'
p862
aS'/directory/pandian-thavamani-jegajothivel'
p863
aS'/directory/rao-palle-rama'
p864
aS'/directory/sabatini-david-domingo'
p865
aS'/directory/tchuente-maurice'
p866
aS'/directory/tsui-daniel-chee'
p867
aS'/directory/viana-da-silva-marcelo-miranda'
p868
aS'/directory/wang-zhi-xin'
p869
aS'/directory/abegaz-berhanu-molla'
p870
aS'/directory/baydoun-elias'
p871
aS'/directory/cheetham-anthony-k'
p872
aS'/directory/datta-asis'
p873
aS'/directory/de-la-pena-auerbach-luis'
p874
aS'/directory/fayyazuddin'
p875
aS'/directory/ferraz-mello-sylvio'
p876
aS'/directory/gattass-ricardo'
p877
aS'/directory/govil-girjesh'
p878
aS'/directory/hang-chang-chieh'
p879
aS'/directory/karim-zahurul'
p880
aS'/directory/kessar-satinder-vir'
p881
aS'/directory/lee-ho-wang'
p882
aS'/directory/li-fang-hua'
p883
aS'/directory/ma-zhi-ming'
p884
aS'/directory/montenegro-gloria'
p885
aS'/directory/moura-antonio-divino'
p886
aS'/directory/mukunda-narasimhaiengar'
p887
aS'/directory/nagakura-saburo'
p888
aS'/directory/najim-mohamed'
p889
aS'/directory/okali-david-uke-ukiwe'
p890
aS'/directory/pal-sankar-kumar'
p891
aS'/directory/parthasarathy-kalyanapuram-rangachari'
p892
aS'/directory/patnaik-lalit-mohan'
p893
aS'/directory/ramos-victor-alberto'
p894
aS'/directory/singh-virendra'
p895
aS'/directory/sreenivasan-katepalli-raju'
p896
aS'/directory/srinivasan-ms'
p897
aS'/directory/tang-jinfa'
p898
aS'/directory/tirao-juan'
p899
aS'/directory/valiathan-martanda-varma-sankaran'
p900
aS'/directory/wakil-salih-j'
p901
aS'/directory/zhu-zuoyan'
p902
aS'/directory/arber-werner'
p903
aS'/directory/babiker-abdel-ghayoum'
p904
aS'/directory/bai-chunli'
p905
aS'/directory/balali-mood-mahdi'
p906
aS'/directory/balasubramanian-dorairajan'
p907
aS'/directory/baran-enrique-j'
p908
aS'/directory/brieva-francisco'
p909
aS'/directory/camacho-manco-cesar-leopoldo'
p910
aS'/directory/campos-filomena-f'
p911
aS'/directory/cho-yongmin'
p912
aS'/directory/deekshatulu-bulusu-lakshmana'
p913
aS'/directory/do-carmo-manfredo-p'
p914
aS'/directory/egwang-thomas-gordon'
p915
aS'/directory/garruto-ralph-michael'
p916
aS'/directory/gunatilaka-aa-leslie'
p917
aS'/directory/hasnain-samar-syed'
p918
aS'/directory/herrera-martinez-luis-saturnino'
p919
aS'/directory/hussain-fazle'
p920
aS'/directory/iaccarino-maurizio'
p921
aS'/directory/inestrosa-nibaldo-c'
p922
aS'/directory/kumar-anil'
p923
aS'/directory/li-tatsien'
p924
aS'/directory/lomnitz-cinna'
p925
aS'/directory/paroda-rajendra-singh'
p926
aS'/directory/parodi-armando-j'
p927
aS'/directory/pasantes-morales-herminia'
p928
aS'/directory/rojas-eduardo'
p929
aS'/directory/toure-yeya-tiemoko'
p930
aS'/directory/tundisi-jose-galizia'
p931
aS'/directory/varadarajan-srinivasan'
p932
aS'/directory/agarwal-girish-saran'
p933
aS'/directory/ahmad-imtiaz'
p934
aS'/directory/ahmad-rafiq'
p935
aS'/directory/alsharhan-abdulrahman-sultan'
p936
aS'/directory/amati-daniele'
p937
aS'/directory/balaram-padmanabhan'
p938
aS'/directory/chan-tak-hang-bill'
p939
aS'/directory/chuchani-gabriel'
p940
aS'/directory/cowsik-ramanath'
p941
aS'/directory/de-la-cruz-francisco'
p942
aS'/directory/eltayeb-ibrahim'
p943
aS'/directory/herve-allamand-francisco'
p944
aS'/directory/jabbur-suhayl-jibrail'
p945
aS'/directory/kasturirangan-krishnaswamy'
p946
aS'/directory/kim-sung-hou'
p947
aS'/directory/krishnan-varadachari'
p948
aS'/directory/latorre-ramon'
p949
aS'/directory/lehn-jean-marie-p'
p950
aS'/directory/malik-kauser-abdulla'
p951
aS'/directory/molina-mario'
p952
aS'/directory/narayanamurti-venkatesh'
p953
aS'/directory/ozturk-mehmet'
p954
aS'/directory/panza-giuliano-francesco'
p955
aS'/directory/pignotti-alberto'
p956
aS'/directory/ratnasamy-paul'
p957
aS'/directory/robinson-edward'
p958
aS'/directory/rocha-miranda-carlos-eduardo-guinle-da'
p959
aS'/directory/santome-jose-alberto'
p960
aS'/directory/schrieffer-robert-j'
p961
aS'/directory/thulstrup-erik-w'
p962
aS'/directory/tian-zhao-wu'
p963
aS'/directory/varma-chandra-m'
p964
aS'/directory/vidyasagar-mathukumalli'
p965
aS'/directory/zakri-abdul-hamid'
p966
aS'/directory/chakravorty-animesh'
p967
aS'/directory/chidambaram-rajagopala'
p968
aS'/directory/das-kumar-vg'
p969
aS'/directory/diopoh-kore-jacques'
p970
aS'/directory/durrani-tariq-salim'
p971
aS'/directory/edee-emmanuel-bka-mawulikplimi'
p972
aS'/directory/farhud-dariush-d'
p973
aS'/directory/guidao-gomes-affonso-augusto'
p974
aS'/directory/gupta-harsh-kumar'
p975
aS'/directory/hao-bai-lin'
p976
aS'/directory/karunanayake-eric-hamilton'
p977
aS'/directory/kausel-v-edgar-g'
p978
aS'/directory/krieger-eduardo-moacyr'
p979
aS'/directory/limonta-vidal-manuel-de-jesus'
p980
aS'/directory/linden-rafael'
p981
aS'/directory/mourao-paulo'
p982
aS'/directory/namsrai-khavtgain'
p983
aS'/directory/nath-indira'
p984
aS'/directory/ramakrishnan-palayanoor-sivaswamy'
p985
aS'/directory/ramdas-anant-krishna'
p986
aS'/directory/sharma-manju'
p987
aS'/directory/shukla-jagadish'
p988
aS'/directory/solbrig-otto-thomas'
p989
aS'/directory/svasti-jisnuson'
p990
aS'/directory/teng-paul-piang-siong'
p991
aS'/directory/valdiya-khadg-singh'
p992
aS'/directory/viswanadham-nukala'
p993
aS'/directory/voelter-wolfgang'
p994
aS'/directory/xu-zhi-hong'
p995
aS'/directory/zeng-qing-cun'
p996
aS'/directory/al-athel-saleh-abdulrahman'
p997
aS'/directory/basu-sandip-kumar'
p998
aS'/directory/chang-kung-ching'
p999
aS'/directory/essien-etim-moses'
p1000
aS'/directory/george-manapurathu-v'
p1001
aS'/directory/huber-robert'
p1002
aS'/directory/hui-yongzheng'
p1003
aS'/directory/jamshidi-mohammad-mo'
p1004
aS'/directory/krickeberg-klaus'
p1005
aS'/directory/kumar-narendra'
p1006
aS'/directory/munasinghe-mohan'
p1007
aS'/directory/perez-rojas-hugo-celso'
p1008
aS'/directory/raghunathan-madabusi-santanam'
p1009
aS'/directory/rama-rao-venkata'
p1010
aS'/directory/sancar-aziz'
p1011
aS'/directory/shi-yuanchun'
p1012
aS'/directory/su-jilan-chih-lan-su'
p1013
aS'/directory/thomas-john-meurig'
p1014
aS'/directory/verma-inder-mohan'
p1015
aS'/directory/virasoro-miguel-angel'
p1016
aS'/directory/bambah-ram-prakash'
p1017
aS'/directory/chou-chang-hung'
p1018
aS'/directory/el-bayoumi-mohamed-ashraf'
p1019
aS'/directory/feng-duan'
p1020
aS'/directory/ferreira-sergio-henrique'
p1021
aS'/directory/gan-fuxi'
p1022
aS'/directory/hong-guo-fan'
p1023
aS'/directory/joshi-shri-krishna'
p1024
aS'/directory/le-dung-trang'
p1025
aS'/directory/liu-guangding'
p1026
aS'/directory/mashelkar-raghunath-anant'
p1027
aS'/directory/mehta-goverdhan'
p1028
aS'/directory/min-enze'
p1029
aS'/directory/mitra-asoke-nath'
p1030
aS'/directory/padmanaban-govindarajan'
p1031
aS'/directory/rao-udipi-ramachandra'
p1032
aS'/directory/raven-peter-h'
p1033
aS'/directory/simis-aron'
p1034
aS'/directory/villegas-gloria-m'
p1035
aS'/directory/wang-erkang'
p1036
aS'/directory/bhatia-chittranjan-r'
p1037
aS'/directory/dutra-de-oliveira-jose-eduardo'
p1038
aS'/directory/gomez-pompa-arturo'
p1039
aS'/directory/kornhauser-frazer-aleksandra'
p1040
aS'/directory/li-jia-ming'
p1041
aS'/directory/medina-ernesto'
p1042
aS'/directory/prance-ghillean-t'
p1043
aS'/directory/rolz-asturias-carlos-e'
p1044
aS'/directory/rubbia-carlo'
p1045
aS'/directory/tandon-prakash-narain'
p1046
aS'/directory/vicuna-rafael'
p1047
aS'/directory/zhang-cunhao'
p1048
aS'/directory/albuquerque-edson-xavier'
p1049
aS'/directory/alpers-michael-philip'
p1050
aS'/directory/azzam-rasheed-ma'
p1051
aS'/directory/badran-adnan'
p1052
aS'/directory/barrantes-francisco-jose'
p1053
aS'/directory/bunster-weitzman-claudio'
p1054
aS'/directory/cadenas-enrique'
p1055
aS'/directory/cho-zang-hee'
p1056
aS'/directory/de-mello-fernando-g'
p1057
aS'/directory/elnagdi-mohammed-hilmy'
p1058
aS'/directory/gadgil-madhav'
p1059
aS'/directory/gill-khem-singh'
p1060
aS'/directory/gu-fangzhou-fang-chou-ku'
p1061
aS'/directory/kailath-thomas'
p1062
aS'/directory/khin-maung-u'
p1063
aS'/directory/lal-rattan'
p1064
aS'/directory/mahajan-swadesh-mitter'
p1065
aS'/directory/mayor-federico'
p1066
aS'/directory/moran-lopez-jose-luis'
p1067
aS'/directory/palis-jacob'
p1068
aS'/directory/ramakrishnan-tiruppattur-venkatachalamurti'
p1069
aS'/directory/rapoport-eduardo-hugo'
p1070
aS'/directory/rashed-roshdi-hifni'
p1071
aS'/directory/roederer-juan-gualterio'
p1072
aS'/directory/sa-yakanit-virulh'
p1073
aS'/directory/salama-hussein-s'
p1074
aS'/directory/sarukhan-jose'
p1075
aS'/directory/soberon-acevedo-guillermo'
p1076
aS'/directory/sukh-dev'
p1077
aS'/directory/swarup-govind'
p1078
aS'/directory/tsui-lap-chee'
p1079
aS'/directory/yang-fujia'
p1080
aS'/directory/yuthavong-yongyuth'
p1081
aS'/directory/ahmad-viqar-uddin'
p1082
aS'/directory/buti-bimla'
p1083
aS'/directory/chen-chuang-tian'
p1084
aS'/directory/cordani-umberto-giuseppe'
p1085
aS'/directory/de-souza-wanderley'
p1086
aS'/directory/durrani-saeed'
p1087
aS'/directory/el-ashry-mohamed-taha'
p1088
aS'/directory/goldemberg-jose'
p1089
aS'/directory/harun-ar-rashid-am'
p1090
aS'/directory/jacob-gerhard'
p1091
aS'/directory/kerr-warwick-estevam'
p1092
aS'/directory/li-zhensheng'
p1093
aS'/directory/liao-i-chiu'
p1094
aS'/directory/lu-yongxiang'
p1095
aS'/directory/muhammed-amir'
p1096
aS'/directory/owen-guillermo'
p1097
aS'/directory/peerally-muhammad-abed'
p1098
aS'/directory/pena-diaz-antonio'
p1099
aS'/directory/perez-tamayo-ruy'
p1100
aS'/directory/qu-qinyue'
p1101
aS'/directory/randjbar-daemi-seifallah'
p1102
aS'/directory/sharma-man-mohan'
p1103
aS'/directory/surani-azim'
p1104
aS'/directory/tennakone-kirthi'
p1105
aS'/directory/wilbert-johannes'
p1106
aS'/directory/yu-lu'
p1107
aS'/directory/bai-zhidong'
p1108
aS'/directory/benmouna-mustapha'
p1109
aS'/directory/chela-flores-julian'
p1110
aS'/directory/chopra-virender-lal'
p1111
aS'/directory/chu-paul-cw'
p1112
aS'/directory/del-pino-veintimilla-eugenia-maria'
p1113
aS'/directory/hebeish-ali-ali'
p1114
aS'/directory/khush-gurdev-singh'
p1115
aS'/directory/kuku-aderemi-oluyomi'
p1116
aS'/directory/lima-elon-lages'
p1117
aS'/directory/malik-khursheed-ahmad'
p1118
aS'/directory/monckeberg-barros-fernando'
p1119
aS'/directory/msolla-peter-m'
p1120
aS'/directory/narlikar-jayant-vishnu'
p1121
aS'/directory/okelo-gideon-barak-agembo'
p1122
aS'/directory/onwumechili-cyril-agodi'
p1123
aS'/directory/panek-anita-dolly'
p1124
aS'/directory/requena-jaime'
p1125
aS'/directory/riazuddin-sheikh'
p1126
aS'/directory/rogers-peter-philips'
p1127
aS'/directory/rohatgi-pradeep-k'
p1128
aS'/directory/shamsher-ali-mohammad'
p1129
aS'/directory/siddiqui-bina-shaheen'
p1130
aS'/directory/sun-shu'
p1131
aS'/directory/woodman-ronald-f'
p1132
aS'/directory/abdou-mohamed'
p1133
aS'/directory/ali-syed-irtifaq'
p1134
aS'/directory/ang-how-ghee'
p1135
aS'/directory/arvia-alejandro-jorge'
p1136
aS'/directory/ben-sari-driss'
p1137
aS'/directory/bes-daniel-raul'
p1138
aS'/directory/chetsanga-christopher-j'
p1139
aS'/directory/chua-nam-hai'
p1140
aS'/directory/dao-vong-duc'
p1141
aS'/directory/dzinotyiweyi-heneri-amos-murima'
p1142
aS'/directory/ghassib-humam-bishara'
p1143
aS'/directory/groot-hernando'
p1144
aS'/directory/hamdan-mohammad-ahmad'
p1145
aS'/directory/hamoui-adnan'
p1146
aS'/directory/kayanja-frederick-ian-bantubano'
p1147
aS'/directory/kim-gyong-bong'
p1148
aS'/directory/makhubu-lydia-phindile'
p1149
aS'/directory/mansour-mohamed'
p1150
aS'/directory/martinez-palomo-adolfo'
p1151
aS'/directory/moncada-salvador'
p1152
aS'/directory/narasimha-roddam'
p1153
aS'/directory/narasimhan-mudumbai-seshachalu'
p1154
aS'/directory/rodriguez-iturbe-ignacio'
p1155
aS'/directory/seshadri-conjeevaram-srirangachari'
p1156
aS'/directory/sharma-arun-kumar'
p1157
aS'/directory/varadhan-sr-srinivasa'
p1158
aS'/directory/vargas-jose-israel'
p1159
aS'/directory/verjovsky-sola-alberto'
p1160
aS'/directory/youdeowei-anthony'
p1161
aS'/directory/al-shamlan-ali-abdullah'
p1162
aS'/directory/baghdadi-mohamed'
p1163
aS'/directory/bouramoue-christophe'
p1164
aS'/directory/eholie-rose-hubertine'
p1165
aS'/directory/gopalan-coluthur'
p1166
aS'/directory/hassan-saad-sm'
p1167
aS'/directory/lalor-gerald-cecil'
p1168
aS'/directory/mshigeni-keto-elitabu'
p1169
aS'/directory/nasim-anwar'
p1170
aS'/directory/omar-bin-abdul-rahman'
p1171
aS'/directory/ong-augustine-soon-hock'
p1172
aS'/directory/peimbert-manuel'
p1173
aS'/directory/peixoto-mauricio-matos'
p1174
aS'/directory/sagdeev-roald-zinnurovich'
p1175
aS'/directory/saidi-farrokh'
p1176
aS'/directory/seydi-hamet'
p1177
aS'/directory/sobouti-yousef'
p1178
aS'/directory/sun-honglie'
p1179
aS'/directory/vijh-ashok-kumar'
p1180
aS'/directory/zhao-zhong-xian'
p1181
aS'/directory/cho-alfred-yi'
p1182
aS'/directory/de-meis-leopoldo'
p1183
aS'/directory/hsu-kenneth-jinghwa'
p1184
aS'/directory/kan-yuet-wai'
p1185
aS'/directory/lee-yuan-tseh'
p1186
aS'/directory/llinas-rodolfo'
p1187
aS'/directory/majali-abdel-salam-atallah'
p1188
aS'/directory/mascarenhas-sergio'
p1189
aS'/directory/tata-jamshed-rustom'
p1190
aS'/directory/tien-ping-king'
p1191
aS'/directory/wang-james-c'
p1192
aS'/directory/zichichi-antonino'
p1193
aS'/directory/allende-rivera-jorge-eduardo'
p1194
aS'/directory/andriambololona-raoelina'
p1195
aS'/directory/ayensu-edward-solomon'
p1196
aS'/directory/ding-guoyu'
p1197
aS'/directory/el-baz-farouk'
p1198
aS'/directory/hassan-mohamed-hag-ali'
p1199
aS'/directory/javier-emil-quinto'
p1200
aS'/directory/jiang-boju'
p1201
aS'/directory/liang-dong-cai'
p1202
aS'/directory/rahman-atta-ur'
p1203
aS'/directory/toure-moctar'
p1204
aS'/directory/wasi-prawase'
p1205
aS'/directory/zhou-guangzhao'
p1206
aS'/directory/cardoso-fernando-henrique'
p1207
aS'/directory/el-sayed-mostafa-fahmi-amr'
p1208
aS'/directory/munch-guido'
p1209
aS'/directory/nguyen-van-hieu'
p1210
aS'/directory/patel-chandra-kumar-naranbhai'
p1211
aS'/directory/sequeira-luis'
p1212
aS'/directory/akhtar-muhammad'
p1213
aS'/directory/atiyah-michael-francis'
p1214
aS'/directory/bekoe-daniel-adzei'
p1215
aS'/directory/lee-tsung-dao'
p1216
aS'/directory/miledi-ricardo'
p1217
aS'/directory/rao-calyampudi-radhakrishna'
p1218
aS'/directory/rao-chintamani-nagesa-ramachandra'
p1219
aS'/directory/swaminathan-monkombu-sambasivan'
p1220
aS'/directory/ting-samuel-chao-chung'
p1221
aS'/directory/yang-chen-ning-frank'
p1222
a.