(lp0
S'/award_winners/hennessy_1426931.cfm'
p1
aS'/award_winners/patterson_2316693.cfm'
p2
aS'/award_winners/berners-lee_8087960.cfm'
p3
aS'/award_winners/diffie_8371646.cfm'
p4
aS'/award_winners/hellman_4055781.cfm'
p5
aS'/award_winners/stonebraker_1172121.cfm'
p6
aS'/award_winners/lamport_1205376.cfm'
p7
aS'/award_winners/goldwasser_8627889.cfm'
p8
aS'/award_winners/micali_9954407.cfm'
p9
aS'/award_winners/pearl_2658896.cfm'
p10
aS'/award_winners/valiant_2612174.cfm'
p11
aS'/award_winners/thacker_1336106.cfm'
p12
aS'/award_winners/liskov_1108679.cfm'
p13
aS'/award_winners/clarke_1167964.cfm'
p14
aS'/award_winners/emerson_1671460.cfm'
p15
aS'/award_winners/sifakis_1701095.cfm'
p16
aS'/award_winners/allen_1012327.cfm'
p17
aS'/award_winners/naur_1024454.cfm'
p18
aS'/award_winners/cerf_1083211.cfm'
p19
aS'/award_winners/kahn_4598637.cfm'
p20
aS'/award_winners/kay_3972189.cfm'
p21
aS'/award_winners/adleman_7308544.cfm'
p22
aS'/award_winners/rivest_1403005.cfm'
p23
aS'/award_winners/shamir_2327856.cfm'
p24
aS'/award_winners/dahl_6917600.cfm'
p25
aS'/award_winners/nygaard_5916220.cfm'
p26
aS'/award_winners/yao_1611524.cfm'
p27
aS'/award_winners/brooks_1002187.cfm'
p28
aS'/award_winners/gray_3649936.cfm'
p29
aS'/award_winners/engelbart_5078811.cfm'
p30
aS'/award_winners/pnueli_4725172.cfm'
p31
aS'/award_winners/blum_4659082.cfm'
p32
aS'/award_winners/feigenbaum_4167235.cfm'
p33
aS'/award_winners/reddy_9634208.cfm'
p34
aS'/award_winners/hartmanis_1059260.cfm'
p35
aS'/award_winners/stearns_1081900.cfm'
p36
aS'/award_winners/lampson_1142421.cfm'
p37
aS'/award_winners/milner_1569367.cfm'
p38
aS'/award_winners/corbato_1009471.cfm'
p39
aS'/award_winners/kahan_1023746.cfm'
p40
aS'/award_winners/sutherland_3467412.cfm'
p41
aS'/award_winners/cocke_2083115.cfm'
p42
aS'/award_winners/hopcroft_1053917.cfm'
p43
aS'/award_winners/tarjan_1092048.cfm'
p44
aS'/award_winners/karp_3256708.cfm'
p45
aS'/award_winners/wirth_1025774.cfm'
p46
aS'/award_winners/ritchie_1506389.cfm'
p47
aS'/award_winners/thompson_4588371.cfm'
p48
aS'/award_winners/cook_n991950.cfm'
p49
aS'/award_winners/codd_1000892.cfm'
p50
aS'/award_winners/hoare_4622167.cfm'
p51
aS'/award_winners/iverson_9147499.cfm'
p52
aS'/award_winners/floyd_3720707.cfm'
p53
aS'/award_winners/backus_0703524.cfm'
p54
aS'/award_winners/rabin_9681074.cfm'
p55
aS'/award_winners/scott_1193622.cfm'
p56
aS'/award_winners/newell_3167755.cfm'
p57
aS'/award_winners/simon_1031467.cfm'
p58
aS'/award_winners/knuth_1013846.cfm'
p59
aS'/award_winners/bachman_9385610.cfm'
p60
aS'/award_winners/dijkstra_1053701.cfm'
p61
aS'/award_winners/mccarthy_1118322.cfm'
p62
aS'/award_winners/wilkinson_0671216.cfm'
p63
aS'/award_winners/minsky_7440781.cfm'
p64
aS'/award_winners/hamming_1000652.cfm'
p65
aS'/award_winners/wilkes_1001395.cfm'
p66
aS'/award_winners/perlis_0132439.cfm'
p67
a.