(lp0
Vhttps://nam.edu/member/?member_id=zpcQBYCQ15P3dvX2Kig0rg%3D%3D
p1
aVhttps://nam.edu/member/?member_id=ZECMUEYf7WkpDslELh84UQ%3D%3D
p2
aVhttps://nam.edu/member/?member_id=9oPBl51LEO12q1XLkj5%2BkA%3D%3D
p3
aVhttps://nam.edu/member/?member_id=STQQ4M8zAxFIP8XSZ2ArDQ%3D%3D
p4
aVhttps://nam.edu/member/?member_id=F82h673ePHirQy3FnJ1uyA%3D%3D
p5
aVhttps://nam.edu/member/?member_id=4glbFR1w8Uv%2B8JMYnytBRw%3D%3D
p6
aVhttps://nam.edu/member/?member_id=aghvMwpzGva9FxwVsDow3g%3D%3D
p7
aVhttps://nam.edu/member/?member_id=TPrZbMHXncc%2Bc1ibKUs2ag%3D%3D
p8
aVhttps://nam.edu/member/?member_id=y9xSmDCaf%2BCfP1QHvRYqrA%3D%3D
p9
aVhttps://nam.edu/member/?member_id=1b8bjyR0KARk48KRNUkIbg%3D%3D
p10
aVhttps://nam.edu/member/?member_id=n9ZJoYWiILGeO7KPqEBWeQ%3D%3D
p11
aVhttps://nam.edu/member/?member_id=NVIrAgNsRja1pjNSVmrvhA%3D%3D
p12
aVhttps://nam.edu/member/?member_id=ml3g7Y9%2BmlPxmEut0cBbNg%3D%3D
p13
aVhttps://nam.edu/member/?member_id=%2FHQJiQ9bkKIG3h%2FUzEIoJg%3D%3D
p14
aVhttps://nam.edu/member/?member_id=r%2FAvzWpaTuwM%2FdnemS8hPg%3D%3D
p15
aVhttps://nam.edu/member/?member_id=B8IQDtR9kYUTQtE5MLLnOQ%3D%3D
p16
aVhttps://nam.edu/member/?member_id=TifUbVfcf7FGqFlnM%2B0C9Q%3D%3D
p17
aVhttps://nam.edu/member/?member_id=KhgH0RjJbVw78IepUvedZQ%3D%3D
p18
aVhttps://nam.edu/member/?member_id=RJ57j3ecYd%2FYjH9nK7lAhQ%3D%3D
p19
aVhttps://nam.edu/member/?member_id=Pe%2FOlaeO9e66jydA5HPBxA%3D%3D
p20
aVhttps://nam.edu/member/?member_id=httot%2B%2FnQkoAsNp0C16mqg%3D%3D
p21
aVhttps://nam.edu/member/?member_id=9UkvWV4j3nUhySwl5OKjWg%3D%3D
p22
aVhttps://nam.edu/member/?member_id=KMpXe3E8iW%2BAV0oUu%2BJAaA%3D%3D
p23
aVhttps://nam.edu/member/?member_id=bSA1Eh%2BArNr74QhoW5IuKw%3D%3D
p24
aVhttps://nam.edu/member/?member_id=8HLZZBI37pfJPBLvJBT5Ig%3D%3D
p25
aVhttps://nam.edu/member/?member_id=ufGoUVBsVNG90vLGOG18Fg%3D%3D
p26
aVhttps://nam.edu/member/?member_id=89n95EqrlDkb9LilW%2Br%2B4w%3D%3D
p27
aVhttps://nam.edu/member/?member_id=NCpMLHBFJLafacPDSoX%2F1A%3D%3D
p28
aVhttps://nam.edu/member/?member_id=YoJB%2BKkDVtRFwJ8cIappXA%3D%3D
p29
aVhttps://nam.edu/member/?member_id=KgLqDiEfVk5st%2Bkq1aPKSA%3D%3D
p30
aVhttps://nam.edu/member/?member_id=Em45wwmmMQtZCzFAJMFBhQ%3D%3D
p31
aVhttps://nam.edu/member/?member_id=BQSMEUMVG2RCw6Ja0%2FbD%2Bw%3D%3D
p32
aVhttps://nam.edu/member/?member_id=%2BHCpjMZVbdRl07OH7k2nLQ%3D%3D
p33
aVhttps://nam.edu/member/?member_id=Bt7k2rJxGK7iivF45Ff4Ag%3D%3D
p34
aVhttps://nam.edu/member/?member_id=f55sR%2FeY5U9FW6XHUiuDfQ%3D%3D
p35
aVhttps://nam.edu/member/?member_id=X0WOx8eTR2%2F7Me%2F2CzcaWw%3D%3D
p36
aVhttps://nam.edu/member/?member_id=fNNT83MDaIkonrZlKDSCqg%3D%3D
p37
aVhttps://nam.edu/member/?member_id=kQPmExe1KPFR8K1CdpuWog%3D%3D
p38
aVhttps://nam.edu/member/?member_id=ROfJmzhuiI2rcxUlVr8LmA%3D%3D
p39
aVhttps://nam.edu/member/?member_id=gdPcxJgMY9OrJSwKdB%2FHpQ%3D%3D
p40
aVhttps://nam.edu/member/?member_id=CCS6niJPOmSIpR2wd%2FELBg%3D%3D
p41
aVhttps://nam.edu/member/?member_id=108rtQML3JpzpJN1wGP8ug%3D%3D
p42
aVhttps://nam.edu/member/?member_id=GDycdZX6IyX54eZ0%2FNRhgA%3D%3D
p43
aVhttps://nam.edu/member/?member_id=Bc2ZLpFtObGRVljy4GFqdg%3D%3D
p44
aVhttps://nam.edu/member/?member_id=a%2FqsKGXcLErrH3efU31Neg%3D%3D
p45
aVhttps://nam.edu/member/?member_id=nYKR6uwKtfzChCTqVZMaXA%3D%3D
p46
aVhttps://nam.edu/member/?member_id=AQCSGkznVnvdG3Nd8F0P2A%3D%3D
p47
aVhttps://nam.edu/member/?member_id=JK8drNw92UICAup3nRFzfw%3D%3D
p48
aVhttps://nam.edu/member/?member_id=VWu4hjglLB%2Bq0NaQMgFmMw%3D%3D
p49
aVhttps://nam.edu/member/?member_id=2ky8kjhVSXzf9tWP2RPzbw%3D%3D
p50
aVhttps://nam.edu/member/?member_id=8x9%2Bvvbf1cemagOd%2By8Tnw%3D%3D
p51
aVhttps://nam.edu/member/?member_id=HrwBIPJd8XdKJIFenjtUUg%3D%3D
p52
aVhttps://nam.edu/member/?member_id=aZfmQH64O9rUNjNj9tN%2BoA%3D%3D
p53
aVhttps://nam.edu/member/?member_id=h2lFU4xJKRBBktZ9OMLR2A%3D%3D
p54
aVhttps://nam.edu/member/?member_id=SLr1XuCRiyyZTPcaUw3OoQ%3D%3D
p55
aVhttps://nam.edu/member/?member_id=fDMaltrSg0bAVJuNZRvxmg%3D%3D
p56
aVhttps://nam.edu/member/?member_id=lbtMbDklDNWBHjt13WTpnQ%3D%3D
p57
aVhttps://nam.edu/member/?member_id=ZR4CcjcYfH0mWQLg9WEVzA%3D%3D
p58
aVhttps://nam.edu/member/?member_id=yj5B9Vx96JahrgcXiEfwVg%3D%3D
p59
aVhttps://nam.edu/member/?member_id=t5g7%2Fv5SBpjWjJj7AU5NYQ%3D%3D
p60
aVhttps://nam.edu/member/?member_id=TxmZHfMfTwY07Nxfr2kNVQ%3D%3D
p61
aVhttps://nam.edu/member/?member_id=nNaYRcPHzCxCimmM77iFQA%3D%3D
p62
aVhttps://nam.edu/member/?member_id=qLvmhAhGMfrE7037zoZ48A%3D%3D
p63
aVhttps://nam.edu/member/?member_id=4EOI1GvFJYMlytu13TV4ZA%3D%3D
p64
aVhttps://nam.edu/member/?member_id=Wr1RTTCjlG3Ntl%2F69lXKnQ%3D%3D
p65
aVhttps://nam.edu/member/?member_id=6tNb4%2F4KdoQVl584nAt4IA%3D%3D
p66
aVhttps://nam.edu/member/?member_id=wt1P%2FhhhcjvGSiPs5uiAPQ%3D%3D
p67
aVhttps://nam.edu/member/?member_id=dxQ1yNQl8qFHheLe4%2BC6Bg%3D%3D
p68
aVhttps://nam.edu/member/?member_id=ATIn1yZm24s%2FA25HoddipA%3D%3D
p69
aVhttps://nam.edu/member/?member_id=iKAX0nlYlCQ7ACL4G2%2BUPQ%3D%3D
p70
aVhttps://nam.edu/member/?member_id=E1rXsmrz4H7q0WWx7giEUQ%3D%3D
p71
aVhttps://nam.edu/member/?member_id=%2B3RdvcQPyqZ9frmer2Od0Q%3D%3D
p72
aVhttps://nam.edu/member/?member_id=SiSRNzyMMaSD3MWLwUzxlA%3D%3D
p73
aVhttps://nam.edu/member/?member_id=x3%2Bfat7hsh%2B5QPAH%2BSS73g%3D%3D
p74
aVhttps://nam.edu/member/?member_id=b%2F%2FLtH0yVUBvylmzvZxWxw%3D%3D
p75
aVhttps://nam.edu/member/?member_id=M8QZFVBtgUs1MiYHmlO8bA%3D%3D
p76
aVhttps://nam.edu/member/?member_id=Y%2BQ608hBTvhI%2FBom%2FE2WSQ%3D%3D
p77
aVhttps://nam.edu/member/?member_id=jwi9z8UVcKnyKApOFzbXSQ%3D%3D
p78
aVhttps://nam.edu/member/?member_id=wupkbX1oCS6eCJ655T8T1A%3D%3D
p79
aVhttps://nam.edu/member/?member_id=vIRKQ7H5joJyp0mK9uvKRg%3D%3D
p80
aVhttps://nam.edu/member/?member_id=3V0EY3kn3UXFMLz1ZMNP9g%3D%3D
p81
aVhttps://nam.edu/member/?member_id=5SL%2BunH2xD4DEd1nAzszrg%3D%3D
p82
aVhttps://nam.edu/member/?member_id=0v%2BjCU1wT2ZgQnhrt4tNqA%3D%3D
p83
aVhttps://nam.edu/member/?member_id=KHeDChB5m7Gji6BeAQTanw%3D%3D
p84
aVhttps://nam.edu/member/?member_id=duikqStUi5budPcr01kKsg%3D%3D
p85
aVhttps://nam.edu/member/?member_id=8C%2Fxow3v37mk3%2BoSc%2B4WWQ%3D%3D
p86
aVhttps://nam.edu/member/?member_id=h9iKESDpIlaVeTesAFEviw%3D%3D
p87
aVhttps://nam.edu/member/?member_id=ZwFdATgq5zRHQ4XuH0TwcA%3D%3D
p88
aVhttps://nam.edu/member/?member_id=1ZQIdWvM2sNOqyP6IOWOkw%3D%3D
p89
aVhttps://nam.edu/member/?member_id=2OwBdQjmLNINqD47eAG08w%3D%3D
p90
aVhttps://nam.edu/member/?member_id=Htn245sMc6XOBajiws9Xuw%3D%3D
p91
aVhttps://nam.edu/member/?member_id=w70vaw76u5G3mFfiH6x1UA%3D%3D
p92
aVhttps://nam.edu/member/?member_id=SGScIfquXRwfuEPZJEZo5w%3D%3D
p93
aVhttps://nam.edu/member/?member_id=MRq14hau5NMCkkcE6Y%2F2Og%3D%3D
p94
aVhttps://nam.edu/member/?member_id=PFPb0DaSCNsUmz%2B2Nv7jTg%3D%3D
p95
aVhttps://nam.edu/member/?member_id=IRCZuMhzIjMMepPKME3%2FbQ%3D%3D
p96
aVhttps://nam.edu/member/?member_id=%2Bj8RmMeuWmAn2cikAjsxgQ%3D%3D
p97
aVhttps://nam.edu/member/?member_id=XT86zeNB1wc2xjeU2ny8RQ%3D%3D
p98
aVhttps://nam.edu/member/?member_id=Dg6yz0knZB%2BgBQIEXdkYSQ%3D%3D
p99
aVhttps://nam.edu/member/?member_id=UzVFoHwyX2iqFU%2BARY7fDg%3D%3D
p100
aVhttps://nam.edu/member/?member_id=L3piudrIRxrpLHVzvbZg1w%3D%3D
p101
aVhttps://nam.edu/member/?member_id=be4%2BCIb3NfQu2a7Rzm069w%3D%3D
p102
aVhttps://nam.edu/member/?member_id=UAD3Moi5wqRVKdr6QgZWgw%3D%3D
p103
aVhttps://nam.edu/member/?member_id=UZGVJX%2BEJ%2B8uXz3bE5U%2FXw%3D%3D
p104
aVhttps://nam.edu/member/?member_id=yoivKap1EwscjYUXhn5CEA%3D%3D
p105
aVhttps://nam.edu/member/?member_id=pwiEat4wlT3iw2JVV%2F%2BMKg%3D%3D
p106
aVhttps://nam.edu/member/?member_id=OGx%2Fyq%2Fa%2FYq6klPvAB3%2BsQ%3D%3D
p107
aVhttps://nam.edu/member/?member_id=6TFTEJJydgHgAi9Te42jkA%3D%3D
p108
aVhttps://nam.edu/member/?member_id=oalH6CXTw4gnrX06RJlpfg%3D%3D
p109
aVhttps://nam.edu/member/?member_id=bzywPxanDarchIPX6R2LjQ%3D%3D
p110
aVhttps://nam.edu/member/?member_id=Tv6evrzeHMZmB6QRGCHtsw%3D%3D
p111
aVhttps://nam.edu/member/?member_id=WB0Wt4rZVnE0gmSiKjiSPQ%3D%3D
p112
aVhttps://nam.edu/member/?member_id=TxWtZ2j0aMo4OJN1J17pjw%3D%3D
p113
aVhttps://nam.edu/member/?member_id=z8LEsXwteQrVnBhZscZTfA%3D%3D
p114
aVhttps://nam.edu/member/?member_id=ex4q6hUHWykdq4%2BTR30j4Q%3D%3D
p115
aVhttps://nam.edu/member/?member_id=e4RhdH41CSLm8yzaa0hfOg%3D%3D
p116
aVhttps://nam.edu/member/?member_id=7cAYsFMZqmoDUSQAKx%2F7VA%3D%3D
p117
aVhttps://nam.edu/member/?member_id=83WhN7gIed81xqZihLGpyw%3D%3D
p118
aVhttps://nam.edu/member/?member_id=UtPZFXRPuQ%2FNIQ56EXnMRw%3D%3D
p119
aVhttps://nam.edu/member/?member_id=qKDln3Z4OvYoksUZNemuyg%3D%3D
p120
aVhttps://nam.edu/member/?member_id=DVLQGFESh%2BEUmFknrawtsw%3D%3D
p121
aVhttps://nam.edu/member/?member_id=I7pPcEXy7TQmJuyZHeuNfg%3D%3D
p122
aVhttps://nam.edu/member/?member_id=ESuF0EL8cC4wYCXUl38G5A%3D%3D
p123
aVhttps://nam.edu/member/?member_id=ZRwjeCfwcFzRC1h6NQG81Q%3D%3D
p124
aVhttps://nam.edu/member/?member_id=DdTlrVCLFqNj4a7dGv9KTA%3D%3D
p125
aVhttps://nam.edu/member/?member_id=03MmSsCPBEC9k3Jm8S%2FSXg%3D%3D
p126
aVhttps://nam.edu/member/?member_id=CIHd%2F6YyPPGaIrKnqAzSMw%3D%3D
p127
aVhttps://nam.edu/member/?member_id=ALJKRJnCvwpHkm6AsL6pug%3D%3D
p128
aVhttps://nam.edu/member/?member_id=8Q4ZjSUCK0Z9i66lbKLk1g%3D%3D
p129
aVhttps://nam.edu/member/?member_id=jYRXV8O5xT3urnrfjO0OkA%3D%3D
p130
aVhttps://nam.edu/member/?member_id=oHjTyJ75GXsiAyqYAIhMjQ%3D%3D
p131
aVhttps://nam.edu/member/?member_id=USww6w7LyYgP%2BIuR2BPrMQ%3D%3D
p132
aVhttps://nam.edu/member/?member_id=8eqGQs%2BdNaiCDCEsE%2FKyeg%3D%3D
p133
aVhttps://nam.edu/member/?member_id=oTaJdfmRDvpYZme4hJy%2F%2Bg%3D%3D
p134
aVhttps://nam.edu/member/?member_id=4GOxjOA9g9UKz6JMVUl6oA%3D%3D
p135
aVhttps://nam.edu/member/?member_id=Hs9feJjXuuMJyCtgIy%2FhBg%3D%3D
p136
aVhttps://nam.edu/member/?member_id=8VLAvVn0bEiBOsXJ0kAL6Q%3D%3D
p137
aVhttps://nam.edu/member/?member_id=zfr4qk%2BNAwgXYvM21eEmHA%3D%3D
p138
aVhttps://nam.edu/member/?member_id=%2FDPaSN%2F%2BIEUfH7j12s4e3g%3D%3D
p139
aVhttps://nam.edu/member/?member_id=77aaWAmPHvIZS4nhHicvPQ%3D%3D
p140
aVhttps://nam.edu/member/?member_id=prts2nEyzMx2UhzR35DexQ%3D%3D
p141
aVhttps://nam.edu/member/?member_id=6mvIkwM6v9ZAQu%2FZvQW9tQ%3D%3D
p142
aVhttps://nam.edu/member/?member_id=5ob4AEGTOBgdYuNBOCtYFA%3D%3D
p143
aVhttps://nam.edu/member/?member_id=s3Pwjy4J5J0vRcBvtwnVOA%3D%3D
p144
aVhttps://nam.edu/member/?member_id=aL08Gl%2BCucn5w3RiM6Q0CA%3D%3D
p145
aVhttps://nam.edu/member/?member_id=eDe2%2BWtJ1Ss0f9ijPfBQzQ%3D%3D
p146
aVhttps://nam.edu/member/?member_id=YUN%2BnL8THcPm1WCMJvv%2BDQ%3D%3D
p147
aVhttps://nam.edu/member/?member_id=SiSdx5c7ehoMHOr8%2BSji6Q%3D%3D
p148
aVhttps://nam.edu/member/?member_id=4RKaoA4ByMhuBywNgfQfYQ%3D%3D
p149
aVhttps://nam.edu/member/?member_id=u3eC34RTSDEvHlFOK4JYWA%3D%3D
p150
aVhttps://nam.edu/member/?member_id=2VbzOatdW78uHzoqxpn7Ag%3D%3D
p151
aVhttps://nam.edu/member/?member_id=VEOMWsHBzDRhT4pUixjXFg%3D%3D
p152
aVhttps://nam.edu/member/?member_id=M%2F5JKUSDH8XtdVXTIDfDYg%3D%3D
p153
aVhttps://nam.edu/member/?member_id=jDpXzkbWPElg09ygdXOJhg%3D%3D
p154
aVhttps://nam.edu/member/?member_id=F2vfzpMzgkYi%2BVpHHCDI%2Bg%3D%3D
p155
aVhttps://nam.edu/member/?member_id=00hK6tGZYdPu2orEhjVGcw%3D%3D
p156
aVhttps://nam.edu/member/?member_id=EUdJbR33ydzzP5VQuu44mg%3D%3D
p157
aVhttps://nam.edu/member/?member_id=sxBbK19BcL6DE5kRpfhasw%3D%3D
p158
aVhttps://nam.edu/member/?member_id=pRnvnkeDiAOx4JI%2B8fUNHw%3D%3D
p159
aVhttps://nam.edu/member/?member_id=Lj6jd37fcYCR6y3wyP0CbA%3D%3D
p160
aVhttps://nam.edu/member/?member_id=wGU8qdcQqu5Mir%2FIG9YxGg%3D%3D
p161
aVhttps://nam.edu/member/?member_id=rodlei5xXI3zXx9pPjZfeA%3D%3D
p162
aVhttps://nam.edu/member/?member_id=c9n1OFncbRMmW4aQFxglqw%3D%3D
p163
aVhttps://nam.edu/member/?member_id=PEKYtP9a9ZLEqTud7Qnsqg%3D%3D
p164
aVhttps://nam.edu/member/?member_id=dwV%2BLN%2BjUk%2FNRZuGFMRSkQ%3D%3D
p165
aVhttps://nam.edu/member/?member_id=hyR23Yl0CibU557RYt56Cg%3D%3D
p166
aVhttps://nam.edu/member/?member_id=%2BtkAAZTB6CJHv8vqF1HmqA%3D%3D
p167
aVhttps://nam.edu/member/?member_id=Y7TkyzyDSfQD5Canuvq%2ByQ%3D%3D
p168
aVhttps://nam.edu/member/?member_id=C7U%2F643ahhdH%2FKbYqZyf%2Bw%3D%3D
p169
aVhttps://nam.edu/member/?member_id=Tx3dsd%2FeebQGwEcoHv7%2B5A%3D%3D
p170
aVhttps://nam.edu/member/?member_id=tafP8WqbEXG4A3NZd%2FuMew%3D%3D
p171
aVhttps://nam.edu/member/?member_id=Fp%2F%2FDkcMUA5Ztm%2FLHyEwBg%3D%3D
p172
aVhttps://nam.edu/member/?member_id=gxCOxbAH%2ButBS2tb1U9x5A%3D%3D
p173
aVhttps://nam.edu/member/?member_id=AMHF8uk087g1yJ19WvKQ%2Fw%3D%3D
p174
aVhttps://nam.edu/member/?member_id=UD%2B%2FOY5M0sRn7LmG6JsP%2FA%3D%3D
p175
aVhttps://nam.edu/member/?member_id=A5OvRw6iQmp5Wsm5Bu8eyg%3D%3D
p176
aVhttps://nam.edu/member/?member_id=tXHq4A%2BsvmfTX8kg9aSmmw%3D%3D
p177
aVhttps://nam.edu/member/?member_id=mqIuNqTrL8MIk94RKl39hQ%3D%3D
p178
aVhttps://nam.edu/member/?member_id=R%2Fmc5dwPZ88Sp5rnT9zByA%3D%3D
p179
aVhttps://nam.edu/member/?member_id=FyiqG6peyU6IhRUHO9Exlg%3D%3D
p180
aVhttps://nam.edu/member/?member_id=2%2BgYv3ZcuEmFiuiYZYUSeA%3D%3D
p181
aVhttps://nam.edu/member/?member_id=xn6dtPxTYsRUEvkYsqefBA%3D%3D
p182
aVhttps://nam.edu/member/?member_id=I7dRaaq9UncZC1SDeqAcXA%3D%3D
p183
aVhttps://nam.edu/member/?member_id=Wl0eYOkEqJvF9A8tGSe%2FTg%3D%3D
p184
aVhttps://nam.edu/member/?member_id=T4m6oYXYoZcmQT3QQfWhLQ%3D%3D
p185
aVhttps://nam.edu/member/?member_id=3%2BnEF6bTJNe8y%2FEFZSYidw%3D%3D
p186
aVhttps://nam.edu/member/?member_id=h4KkXWuAVL42Kp11r%2FM3bQ%3D%3D
p187
aVhttps://nam.edu/member/?member_id=qzkmsSDLTgW5XBXY0ki39Q%3D%3D
p188
aVhttps://nam.edu/member/?member_id=MQPkM5DYLZCDpnwVLDFdCw%3D%3D
p189
aVhttps://nam.edu/member/?member_id=UQQ1OM8o6vp3xRONuFqK%2BQ%3D%3D
p190
aVhttps://nam.edu/member/?member_id=SDz%2F6o0KLB5aoDnllWTT5Q%3D%3D
p191
aVhttps://nam.edu/member/?member_id=ZU0RftgM2bszio1iRt78DQ%3D%3D
p192
aVhttps://nam.edu/member/?member_id=YW9sjbfZLrgtVYdSpW7nhw%3D%3D
p193
aVhttps://nam.edu/member/?member_id=J1fTsmhEU%2Fpij5oxy9O8UA%3D%3D
p194
aVhttps://nam.edu/member/?member_id=K3QhVMLkn7fEIH0llU5zaA%3D%3D
p195
aVhttps://nam.edu/member/?member_id=CoxjOD9CEGx4JboMNzprJg%3D%3D
p196
aVhttps://nam.edu/member/?member_id=iziasg9FRpqY83cuQmfVgg%3D%3D
p197
aVhttps://nam.edu/member/?member_id=7LvhR5YbLYXbvY5SFJaQPw%3D%3D
p198
aVhttps://nam.edu/member/?member_id=0COImzDqkUGtnCRoK9l8lQ%3D%3D
p199
aVhttps://nam.edu/member/?member_id=i5JvbUc9Nd8pBN1kBvylAQ%3D%3D
p200
aVhttps://nam.edu/member/?member_id=4HOk4fZs6svw1yoJJHpIww%3D%3D
p201
aVhttps://nam.edu/member/?member_id=xoZi0cwDSY0cSY2vYiQn3Q%3D%3D
p202
aVhttps://nam.edu/member/?member_id=7EJ2yXY%2Fmu7fHWgqA12r5Q%3D%3D
p203
aVhttps://nam.edu/member/?member_id=Jx4%2F9%2BNhxi2f%2FiJRRMJX2w%3D%3D
p204
aVhttps://nam.edu/member/?member_id=vlxFAmDS4HkocBMU3BIxTA%3D%3D
p205
aVhttps://nam.edu/member/?member_id=TeVp1i3KMrI6HX9sIkMe%2BA%3D%3D
p206
aVhttps://nam.edu/member/?member_id=hCDcocPc4%2FZWm6Lj0qAziw%3D%3D
p207
aVhttps://nam.edu/member/?member_id=xMWlnE7xTfFqO9BXeqSwyA%3D%3D
p208
aVhttps://nam.edu/member/?member_id=PmO%2Bca3OJ%2FsDCoYn58OVLg%3D%3D
p209
aVhttps://nam.edu/member/?member_id=cRcy0RtgKVt9sQOP9HqhFw%3D%3D
p210
aVhttps://nam.edu/member/?member_id=uA0cKFcTMuw1jaakwAYBeg%3D%3D
p211
aVhttps://nam.edu/member/?member_id=YegabS7lUAlEOgzypOp6Qg%3D%3D
p212
aVhttps://nam.edu/member/?member_id=SHOmcgJRrkgrumYXqQqF7Q%3D%3D
p213
aVhttps://nam.edu/member/?member_id=9fbTrIxG%2BEVnSfTLgWR%2BBA%3D%3D
p214
aVhttps://nam.edu/member/?member_id=AuYx%2FGtLbMEy39b5BTLszQ%3D%3D
p215
aVhttps://nam.edu/member/?member_id=%2Fm8gVrHfzNeLVMddVGuaZQ%3D%3D
p216
aVhttps://nam.edu/member/?member_id=4pEeCDvkgOvAEPb0WoMMSw%3D%3D
p217
aVhttps://nam.edu/member/?member_id=1kAfgC3WvfB2OwZBRUuLCA%3D%3D
p218
aVhttps://nam.edu/member/?member_id=EBv3cjRSoDZFJvqUtL8Qlw%3D%3D
p219
aVhttps://nam.edu/member/?member_id=qIq5xNqS2AFCRNdzxQBU5A%3D%3D
p220
aVhttps://nam.edu/member/?member_id=tEAeqHkwmH%2FsVzty7DpIBA%3D%3D
p221
aVhttps://nam.edu/member/?member_id=hv86jSTxnRjRp5ZUXu%2FI%2Fw%3D%3D
p222
aVhttps://nam.edu/member/?member_id=g3MIMG7rqy4ifdFDUQkcuQ%3D%3D
p223
aVhttps://nam.edu/member/?member_id=LtMAXWSn0xICWkYI6vDlGA%3D%3D
p224
aVhttps://nam.edu/member/?member_id=OrCGii%2F3Y7cljz3ORJG%2B5w%3D%3D
p225
aVhttps://nam.edu/member/?member_id=Rrt9HC64UaxAOnG0n%2BPbfQ%3D%3D
p226
aVhttps://nam.edu/member/?member_id=tsgasfPjS0qL7xm0ShQlmA%3D%3D
p227
aVhttps://nam.edu/member/?member_id=YrOhl4Rrvfbe%2FcgrLPGpTQ%3D%3D
p228
aVhttps://nam.edu/member/?member_id=ifghjWlF7Cp8Kfd9cuMb%2FA%3D%3D
p229
aVhttps://nam.edu/member/?member_id=XUtsiV%2FNDdt7mop5DukaZA%3D%3D
p230
aVhttps://nam.edu/member/?member_id=9wdfHbstNel1nv1Cy2lihQ%3D%3D
p231
aVhttps://nam.edu/member/?member_id=Yk3FZpAeIjBEiHT1gNDB6Q%3D%3D
p232
aVhttps://nam.edu/member/?member_id=Te2y%2Finrmyk3Az%2BljBsKsg%3D%3D
p233
aVhttps://nam.edu/member/?member_id=OGM01qBi0Zym9IqrNVlZ1A%3D%3D
p234
aVhttps://nam.edu/member/?member_id=htlauE%2B%2FnUo0IyLhBiNq3Q%3D%3D
p235
aVhttps://nam.edu/member/?member_id=AcWP2Av1P4JNra22csMqWg%3D%3D
p236
aVhttps://nam.edu/member/?member_id=EyArlhFtjjghOLNTj5llXg%3D%3D
p237
aVhttps://nam.edu/member/?member_id=iIW%2FUr42KkQhkpaAeelqUQ%3D%3D
p238
aVhttps://nam.edu/member/?member_id=9%2FyUMS1pTwrqqtT4yZvoxA%3D%3D
p239
aVhttps://nam.edu/member/?member_id=%2FLK1VWXi8oYBJxP2ae%2Bm%2Bg%3D%3D
p240
aVhttps://nam.edu/member/?member_id=NTBuoN2NNxSMl%2BsHdm2Oqw%3D%3D
p241
aVhttps://nam.edu/member/?member_id=5gqAdmBD21j%2Bdq5%2F9qFpVQ%3D%3D
p242
aVhttps://nam.edu/member/?member_id=Y%2F2I2XEZVEJYnMXg6NqShA%3D%3D
p243
aVhttps://nam.edu/member/?member_id=MntCCGANnsAgGvDqQqhvAA%3D%3D
p244
aVhttps://nam.edu/member/?member_id=Z9Y%2BlidO0mmLj1KGKSYgBQ%3D%3D
p245
aVhttps://nam.edu/member/?member_id=MbR5lRStO43qjdEKidYDJw%3D%3D
p246
aVhttps://nam.edu/member/?member_id=%2F6M4czLPIAESjROpqetecg%3D%3D
p247
aVhttps://nam.edu/member/?member_id=eG9qDT9MAKU970fdSMCF0g%3D%3D
p248
aVhttps://nam.edu/member/?member_id=H6YzoQwYHFrNsEOGP6WZUg%3D%3D
p249
aVhttps://nam.edu/member/?member_id=w4JljR21AlTH%2FXvbmvDYcw%3D%3D
p250
aVhttps://nam.edu/member/?member_id=rQVTFzQZLj7QZKZWEvoFYg%3D%3D
p251
aVhttps://nam.edu/member/?member_id=7lsys9wKJfdbugRy%2FavdZQ%3D%3D
p252
aVhttps://nam.edu/member/?member_id=vjIYxUb0k4mXtPX%2Bg98lnA%3D%3D
p253
aVhttps://nam.edu/member/?member_id=GqGvq1x%2F5ElB6lvKRkSZ5Q%3D%3D
p254
aVhttps://nam.edu/member/?member_id=cI1eAQ7HHJEQe%2FZ52VYoDg%3D%3D
p255
aVhttps://nam.edu/member/?member_id=5lLxNtweq%2BlYP56PnjXJJg%3D%3D
p256
aVhttps://nam.edu/member/?member_id=tHtLl0m22WhHquYhevF9iQ%3D%3D
p257
aVhttps://nam.edu/member/?member_id=2NQt7Usq27RJhM4HxPptcg%3D%3D
p258
aVhttps://nam.edu/member/?member_id=WWYEe%2BG6yS2J6qbnxQlvig%3D%3D
p259
aVhttps://nam.edu/member/?member_id=WWYEe%2BG6yS2J6qbnxQlvig%3D%3D
p260
aVhttps://nam.edu/member/?member_id=S5gyKPKeKExcJeyP5RVBng%3D%3D
p261
aVhttps://nam.edu/member/?member_id=YaeHD4QpEhv1TvrmGgWasQ%3D%3D
p262
aVhttps://nam.edu/member/?member_id=7TDsTC8qSTmivAW76sIHqQ%3D%3D
p263
aVhttps://nam.edu/member/?member_id=HTcGa9XBByW28lfrqLFSgA%3D%3D
p264
aVhttps://nam.edu/member/?member_id=o%2Fgsyc2nQdQBIlVJSFG%2FXA%3D%3D
p265
aVhttps://nam.edu/member/?member_id=b%2FUFK2oezHqpwc6luLkH0w%3D%3D
p266
aVhttps://nam.edu/member/?member_id=VGoFsoWW%2BkVaoEg%2Fe3oiaQ%3D%3D
p267
aVhttps://nam.edu/member/?member_id=Mb0tg7pb4erd%2FW9KfF4tPA%3D%3D
p268
aVhttps://nam.edu/member/?member_id=jMaWdiVArxmlPKuPhE1EEw%3D%3D
p269
aVhttps://nam.edu/member/?member_id=Uwh3AztMHPOvk0dsYGhTQg%3D%3D
p270
aVhttps://nam.edu/member/?member_id=miiiYD%2FkcMu1mGyuZV7T9Q%3D%3D
p271
aVhttps://nam.edu/member/?member_id=M5j6v%2F5ZYAUnVaTNNXFb1Q%3D%3D
p272
aVhttps://nam.edu/member/?member_id=hPz35ptrkKZL2DUh2KDFCA%3D%3D
p273
aVhttps://nam.edu/member/?member_id=a7wQKxrJIFTtkF6rccRgtQ%3D%3D
p274
aVhttps://nam.edu/member/?member_id=eNw%2B3KaF40ExPe8L9nRtUA%3D%3D
p275
aVhttps://nam.edu/member/?member_id=tajC4dEm9ysB9aRGKHplOQ%3D%3D
p276
aVhttps://nam.edu/member/?member_id=Eh82MATKzF%2Bs2i%2BlSDmJuw%3D%3D
p277
aVhttps://nam.edu/member/?member_id=k4X6Pdid24SyppPWMjERmg%3D%3D
p278
aVhttps://nam.edu/member/?member_id=UExfatzphQuy4bas6owoRg%3D%3D
p279
aVhttps://nam.edu/member/?member_id=1AiU8WO12ubQA6D3ghWtlg%3D%3D
p280
aVhttps://nam.edu/member/?member_id=jMkFgTaKYZ0PNy8sO2d1eg%3D%3D
p281
aVhttps://nam.edu/member/?member_id=oF2gWpnzWcz4OHhOY1dCOg%3D%3D
p282
aVhttps://nam.edu/member/?member_id=ACO1YIsJwad8NLSnygMKGQ%3D%3D
p283
aVhttps://nam.edu/member/?member_id=AQzAfZtJS3CsI22s72CERA%3D%3D
p284
aVhttps://nam.edu/member/?member_id=AlOHXcyOx%2B3NTTT9PGNaTA%3D%3D
p285
aVhttps://nam.edu/member/?member_id=%2Fz6OiR%2Ff0LvMm54juoclLg%3D%3D
p286
aVhttps://nam.edu/member/?member_id=gYbhTkYbN3kRWVCLiV4Kug%3D%3D
p287
aVhttps://nam.edu/member/?member_id=PdbOyF7mrVMz%2BwfZDzTnhA%3D%3D
p288
aVhttps://nam.edu/member/?member_id=VppwrbfxLveMpsD9s8niIw%3D%3D
p289
aVhttps://nam.edu/member/?member_id=ZKh0UjBy%2FNNPC4OJCw%2Bcvw%3D%3D
p290
aVhttps://nam.edu/member/?member_id=yYdq4cIKTSdqa7ybmufgRg%3D%3D
p291
aVhttps://nam.edu/member/?member_id=xgkXStsd1KPN0zSNs%2BlG2w%3D%3D
p292
aVhttps://nam.edu/member/?member_id=oB7yRSSj7M%2FfOZV39KmDKw%3D%3D
p293
aVhttps://nam.edu/member/?member_id=2mQWaypt%2FTrgADNDrUQLEw%3D%3D
p294
aVhttps://nam.edu/member/?member_id=BN8sd8Mr6qnEuFTPAU2E0g%3D%3D
p295
aVhttps://nam.edu/member/?member_id=RGs4qSZtsWV2YeEkm1Ea5A%3D%3D
p296
aVhttps://nam.edu/member/?member_id=5EgYgk0pm3mEAaF93hBxZg%3D%3D
p297
aVhttps://nam.edu/member/?member_id=617w2qmiBKH3CCgSE0xkKg%3D%3D
p298
aVhttps://nam.edu/member/?member_id=CwPNgvl1uF5QfKLOefJXhg%3D%3D
p299
aVhttps://nam.edu/member/?member_id=lDxKohuE5juF9YLC7ZGpSQ%3D%3D
p300
aVhttps://nam.edu/member/?member_id=a6S%2FYonCNeOoeABC3%2F08PQ%3D%3D
p301
aVhttps://nam.edu/member/?member_id=tSDILWjiAr57Pyjn2CL1eQ%3D%3D
p302
aVhttps://nam.edu/member/?member_id=XXRFlCBC1TxzJCyF9KDuHQ%3D%3D
p303
aVhttps://nam.edu/member/?member_id=%2BGpSHQrPTdmEjiVCfVy%2BUQ%3D%3D
p304
aVhttps://nam.edu/member/?member_id=1h89nPSwSqWCsvFbn8TVrQ%3D%3D
p305
aVhttps://nam.edu/member/?member_id=SvRwH%2FMg%2FqUtLs53nnZkgw%3D%3D
p306
aVhttps://nam.edu/member/?member_id=fPAOCNVN0Btco6pyy1Ngrg%3D%3D
p307
aVhttps://nam.edu/member/?member_id=HeEsQMVPVUZ%2FRXQLJQ72Vg%3D%3D
p308
aVhttps://nam.edu/member/?member_id=QJ3XFgYB%2FE5Xzs2X%2FD2qAg%3D%3D
p309
aVhttps://nam.edu/member/?member_id=FN2T5Qx2fAF%2B5vHzQMge8w%3D%3D
p310
aVhttps://nam.edu/member/?member_id=4lvFbqoG20XEaimGnZf0Zg%3D%3D
p311
aVhttps://nam.edu/member/?member_id=MuYQwytvNgDnJdR19jmwHw%3D%3D
p312
aVhttps://nam.edu/member/?member_id=E4qDAfthbOdgjP%2B5kvEudw%3D%3D
p313
aVhttps://nam.edu/member/?member_id=u6BC1qQ0N8kHV1EodQCteA%3D%3D
p314
aVhttps://nam.edu/member/?member_id=i28TfWkx1Gi1dYSO2CuRnw%3D%3D
p315
aVhttps://nam.edu/member/?member_id=9pXhwJLACav82XZqwIoWVg%3D%3D
p316
aVhttps://nam.edu/member/?member_id=tKQcRvPXUcLZQAjzJ7T%2FTA%3D%3D
p317
aVhttps://nam.edu/member/?member_id=2F%2BwGsZKKLSrp3Y2HBUtwA%3D%3D
p318
aVhttps://nam.edu/member/?member_id=zS5XCKt7BwSvJM9Uw2FZ6g%3D%3D
p319
aVhttps://nam.edu/member/?member_id=svHpuUctw5z5XS%2BkrMG%2FWw%3D%3D
p320
aVhttps://nam.edu/member/?member_id=093CXbgvIlrFTzEaZlFU%2Bg%3D%3D
p321
aVhttps://nam.edu/member/?member_id=w%2F7o4h2q7OAztPsXfkuVoA%3D%3D
p322
aVhttps://nam.edu/member/?member_id=hkyUvihk0CwkjUNSmj9DOg%3D%3D
p323
aVhttps://nam.edu/member/?member_id=7gyPPnbAC4gMUWe3wPrjYA%3D%3D
p324
aVhttps://nam.edu/member/?member_id=fe5BkAgul6GfGL0W4tA6Ew%3D%3D
p325
aVhttps://nam.edu/member/?member_id=Io27q5qf7GCNvpuGtRYESQ%3D%3D
p326
aVhttps://nam.edu/member/?member_id=pTnQTIADhCMqyCM3bELvkQ%3D%3D
p327
aVhttps://nam.edu/member/?member_id=UdGyz3sFEt2HQkpXYryLgw%3D%3D
p328
aVhttps://nam.edu/member/?member_id=iTBsGBOsE%2BogehrfGPhAoQ%3D%3D
p329
aVhttps://nam.edu/member/?member_id=tcYqTkfFIIILrZSzSSAFpg%3D%3D
p330
aVhttps://nam.edu/member/?member_id=5e9s6OWIk%2FWzIEHNc2PuAw%3D%3D
p331
aVhttps://nam.edu/member/?member_id=h%2FY6xjChQEfqxu%2FRXK5wlg%3D%3D
p332
aVhttps://nam.edu/member/?member_id=Es2kbojUBwk1hqtSsQMlnA%3D%3D
p333
aVhttps://nam.edu/member/?member_id=n5fb6lAgVKWjPIfiNKp6Og%3D%3D
p334
aVhttps://nam.edu/member/?member_id=Z4TC2CqZZ%2FpPFgZ%2FwtUzoQ%3D%3D
p335
aVhttps://nam.edu/member/?member_id=UAtj8KZ8shu5zkpRn%2Ft%2FLg%3D%3D
p336
aVhttps://nam.edu/member/?member_id=gzG5TLa%2BGvUjDEqyfEKMGA%3D%3D
p337
aVhttps://nam.edu/member/?member_id=OhtKo8PPU8JZDUxmYCl3zQ%3D%3D
p338
aVhttps://nam.edu/member/?member_id=0NaSiI5922HJusqB4Pa6Yg%3D%3D
p339
aVhttps://nam.edu/member/?member_id=848WMtowV8Pq34kSGd8XWA%3D%3D
p340
aVhttps://nam.edu/member/?member_id=oxhrroKDRrSw9exrdl87tQ%3D%3D
p341
aVhttps://nam.edu/member/?member_id=BDqJPkmcOHzeY6v9qxak8w%3D%3D
p342
aVhttps://nam.edu/member/?member_id=nz92orYCPHSsffo1SxgtKg%3D%3D
p343
aVhttps://nam.edu/member/?member_id=grZx3%2FNuyez2c2lAIvu9aw%3D%3D
p344
aVhttps://nam.edu/member/?member_id=Zdkhd%2FLr6MhmIgnqzA2%2B5Q%3D%3D
p345
aVhttps://nam.edu/member/?member_id=hrV%2BoEqqTpK27ECcuq1Ihg%3D%3D
p346
aVhttps://nam.edu/member/?member_id=bwkwmYwBbNQ47Kz2cEXeJw%3D%3D
p347
aVhttps://nam.edu/member/?member_id=3I9ZsrnsPO1C5HySb%2Bz%2FsQ%3D%3D
p348
aVhttps://nam.edu/member/?member_id=0RAjOxkXpwm%2BmcgnAxNzrQ%3D%3D
p349
aVhttps://nam.edu/member/?member_id=mgZDBW%2FwQWtu8WsRa%2BZn9g%3D%3D
p350
aVhttps://nam.edu/member/?member_id=hlPkKMGFqx%2BwjZfGyrtYNw%3D%3D
p351
aVhttps://nam.edu/member/?member_id=9uwaV7PUUsxJ5rWG%2B0aKkw%3D%3D
p352
aVhttps://nam.edu/member/?member_id=deTm9NJAaZMKa9OfE0y6xg%3D%3D
p353
aVhttps://nam.edu/member/?member_id=rY30j%2Br9sjpss9ocVV0fUA%3D%3D
p354
aVhttps://nam.edu/member/?member_id=Niy57Ilozzo32fDz3KZsrg%3D%3D
p355
aVhttps://nam.edu/member/?member_id=aHxYVQ9%2F4jztr6DYPMqtRw%3D%3D
p356
aVhttps://nam.edu/member/?member_id=NTaiGyag2qxPDhQ0h6CTFA%3D%3D
p357
aVhttps://nam.edu/member/?member_id=HjWxC2Uk6wWhvXPQrlACvg%3D%3D
p358
aVhttps://nam.edu/member/?member_id=VkRX%2Fyx8VzaVESnxuRxQvQ%3D%3D
p359
aVhttps://nam.edu/member/?member_id=L6deqrNsB4rkSaSFS%2BXKEA%3D%3D
p360
aVhttps://nam.edu/member/?member_id=9tCnzkD9c5F%2FbRpCUI993w%3D%3D
p361
aVhttps://nam.edu/member/?member_id=bXATn6GxpEJOjSGEnvLEmQ%3D%3D
p362
aVhttps://nam.edu/member/?member_id=5iFOOhMeZg1ilMXapCMqeA%3D%3D
p363
aVhttps://nam.edu/member/?member_id=xsEk%2BeQ6EQJym%2F5Zey0Llw%3D%3D
p364
aVhttps://nam.edu/member/?member_id=OmmK5HFSwyBf%2BhNrujD06w%3D%3D
p365
aVhttps://nam.edu/member/?member_id=1H6Mc1GKq1VvU5nK7hVZ8g%3D%3D
p366
aVhttps://nam.edu/member/?member_id=c%2BierzDGWNLTTkKkgxeFrw%3D%3D
p367
aVhttps://nam.edu/member/?member_id=zWGbNq86J20uHtnmta6fKA%3D%3D
p368
aVhttps://nam.edu/member/?member_id=CPMFXIw9igAewbtuvWSF3A%3D%3D
p369
aVhttps://nam.edu/member/?member_id=ZX6m7cQARVx6m16p9064hQ%3D%3D
p370
aVhttps://nam.edu/member/?member_id=4XT6jsEXd2k1oPJB1jgJwQ%3D%3D
p371
aVhttps://nam.edu/member/?member_id=qtnPAk4XSL9gZZ7TD%2FJASQ%3D%3D
p372
aVhttps://nam.edu/member/?member_id=bquPAaSlCg9ERsGbYtQHqg%3D%3D
p373
aVhttps://nam.edu/member/?member_id=fdW5uqS%2F0ISAIJrYd1swlw%3D%3D
p374
aVhttps://nam.edu/member/?member_id=T0bRlG%2BBlXEJdyybiGNxEQ%3D%3D
p375
aVhttps://nam.edu/member/?member_id=v4htULjPOEwTZiCFwv8T5Q%3D%3D
p376
aVhttps://nam.edu/member/?member_id=aZqnLuzLJ3lXuy38R43fCA%3D%3D
p377
aVhttps://nam.edu/member/?member_id=DsIxqyvU743d%2BDGPJPfplQ%3D%3D
p378
aVhttps://nam.edu/member/?member_id=tlGdqAU3DE1u7FN1zxpxdA%3D%3D
p379
aVhttps://nam.edu/member/?member_id=sE25UGKrZaf8ws4P3Q2KZg%3D%3D
p380
aVhttps://nam.edu/member/?member_id=57Chi0GMATAgCj5XGsCOzw%3D%3D
p381
aVhttps://nam.edu/member/?member_id=jJwYNxw2sBU4qshevlgnOw%3D%3D
p382
aVhttps://nam.edu/member/?member_id=D1cynECHJ3zzATH%2F12Q%2Fig%3D%3D
p383
aVhttps://nam.edu/member/?member_id=r4v8bluloO7DW4zkvyBjfw%3D%3D
p384
aVhttps://nam.edu/member/?member_id=5b4xcllMvQ1HI9PxuIN6TQ%3D%3D
p385
aVhttps://nam.edu/member/?member_id=Z7iPdhk0hI2%2BlcT1z%2FOaXA%3D%3D
p386
aVhttps://nam.edu/member/?member_id=V3tPI4ZBgQnxEQmlAs0OBA%3D%3D
p387
aVhttps://nam.edu/member/?member_id=wX0GNc6qVUZBkmpjh91o5w%3D%3D
p388
aVhttps://nam.edu/member/?member_id=Nsh5ktCFQg5gwYZkos3z%2BA%3D%3D
p389
aVhttps://nam.edu/member/?member_id=y91lTPiQ49OYlgBmskAtGQ%3D%3D
p390
aVhttps://nam.edu/member/?member_id=qri%2FPTLRjJeGx52ZKkMr0A%3D%3D
p391
aVhttps://nam.edu/member/?member_id=L4qzx8uk7NHGBPVuTZQHww%3D%3D
p392
aVhttps://nam.edu/member/?member_id=qAbSN7c%2FISA2T0eBnr3HtQ%3D%3D
p393
aVhttps://nam.edu/member/?member_id=syZB86KP2xke%2BXcHbbjo3Q%3D%3D
p394
aVhttps://nam.edu/member/?member_id=6KBbR4UubldAEjx4hbGmUQ%3D%3D
p395
aVhttps://nam.edu/member/?member_id=8KntF%2BWwRYlCC%2BCvbrAJHw%3D%3D
p396
aVhttps://nam.edu/member/?member_id=lfy21ms22fg8bIVd6gDqvw%3D%3D
p397
aVhttps://nam.edu/member/?member_id=BUtjWmcBmCx%2F4n%2F%2F0Dc5AQ%3D%3D
p398
aVhttps://nam.edu/member/?member_id=kFQjrD3jleR5h2YZLgbAtw%3D%3D
p399
aVhttps://nam.edu/member/?member_id=QXJRF%2FJV4Cq3bF6%2Bwe0gfw%3D%3D
p400
aVhttps://nam.edu/member/?member_id=XfULtgc2GDDjCWKxuWDPHw%3D%3D
p401
aVhttps://nam.edu/member/?member_id=yMSwf%2FlwaD1ohrXvsDADZw%3D%3D
p402
aVhttps://nam.edu/member/?member_id=N60h3UbaBgIuXAuJxA815g%3D%3D
p403
aVhttps://nam.edu/member/?member_id=34LRJHejU7xy2%2BTDS9bjUg%3D%3D
p404
aVhttps://nam.edu/member/?member_id=BOjsBn8b9HHuF2DYIKrI5g%3D%3D
p405
aVhttps://nam.edu/member/?member_id=CLnEPeXKW6rG7yc8A4M9cA%3D%3D
p406
aVhttps://nam.edu/member/?member_id=jN7ITgsgrQO5HK2u2uM9GQ%3D%3D
p407
aVhttps://nam.edu/member/?member_id=D9iDl7x3meyg2gsYuvEhYw%3D%3D
p408
aVhttps://nam.edu/member/?member_id=vJSSEQ3f99n%2BhUicPFYM5Q%3D%3D
p409
aVhttps://nam.edu/member/?member_id=%2FjV2aE6VdSpOWNDy%2BO2HSA%3D%3D
p410
aVhttps://nam.edu/member/?member_id=PS2J3VpAAX%2BeLAHS%2BMkomw%3D%3D
p411
aVhttps://nam.edu/member/?member_id=bZS8RG0%2FFCp5QyxRJ1DrFg%3D%3D
p412
aVhttps://nam.edu/member/?member_id=WJwQPnsfYL89KXImR28zsw%3D%3D
p413
aVhttps://nam.edu/member/?member_id=k4jo9F0kNAZN9gYDt0jGkQ%3D%3D
p414
aVhttps://nam.edu/member/?member_id=ZSfbNxRHTauwG7%2BsDyomPA%3D%3D
p415
aVhttps://nam.edu/member/?member_id=Snwpb4rYdoNV2uCKEsWdhw%3D%3D
p416
aVhttps://nam.edu/member/?member_id=o7gyYMKRN5AyKBw9hzrDJQ%3D%3D
p417
aVhttps://nam.edu/member/?member_id=5dGDrOHenpWBzS2pTeI%2B0Q%3D%3D
p418
aVhttps://nam.edu/member/?member_id=omd7RIP%2FdFRvfWkvy5nFBA%3D%3D
p419
aVhttps://nam.edu/member/?member_id=6R4Z2%2FodCLn%2B1OtYEE3LOA%3D%3D
p420
aVhttps://nam.edu/member/?member_id=mVhepW3Hr%2F7Fi3yDeHKjvA%3D%3D
p421
aVhttps://nam.edu/member/?member_id=43vuIsiU2QidgyA0758AUQ%3D%3D
p422
aVhttps://nam.edu/member/?member_id=3fcx936Q%2FraLXovIt65ijg%3D%3D
p423
aVhttps://nam.edu/member/?member_id=mfvY7WEOSTMfmX%2BGwgvaRw%3D%3D
p424
aVhttps://nam.edu/member/?member_id=ETgFNVPJEJKmpCuLf3Hm6A%3D%3D
p425
aVhttps://nam.edu/member/?member_id=rYh3iR75W3Uux1bEb22nSA%3D%3D
p426
aVhttps://nam.edu/member/?member_id=pBT9p8dr6IQI1bTPRRfn6A%3D%3D
p427
aVhttps://nam.edu/member/?member_id=WzpkmbSc121Zeq%2BkrRjqMw%3D%3D
p428
aVhttps://nam.edu/member/?member_id=bJJZUAUZBm2Su6NxKcoZrA%3D%3D
p429
aVhttps://nam.edu/member/?member_id=ALCJ6osqALd0ZvFh8WmRXA%3D%3D
p430
aVhttps://nam.edu/member/?member_id=9yjxmfpkFu3QhuO7Mx1LmQ%3D%3D
p431
aVhttps://nam.edu/member/?member_id=rAxLCyoFZ9DksCXXK0cATg%3D%3D
p432
aVhttps://nam.edu/member/?member_id=wh4A8FMw2DZ2oo2I7vLKDg%3D%3D
p433
aVhttps://nam.edu/member/?member_id=ni8FBCXFIF2%2Bh4VhXIqyqw%3D%3D
p434
aVhttps://nam.edu/member/?member_id=ScUJJb9l642H5Dkuw9UxWA%3D%3D
p435
aVhttps://nam.edu/member/?member_id=n3k4lozszWFz19qVaK%2Bg6Q%3D%3D
p436
aVhttps://nam.edu/member/?member_id=ZFEjfGWQ5rdMngsoXfVsOg%3D%3D
p437
aVhttps://nam.edu/member/?member_id=aip%2FVpvf4QIPTVXWPwY3Ww%3D%3D
p438
aVhttps://nam.edu/member/?member_id=Qi06kZWfD0t6JFwP7nczig%3D%3D
p439
aVhttps://nam.edu/member/?member_id=AduSoWzOauRDKoTdVObaBw%3D%3D
p440
aVhttps://nam.edu/member/?member_id=KeljabbDQmm2JHVop5Hoiw%3D%3D
p441
aVhttps://nam.edu/member/?member_id=r1igtGm3RZA3JMC%2Bw5CRQg%3D%3D
p442
aVhttps://nam.edu/member/?member_id=004SbWpoC5xo%2Br1qnqM%2FJQ%3D%3D
p443
aVhttps://nam.edu/member/?member_id=cqIOR8CurE97LcdgPQHDRw%3D%3D
p444
aVhttps://nam.edu/member/?member_id=KUqAiXNfxq%2BVTS2jvk7Z8g%3D%3D
p445
aVhttps://nam.edu/member/?member_id=yWgGpNDX6GU03W2R4wbKuQ%3D%3D
p446
aVhttps://nam.edu/member/?member_id=AjucfMMq8ngUmpKTaqeBKA%3D%3D
p447
aVhttps://nam.edu/member/?member_id=TmOaL8NfIyg784pFN4iKug%3D%3D
p448
aVhttps://nam.edu/member/?member_id=zLGFAI1y6L8QMqnzNF9xdg%3D%3D
p449
aVhttps://nam.edu/member/?member_id=%2F2wPk%2FJkfcYatTSa%2FhdsbA%3D%3D
p450
aVhttps://nam.edu/member/?member_id=iD2CYekHvOsIJ3zBtgz5jA%3D%3D
p451
aVhttps://nam.edu/member/?member_id=CnRdSuSgpuYF8seTPp2xqA%3D%3D
p452
aVhttps://nam.edu/member/?member_id=dQRbhtQcFJ3%2BAB9aFY%2FppA%3D%3D
p453
aVhttps://nam.edu/member/?member_id=ZwehGGzJGGfq63LK6LoqYw%3D%3D
p454
aVhttps://nam.edu/member/?member_id=ff6kIamWLvjE3LXl4abIAA%3D%3D
p455
aVhttps://nam.edu/member/?member_id=I1EtlP0RdxwyvzvuWwD1yg%3D%3D
p456
aVhttps://nam.edu/member/?member_id=W%2BbZR7SOVm5SQlIjxRpz8w%3D%3D
p457
aVhttps://nam.edu/member/?member_id=fRJAQTJSAprl5PuoiSVF4g%3D%3D
p458
aVhttps://nam.edu/member/?member_id=%2FAvswdDJb7xVVDOIzcN0ww%3D%3D
p459
aVhttps://nam.edu/member/?member_id=IJSkaVZn%2Bf9oRk4XcmVZvg%3D%3D
p460
aVhttps://nam.edu/member/?member_id=zYRhIHZi49bF13wIsuq7yQ%3D%3D
p461
aVhttps://nam.edu/member/?member_id=NIs7AmHLCfYOo8ooWg%2BaoQ%3D%3D
p462
aVhttps://nam.edu/member/?member_id=0QEayWhkKbaf0G593zeIaw%3D%3D
p463
aVhttps://nam.edu/member/?member_id=mKFN0Wyy8A4N0gaGdMLzCA%3D%3D
p464
aVhttps://nam.edu/member/?member_id=uCDNn%2FbBiBNys%2Fm5RGVY2w%3D%3D
p465
aVhttps://nam.edu/member/?member_id=ZsHEmlC0hGAj4Ly8vj97UQ%3D%3D
p466
aVhttps://nam.edu/member/?member_id=qkmT6qrNyzhoHsJ3ZrRKFA%3D%3D
p467
aVhttps://nam.edu/member/?member_id=JxSiuiyf4TR6SfYEy1Y%2BkA%3D%3D
p468
aVhttps://nam.edu/member/?member_id=2VZtVKINhwoGwCGFQAlOgA%3D%3D
p469
aVhttps://nam.edu/member/?member_id=j0%2F93PCYUH%2Fjz57nzPThPQ%3D%3D
p470
aVhttps://nam.edu/member/?member_id=8Vqqfv%2FhDvAUJlazhk%2FHuw%3D%3D
p471
aVhttps://nam.edu/member/?member_id=O08vGj2UaKz8YWL2SpnbFw%3D%3D
p472
aVhttps://nam.edu/member/?member_id=N%2BwluAy4PRuKj8GI2YaS1w%3D%3D
p473
aVhttps://nam.edu/member/?member_id=MLwMtWvwCMjfF0cAC4y4AQ%3D%3D
p474
aVhttps://nam.edu/member/?member_id=4c5PN%2FHBxbSX6HL4W00q7w%3D%3D
p475
aVhttps://nam.edu/member/?member_id=rOm9OL6P3nhRJzPRtqCkMA%3D%3D
p476
aVhttps://nam.edu/member/?member_id=QKpsicgsWEn8jFofaR22rQ%3D%3D
p477
aVhttps://nam.edu/member/?member_id=3GG46m2aQXZu1Wgbadz0NQ%3D%3D
p478
aVhttps://nam.edu/member/?member_id=woNXLDEITfEjrwnXEHiALg%3D%3D
p479
aVhttps://nam.edu/member/?member_id=LN2ZpE5tnNiFk4oi1ipd8A%3D%3D
p480
aVhttps://nam.edu/member/?member_id=yRaogZP85p39Z%2BOJbtdKgg%3D%3D
p481
aVhttps://nam.edu/member/?member_id=n%2BrlZSqTb8lbbXeDvqJTxQ%3D%3D
p482
aVhttps://nam.edu/member/?member_id=mfo184SYgSkOVAzgbEjMZQ%3D%3D
p483
aVhttps://nam.edu/member/?member_id=8iJksDa2gU0c9%2FhXOzEcqA%3D%3D
p484
aVhttps://nam.edu/member/?member_id=PTeM9%2B6ONRm4RRTPvHTDsg%3D%3D
p485
aVhttps://nam.edu/member/?member_id=oft350j6DdXdBlQx79iugA%3D%3D
p486
aVhttps://nam.edu/member/?member_id=22EeZZ4fxXx3ncACcbxJow%3D%3D
p487
aVhttps://nam.edu/member/?member_id=Wj832rY7AlCnu40tkWiGmw%3D%3D
p488
aVhttps://nam.edu/member/?member_id=1bh2xj%2BuhSyuMqVrBmQylA%3D%3D
p489
aVhttps://nam.edu/member/?member_id=BecVEYkKvE1HfhQwASrrDQ%3D%3D
p490
aVhttps://nam.edu/member/?member_id=gd4ZuPeAzGyjSkN7AS3r0w%3D%3D
p491
aVhttps://nam.edu/member/?member_id=QXafKBOOC8SCgc9ic4X7YQ%3D%3D
p492
aVhttps://nam.edu/member/?member_id=EF0i5HoP29l7%2FpNqFKjyGA%3D%3D
p493
aVhttps://nam.edu/member/?member_id=06V6BHegRcaSN8OR%2F3o6rA%3D%3D
p494
aVhttps://nam.edu/member/?member_id=HQGeTYPVZybAgF0gJo00Qg%3D%3D
p495
aVhttps://nam.edu/member/?member_id=bwVHuvWZXDVEq5uBuW8jsg%3D%3D
p496
aVhttps://nam.edu/member/?member_id=CWVMlsUD9mbRpSDK0%2Br%2FVQ%3D%3D
p497
aVhttps://nam.edu/member/?member_id=j9nLLrgq%2Fpv7fYcpiw2W4w%3D%3D
p498
aVhttps://nam.edu/member/?member_id=zgE%2FknVeOLKvb97U%2F0EpcQ%3D%3D
p499
aVhttps://nam.edu/member/?member_id=igGODD0AdKsICM2nz%2BY7mQ%3D%3D
p500
aVhttps://nam.edu/member/?member_id=aVnX3IEHJHgu%2F5l8VGtGzQ%3D%3D
p501
aVhttps://nam.edu/member/?member_id=8oeIZheoacD33WuL3fkyqA%3D%3D
p502
aVhttps://nam.edu/member/?member_id=uRVUXMC3oHVU56TqD%2FCngw%3D%3D
p503
aVhttps://nam.edu/member/?member_id=EXNFjHVmri%2BMo8qaMzL9Zw%3D%3D
p504
aVhttps://nam.edu/member/?member_id=d0EOJ6GhSpzlYos05rpiZw%3D%3D
p505
aVhttps://nam.edu/member/?member_id=fyhC0uNRdVavooXZv659Ng%3D%3D
p506
aVhttps://nam.edu/member/?member_id=8cvXzhpqJ%2B%2FjwHUQ835QPw%3D%3D
p507
aVhttps://nam.edu/member/?member_id=V4W29uBR7aBwopJl2j%2Fx%2Bg%3D%3D
p508
aVhttps://nam.edu/member/?member_id=kXyecQ3RWpa2ctTBCx77OQ%3D%3D
p509
aVhttps://nam.edu/member/?member_id=Z5V5x4rxm1n3hzCctEJ2qQ%3D%3D
p510
aVhttps://nam.edu/member/?member_id=98E%2FlI5aaeyqsj%2FtoTKgIQ%3D%3D
p511
aVhttps://nam.edu/member/?member_id=9OgVC7aMTy08cRgNwRKuMA%3D%3D
p512
aVhttps://nam.edu/member/?member_id=W51ixQ37hzf6MjQq9j%2BAkw%3D%3D
p513
aVhttps://nam.edu/member/?member_id=sizraOaJee4HjOmmXEYmBg%3D%3D
p514
aVhttps://nam.edu/member/?member_id=qys8VzsTsnco30YeThW3OQ%3D%3D
p515
aVhttps://nam.edu/member/?member_id=xzay7%2FBqZFKDxzfNs%2FlLqw%3D%3D
p516
aVhttps://nam.edu/member/?member_id=A595A3acF%2FxRiYfVEUOE2Q%3D%3D
p517
aVhttps://nam.edu/member/?member_id=vhhm8HeP73g0rD9dI44nnw%3D%3D
p518
aVhttps://nam.edu/member/?member_id=DZTZI50Vo0dSdCSkDM8Tnw%3D%3D
p519
aVhttps://nam.edu/member/?member_id=OR8GI%2BhzVYvlVJ8rJFnQAg%3D%3D
p520
aVhttps://nam.edu/member/?member_id=Snrx2IdFgrG8tRBzGsHAgw%3D%3D
p521
aVhttps://nam.edu/member/?member_id=kt%2BndW89m%2Fj7YtTIQDJ%2F4Q%3D%3D
p522
aVhttps://nam.edu/member/?member_id=iXRR2fwFqO%2FecJd6LN5F0w%3D%3D
p523
aVhttps://nam.edu/member/?member_id=M6uIvFq95yEc%2B3Auvvth9g%3D%3D
p524
aVhttps://nam.edu/member/?member_id=Y7vzsGpyDV%2FfbH0YtQZUAQ%3D%3D
p525
aVhttps://nam.edu/member/?member_id=H2%2BodD9Fy6Fc%2BBPWZ8MQMA%3D%3D
p526
aVhttps://nam.edu/member/?member_id=JoXIqmZONYsOuANrUjOXuA%3D%3D
p527
aVhttps://nam.edu/member/?member_id=a1mGDPtiDlWdDXidnj1XbQ%3D%3D
p528
aVhttps://nam.edu/member/?member_id=738g3fZijFibWLwOqWP1VA%3D%3D
p529
aVhttps://nam.edu/member/?member_id=vBoo%2B7jeHaKfOgj2Vc9SwQ%3D%3D
p530
aVhttps://nam.edu/member/?member_id=WUSvGBQ3%2BQdvO9xVcgVOIw%3D%3D
p531
aVhttps://nam.edu/member/?member_id=QretXJ8T80xBhreSx%2FLDBA%3D%3D
p532
aVhttps://nam.edu/member/?member_id=5%2BrCV52BGHcR6cDG8ub3mg%3D%3D
p533
aVhttps://nam.edu/member/?member_id=FPCARaFSJeAUNvhsCxmGog%3D%3D
p534
aVhttps://nam.edu/member/?member_id=je08UI4lqCbc4lFeloULdw%3D%3D
p535
aVhttps://nam.edu/member/?member_id=4DmDShKea1DTotB7gyScpg%3D%3D
p536
aVhttps://nam.edu/member/?member_id=laxQOXvEIz%2B4v2415lBDCg%3D%3D
p537
aVhttps://nam.edu/member/?member_id=df%2BwHKYlWca6Z8JE4rv3ow%3D%3D
p538
aVhttps://nam.edu/member/?member_id=AR4ruZCPQZxJk2%2F48kXr%2Bg%3D%3D
p539
aVhttps://nam.edu/member/?member_id=f4j8pcYmmcxaY%2FjblUouVA%3D%3D
p540
aVhttps://nam.edu/member/?member_id=mY7b1iZW6ykP7bDvk%2FWfOA%3D%3D
p541
aVhttps://nam.edu/member/?member_id=f7ENGImTUWYXs2J7IgXBXw%3D%3D
p542
aVhttps://nam.edu/member/?member_id=xXg65wwlXdccPzfIikfR%2Fg%3D%3D
p543
aVhttps://nam.edu/member/?member_id=pYJrPcg7lOD8j3%2FiJ5D1Rg%3D%3D
p544
aVhttps://nam.edu/member/?member_id=nib540XyYGD9KhHP6nzNxQ%3D%3D
p545
aVhttps://nam.edu/member/?member_id=j3aFIyh05%2BmPOhHDuwVm8g%3D%3D
p546
aVhttps://nam.edu/member/?member_id=PmfMrAtrGWCw5A1bI5fE3Q%3D%3D
p547
aVhttps://nam.edu/member/?member_id=r3TzlIuwHglTVk7FFkI1hA%3D%3D
p548
aVhttps://nam.edu/member/?member_id=1t6jCVCkKi1fnN85H3q1%2Fw%3D%3D
p549
aVhttps://nam.edu/member/?member_id=rDkB6akx1wvIiAYHa%2BDHgA%3D%3D
p550
aVhttps://nam.edu/member/?member_id=ZzjQKAsyRjulmNJAwTGjCQ%3D%3D
p551
aVhttps://nam.edu/member/?member_id=Y%2BeCRiI9vRJUBXZ5jOnPIg%3D%3D
p552
aVhttps://nam.edu/member/?member_id=KctxEqjnkklKxEmF9tmMnw%3D%3D
p553
aVhttps://nam.edu/member/?member_id=RQjAa%2B%2FFwwrIW%2FmOPchpwg%3D%3D
p554
aVhttps://nam.edu/member/?member_id=EFru9SEK%2FcYCYVHkjWzOjQ%3D%3D
p555
aVhttps://nam.edu/member/?member_id=YgR4VXQmxurMc9CVlRd4nQ%3D%3D
p556
aVhttps://nam.edu/member/?member_id=ZQ8exev1li6fr%2FSwuLrbSg%3D%3D
p557
aVhttps://nam.edu/member/?member_id=JEN3HngOCbCMCMXDmQUM1Q%3D%3D
p558
aVhttps://nam.edu/member/?member_id=yD2ZezMspNVWsm%2F5gaDP0g%3D%3D
p559
aVhttps://nam.edu/member/?member_id=L8t89wc20Sx5JE51YuBpmw%3D%3D
p560
aVhttps://nam.edu/member/?member_id=HYy9sl8rP7GVjrgXeR2BSw%3D%3D
p561
aVhttps://nam.edu/member/?member_id=Y47gYrB3P3J5XLyiou%2FDQA%3D%3D
p562
aVhttps://nam.edu/member/?member_id=usa73Kc1NnP6muZZ5ELAeg%3D%3D
p563
aVhttps://nam.edu/member/?member_id=P8apihWIGcioe52zT0kP2Q%3D%3D
p564
aVhttps://nam.edu/member/?member_id=DE3jO5hClcyV0BccRuApfA%3D%3D
p565
aVhttps://nam.edu/member/?member_id=E%2FwOU%2BDfzjUkkQKzlJPJrw%3D%3D
p566
aVhttps://nam.edu/member/?member_id=1LPwPAwrtGOPeVGCbKonkg%3D%3D
p567
aVhttps://nam.edu/member/?member_id=jUVxyh7iwcpjKFlRV2hOzQ%3D%3D
p568
aVhttps://nam.edu/member/?member_id=KiPni6tStm1Ymc9rsmUHrw%3D%3D
p569
aVhttps://nam.edu/member/?member_id=PXNIp%2BPoxcFCByxKxx9leQ%3D%3D
p570
aVhttps://nam.edu/member/?member_id=8RwCDo2%2Bf18uKOEL0HnhaQ%3D%3D
p571
aVhttps://nam.edu/member/?member_id=czjcqezqOGhKpZnyo2UXvA%3D%3D
p572
aVhttps://nam.edu/member/?member_id=TOONinl7MHe9%2FagR%2FYYYBg%3D%3D
p573
aVhttps://nam.edu/member/?member_id=lgipWZvlXkq1pJ5WwahgAw%3D%3D
p574
aVhttps://nam.edu/member/?member_id=wAY5X4ctYLMKOKUtHJBhJg%3D%3D
p575
aVhttps://nam.edu/member/?member_id=sF%2B1JpMj20mI4K%2F9rKR8fA%3D%3D
p576
aVhttps://nam.edu/member/?member_id=DtY3%2FXTMDFcFLskapGXy9g%3D%3D
p577
aVhttps://nam.edu/member/?member_id=AMvTMnrOUNKAzYZJb210hg%3D%3D
p578
aVhttps://nam.edu/member/?member_id=QsLo654UbRSa97lfMet2zQ%3D%3D
p579
aVhttps://nam.edu/member/?member_id=9Riv3c7JKsezLNEZntBy0Q%3D%3D
p580
aVhttps://nam.edu/member/?member_id=mIagIPe%2B7ZOTbdTGYOCzVA%3D%3D
p581
aVhttps://nam.edu/member/?member_id=lO7HPw33i4ZBEuw8hmdhcA%3D%3D
p582
aVhttps://nam.edu/member/?member_id=DfMC2SzRGI8aK5pwAYCkpg%3D%3D
p583
aVhttps://nam.edu/member/?member_id=Gq%2BwqV3g5zzjRl4oYYoobg%3D%3D
p584
aVhttps://nam.edu/member/?member_id=%2Fb7jfU8KjEGgoEkYMujgUA%3D%3D
p585
aVhttps://nam.edu/member/?member_id=3mTSTmf7JEsH2HbfN3Obnw%3D%3D
p586
aVhttps://nam.edu/member/?member_id=MTzPeP1QAdT4EME5pwObuA%3D%3D
p587
aVhttps://nam.edu/member/?member_id=ytYKOX8GvW2vzyz0BKnlkQ%3D%3D
p588
aVhttps://nam.edu/member/?member_id=B0kIoFtVnQrmh2DwAYh8fQ%3D%3D
p589
aVhttps://nam.edu/member/?member_id=2lWvRUYfn8Oeb9X60ZvEhg%3D%3D
p590
aVhttps://nam.edu/member/?member_id=N%2B113EDNtXzHX1YI6PV1Dg%3D%3D
p591
aVhttps://nam.edu/member/?member_id=GUgwLogzEJY98dr9uqgoNQ%3D%3D
p592
aVhttps://nam.edu/member/?member_id=Lm1MgTti6JyBtPeQCLXQog%3D%3D
p593
aVhttps://nam.edu/member/?member_id=7z1ODKQGXPqTGa2nEm3Y7Q%3D%3D
p594
aVhttps://nam.edu/member/?member_id=0MKdSeuYZZNFa0rl5I%2FoHw%3D%3D
p595
aVhttps://nam.edu/member/?member_id=ImShh3NEgdzvJPEjGKxg%2Bw%3D%3D
p596
aVhttps://nam.edu/member/?member_id=%2B%2FJP9FtRG0maDGCh%2F5AdLA%3D%3D
p597
aVhttps://nam.edu/member/?member_id=jao6RVfCCVJBTs3S0j3PgQ%3D%3D
p598
aVhttps://nam.edu/member/?member_id=AYVnhnyKyZFuidDDF8%2BcGw%3D%3D
p599
aVhttps://nam.edu/member/?member_id=DiwCMmpTrCSDfKfe55k0tg%3D%3D
p600
aVhttps://nam.edu/member/?member_id=p6xGe%2F%2BUte8J1wVYjRL7rg%3D%3D
p601
aVhttps://nam.edu/member/?member_id=78NAE9Orl2RpH%2FIZCrlswQ%3D%3D
p602
aVhttps://nam.edu/member/?member_id=BpK%2BHzwg0TM8WkDHLCPPvg%3D%3D
p603
aVhttps://nam.edu/member/?member_id=rLFzqZe1J28sj1nl1zAiqg%3D%3D
p604
aVhttps://nam.edu/member/?member_id=rLFzqZe1J28sj1nl1zAiqg%3D%3D
p605
aVhttps://nam.edu/member/?member_id=xWz%2Bgx0dIfTwXOM3WtxY1g%3D%3D
p606
aVhttps://nam.edu/member/?member_id=NvyZqKCRhdqDX8x4m7zm9A%3D%3D
p607
aVhttps://nam.edu/member/?member_id=rbVA0jKf2ZcI7KlfcnpQ7w%3D%3D
p608
aVhttps://nam.edu/member/?member_id=IeWnL73bC0x4PokKMTZYVA%3D%3D
p609
aVhttps://nam.edu/member/?member_id=qNIpA3QbFk8r7%2F5Urqhi4g%3D%3D
p610
aVhttps://nam.edu/member/?member_id=H2m2CGVa%2FGxXgPjv70bLLw%3D%3D
p611
aVhttps://nam.edu/member/?member_id=7aRWzR4rZs%2BMsykFcBMQbA%3D%3D
p612
aVhttps://nam.edu/member/?member_id=%2BIvspN6xAitOBOntr%2Fb%2BPQ%3D%3D
p613
aVhttps://nam.edu/member/?member_id=k8m86SAkZuX4tQ%2FmZ2E2Zw%3D%3D
p614
aVhttps://nam.edu/member/?member_id=B2YIrQiRlbcCgNktrVQR7w%3D%3D
p615
aVhttps://nam.edu/member/?member_id=QUzLwOPWIMwFs5I71MmALw%3D%3D
p616
aVhttps://nam.edu/member/?member_id=2Wu6QpndTrs06nBCPO44Yw%3D%3D
p617
aVhttps://nam.edu/member/?member_id=B%2BsK6vBDnKn0hb6nBn8y4A%3D%3D
p618
aVhttps://nam.edu/member/?member_id=EWSF%2BZfncs1I1ShC4k9Wow%3D%3D
p619
aVhttps://nam.edu/member/?member_id=L6s%2FiUJjkm%2FF53Lh8tBzTw%3D%3D
p620
aVhttps://nam.edu/member/?member_id=aHjgjoBswAS8bT%2BuJcnfFA%3D%3D
p621
aVhttps://nam.edu/member/?member_id=3KHxWkrEg6uprw8EI456FA%3D%3D
p622
aVhttps://nam.edu/member/?member_id=mmgjNxOCG3J1L3l4t6tLdQ%3D%3D
p623
aVhttps://nam.edu/member/?member_id=16JvjeajtdzBolKVKxJu4w%3D%3D
p624
aVhttps://nam.edu/member/?member_id=gbeWESqwJLy5bcL%2BoXTgsw%3D%3D
p625
aVhttps://nam.edu/member/?member_id=9R66iIEBXJZ1e3VO4%2FkjkQ%3D%3D
p626
aVhttps://nam.edu/member/?member_id=eQXAnjj6vtGuDDpCtAYKDg%3D%3D
p627
aVhttps://nam.edu/member/?member_id=rgIPx6ULwS4%2FXmban7QRdg%3D%3D
p628
aVhttps://nam.edu/member/?member_id=rYHWph5NohNlg2EZHXC92g%3D%3D
p629
aVhttps://nam.edu/member/?member_id=ytLSNNmvYrSecgWgFQHO6g%3D%3D
p630
aVhttps://nam.edu/member/?member_id=wpIsOyKYkBWMjBp%2FS5tieA%3D%3D
p631
aVhttps://nam.edu/member/?member_id=m0UMf8Fb%2FuqhohXOdS7kmA%3D%3D
p632
aVhttps://nam.edu/member/?member_id=45f0xfwyy%2Bb7m%2BXY3R59qw%3D%3D
p633
aVhttps://nam.edu/member/?member_id=jUeIPqqJft6Yf1n%2B3RKaEA%3D%3D
p634
aVhttps://nam.edu/member/?member_id=mmrFVm%2FvC5cQg%2FRhIcS5%2BQ%3D%3D
p635
aVhttps://nam.edu/member/?member_id=k2Cj79J%2F%2Bs22iD2fX8z8VA%3D%3D
p636
aVhttps://nam.edu/member/?member_id=R3C8Bc%2FWcApNYxTwiekrAw%3D%3D
p637
aVhttps://nam.edu/member/?member_id=CWslBitRSIlaBT55sdDyRQ%3D%3D
p638
aVhttps://nam.edu/member/?member_id=EZ6Mo0e7DQpp62pMWXVjxw%3D%3D
p639
aVhttps://nam.edu/member/?member_id=2pN7c25oQ48SFTbKhQkpyw%3D%3D
p640
aVhttps://nam.edu/member/?member_id=NGFlDdjtbgsBb%2Bkjhc02ew%3D%3D
p641
aVhttps://nam.edu/member/?member_id=2sYjcPCbSWMzWufpqnKWsQ%3D%3D
p642
aVhttps://nam.edu/member/?member_id=a4pSdsLrVtAppVRsKLwuzw%3D%3D
p643
aVhttps://nam.edu/member/?member_id=B%2FpkDwEZ1SZxAcr%2BEx9QHg%3D%3D
p644
aVhttps://nam.edu/member/?member_id=KTLGmEnpDOHIUHHFBZi4mg%3D%3D
p645
aVhttps://nam.edu/member/?member_id=gRiPtYbpYjshaaeMwMU%2BgQ%3D%3D
p646
aVhttps://nam.edu/member/?member_id=wclWkjIcU%2BF4YM%2BKIAm1jA%3D%3D
p647
aVhttps://nam.edu/member/?member_id=wUEwfNRJGvGoWbU7XPftQw%3D%3D
p648
aVhttps://nam.edu/member/?member_id=WRPerMyNmbJCuvuyKZ3D7A%3D%3D
p649
aVhttps://nam.edu/member/?member_id=gDR6EwZ6JdHMZ9ZfhvQnIg%3D%3D
p650
aVhttps://nam.edu/member/?member_id=uoQ1sRn0mNkSYUn%2BAqgQHg%3D%3D
p651
aVhttps://nam.edu/member/?member_id=HB5nJPwGr374gmf0MEzjxg%3D%3D
p652
aVhttps://nam.edu/member/?member_id=2VOov7%2F7fzqVyXxmW7nF%2BA%3D%3D
p653
aVhttps://nam.edu/member/?member_id=BOoN5Z4fYddnrfqrKAJv%2Fw%3D%3D
p654
aVhttps://nam.edu/member/?member_id=tz311sR8Pljbv64tggl2Qg%3D%3D
p655
aVhttps://nam.edu/member/?member_id=fU8mL5XlKnlLyXYtUCER9g%3D%3D
p656
aVhttps://nam.edu/member/?member_id=9GNnRvKy%2BHza7bWoS8xXRQ%3D%3D
p657
aVhttps://nam.edu/member/?member_id=yda7obls3QvuzGR%2BU68LMA%3D%3D
p658
aVhttps://nam.edu/member/?member_id=EeUX6gBhr3iP2OWdQ59vTQ%3D%3D
p659
aVhttps://nam.edu/member/?member_id=aT2BxDw%2BqcLspTcpaGSxmA%3D%3D
p660
aVhttps://nam.edu/member/?member_id=9v7LBF17V9WvQfXunopPNQ%3D%3D
p661
aVhttps://nam.edu/member/?member_id=l1FHWi0eVEKoL2xC43Otgg%3D%3D
p662
aVhttps://nam.edu/member/?member_id=Mg8l9qx4utazqnFuTVFOaw%3D%3D
p663
aVhttps://nam.edu/member/?member_id=mn42QdYm6NNvHnZ%2BRnPSQw%3D%3D
p664
aVhttps://nam.edu/member/?member_id=pl0Q%2BH6jgm72fkvJO7Qv0g%3D%3D
p665
aVhttps://nam.edu/member/?member_id=4Eb35Np%2BaDIbVN1DnlwPsg%3D%3D
p666
aVhttps://nam.edu/member/?member_id=6MuhKYwfUwzh%2Fr1y2kskiQ%3D%3D
p667
aVhttps://nam.edu/member/?member_id=djH2d7cEBfdZ8fANkjFStA%3D%3D
p668
aVhttps://nam.edu/member/?member_id=oTQYgbvLokMW8egMhnMjCA%3D%3D
p669
aVhttps://nam.edu/member/?member_id=d05AnNbrLyXm0zsHqTEZxg%3D%3D
p670
aVhttps://nam.edu/member/?member_id=b1DhyRP44TaJt4oT6%2FpqTA%3D%3D
p671
aVhttps://nam.edu/member/?member_id=oFjxkzjwEUmS%2BQe8wxPdEA%3D%3D
p672
aVhttps://nam.edu/member/?member_id=OiCP3C6SBbmmDv1gqhvbPA%3D%3D
p673
aVhttps://nam.edu/member/?member_id=VFWQvAcF2QNAyawylA5ySg%3D%3D
p674
aVhttps://nam.edu/member/?member_id=MiAbTx4Cl0YTx7mytX775w%3D%3D
p675
aVhttps://nam.edu/member/?member_id=rK3%2BSicWA7pjcOyRpQ0Ovg%3D%3D
p676
aVhttps://nam.edu/member/?member_id=jN8Tz7WYix4b%2BgJ51hVyVA%3D%3D
p677
aVhttps://nam.edu/member/?member_id=bdY4TcH8xPNWbKALMtAPbA%3D%3D
p678
aVhttps://nam.edu/member/?member_id=G2f7EKFcZ0NjqyACBusyXg%3D%3D
p679
aVhttps://nam.edu/member/?member_id=NmckZjbBoM6MmyKBTitpWQ%3D%3D
p680
aVhttps://nam.edu/member/?member_id=a9Vmhdgo7cMsUUXw85YqUA%3D%3D
p681
aVhttps://nam.edu/member/?member_id=5Dv1I%2BN4QV6vK9iS5CRuow%3D%3D
p682
aVhttps://nam.edu/member/?member_id=ZbeHWKw%2B%2Fid4ldxOpi1x6Q%3D%3D
p683
aVhttps://nam.edu/member/?member_id=gpyEeDS%2BLF96O8k4fdudHQ%3D%3D
p684
aVhttps://nam.edu/member/?member_id=qG6TSe3ULXkYzhpf6rjhoA%3D%3D
p685
aVhttps://nam.edu/member/?member_id=a7RAF4T8kWmQHkdoY318kA%3D%3D
p686
aVhttps://nam.edu/member/?member_id=zIuILj8xEEpuNyJvbqE91A%3D%3D
p687
aVhttps://nam.edu/member/?member_id=cGE%2FjRTRatfo%2BlIDUpcLJg%3D%3D
p688
aVhttps://nam.edu/member/?member_id=AEE9D%2Fa3w1OSzHTimmIrNA%3D%3D
p689
aVhttps://nam.edu/member/?member_id=eZyhL7OK81Yf9VNNcHE1vA%3D%3D
p690
aVhttps://nam.edu/member/?member_id=hEALus6S58S0tPVwlA2d4w%3D%3D
p691
aVhttps://nam.edu/member/?member_id=Cbo87IQAuhfhvvAFznIJuA%3D%3D
p692
aVhttps://nam.edu/member/?member_id=EDZvnsLl0ru0TFoGRTTeiw%3D%3D
p693
aVhttps://nam.edu/member/?member_id=WGcEVAAp8%2F2ycjjJs98iOw%3D%3D
p694
aVhttps://nam.edu/member/?member_id=I6A4tFzMM2EdcR2JkcozTA%3D%3D
p695
aVhttps://nam.edu/member/?member_id=wLy9lD1dnIzwDmK9915t9g%3D%3D
p696
aVhttps://nam.edu/member/?member_id=BEEnaMeAJg93%2B3HUnBnVTw%3D%3D
p697
aVhttps://nam.edu/member/?member_id=4XeU19hin2zY9gnqZ37VeA%3D%3D
p698
aVhttps://nam.edu/member/?member_id=OmyL0ZdAPROGSknokY7%2BnQ%3D%3D
p699
aVhttps://nam.edu/member/?member_id=4dbTiEtWAb0pqnN961zwZw%3D%3D
p700
aVhttps://nam.edu/member/?member_id=rdlYn8wY1NaIxhPm664KIQ%3D%3D
p701
aVhttps://nam.edu/member/?member_id=tytJjouKfumaorYmEZ9EcQ%3D%3D
p702
aVhttps://nam.edu/member/?member_id=1oFOOAeTQ9sk0b9VF3vDCA%3D%3D
p703
aVhttps://nam.edu/member/?member_id=8uDH%2FbchX0xknXJCs3xhkQ%3D%3D
p704
aVhttps://nam.edu/member/?member_id=KMfLCnn9W4UfdwvDG50kjg%3D%3D
p705
aVhttps://nam.edu/member/?member_id=n3rTF%2BqdPfzN955aivM%2Bfw%3D%3D
p706
aVhttps://nam.edu/member/?member_id=xGP%2B9QWCb2McNlNuiUWihw%3D%3D
p707
aVhttps://nam.edu/member/?member_id=iPBZU2RtsZy62OuUgGZu8w%3D%3D
p708
aVhttps://nam.edu/member/?member_id=EpL%2BPbyHgH%2FpTNW0PVwIrg%3D%3D
p709
aVhttps://nam.edu/member/?member_id=Tb36rgFlGMtj5PYluqKsQA%3D%3D
p710
aVhttps://nam.edu/member/?member_id=bJsxAT5ftJLvWIZTw7O51Q%3D%3D
p711
aVhttps://nam.edu/member/?member_id=AIBO7PFlnjVrrfteyMabpA%3D%3D
p712
aVhttps://nam.edu/member/?member_id=FJi6Euiv%2BA80F7XC7H%2Fd6g%3D%3D
p713
aVhttps://nam.edu/member/?member_id=gCqiJvHUy5jc8JBX6PaPUQ%3D%3D
p714
aVhttps://nam.edu/member/?member_id=uQgmDdWLQ441NAwAG0cjFg%3D%3D
p715
aVhttps://nam.edu/member/?member_id=hSuDmHXhNhvse1Zls68wiQ%3D%3D
p716
aVhttps://nam.edu/member/?member_id=Hyt2G%2BYW04svnX4NTMmFKg%3D%3D
p717
aVhttps://nam.edu/member/?member_id=RDoHqXBNMYBLRQ7Pq3qFcQ%3D%3D
p718
aVhttps://nam.edu/member/?member_id=htucZqKC%2FwB9TsHWUWEdkA%3D%3D
p719
aVhttps://nam.edu/member/?member_id=s6uY6Vi%2FZGEI%2Br2zkbkeMA%3D%3D
p720
aVhttps://nam.edu/member/?member_id=eo7HIFxq2xPaOufObzYrPg%3D%3D
p721
aVhttps://nam.edu/member/?member_id=wTOpaMUQ%2Fqs%2BngQyf%2Fn09w%3D%3D
p722
aVhttps://nam.edu/member/?member_id=wuw9C33fXevsZfHzS3h2cw%3D%3D
p723
aVhttps://nam.edu/member/?member_id=lxe6nRscCCYt%2F1SPn0yEAA%3D%3D
p724
aVhttps://nam.edu/member/?member_id=2GQ35lM9mpbHn36Lq9e%2B%2FQ%3D%3D
p725
aVhttps://nam.edu/member/?member_id=fYwylytXT9mxXVmY0sisug%3D%3D
p726
aVhttps://nam.edu/member/?member_id=vmtwdVOm0%2B2wbkxSJH5RYg%3D%3D
p727
aVhttps://nam.edu/member/?member_id=J%2FvykWxTsWSBhrTpJY2XLQ%3D%3D
p728
aVhttps://nam.edu/member/?member_id=MRXFhiu%2BYZxPI5f5lJxvkA%3D%3D
p729
aVhttps://nam.edu/member/?member_id=HU2jhF6oAyYfgEU6le8czQ%3D%3D
p730
aVhttps://nam.edu/member/?member_id=PCs7mMaY%2B%2B3qm9GFadCWCA%3D%3D
p731
aVhttps://nam.edu/member/?member_id=TE9FQFyUjLaIgLBLRpNbLg%3D%3D
p732
aVhttps://nam.edu/member/?member_id=TeOa0ULeOOOkPD%2BUd9X3sw%3D%3D
p733
aVhttps://nam.edu/member/?member_id=do9TBwUQ5XfTGRZngW%2BPTA%3D%3D
p734
aVhttps://nam.edu/member/?member_id=sUgWXsleBlEOJRt9dGfl5w%3D%3D
p735
aVhttps://nam.edu/member/?member_id=NdZYhQajvp%2FCTHL7M%2FFN7g%3D%3D
p736
aVhttps://nam.edu/member/?member_id=6qx8oMaG6z7kqh%2Bh30ahEw%3D%3D
p737
aVhttps://nam.edu/member/?member_id=Joz4dWPzmIr752WYJjG99w%3D%3D
p738
aVhttps://nam.edu/member/?member_id=E%2F28JY0LQ%2B3GxbXMDEnfAQ%3D%3D
p739
aVhttps://nam.edu/member/?member_id=9bBFR21YG%2FKsxLArpOgnbg%3D%3D
p740
aVhttps://nam.edu/member/?member_id=jK8jUJvz0D974aHDmqlPoA%3D%3D
p741
aVhttps://nam.edu/member/?member_id=c7aRCXqWnhx1ud0%2FdB4ovw%3D%3D
p742
aVhttps://nam.edu/member/?member_id=LUhQlLKrpHcEoxtFi7FpAw%3D%3D
p743
aVhttps://nam.edu/member/?member_id=BwxdCdBQhOhYZrLT72N8KQ%3D%3D
p744
aVhttps://nam.edu/member/?member_id=3oRFgI633tYa5Z2s9QkLVg%3D%3D
p745
aVhttps://nam.edu/member/?member_id=a2FynWqYWPeS8XrhRd9HZQ%3D%3D
p746
aVhttps://nam.edu/member/?member_id=xTVANUjczJtRbwk2XLD7fg%3D%3D
p747
aVhttps://nam.edu/member/?member_id=Q7X4HYe0ANWcrvzXjVzUDg%3D%3D
p748
aVhttps://nam.edu/member/?member_id=HR9ZCJLkwKviIY%2BfeHCpbw%3D%3D
p749
aVhttps://nam.edu/member/?member_id=tVITrTLW5ZazYHFnCG14Dg%3D%3D
p750
aVhttps://nam.edu/member/?member_id=spav1UvZqV%2F0hrKGFY7D9g%3D%3D
p751
aVhttps://nam.edu/member/?member_id=YH38nO9VFRjbGijQkrkFXA%3D%3D
p752
aVhttps://nam.edu/member/?member_id=z2rupgve5Nlr%2BemZ4brIXg%3D%3D
p753
aVhttps://nam.edu/member/?member_id=V1eL5YNME1q5SlaWOADxNA%3D%3D
p754
aVhttps://nam.edu/member/?member_id=5aMxUs3oAPWobWz8MRd7Gw%3D%3D
p755
aVhttps://nam.edu/member/?member_id=L5IR%2FQWSXJvFgRfyJjbfEA%3D%3D
p756
aVhttps://nam.edu/member/?member_id=T%2F7tclYv5JRdW%2FK0gMokoQ%3D%3D
p757
aVhttps://nam.edu/member/?member_id=7vnpE%2FKdKgLJvrINBP1jxw%3D%3D
p758
aVhttps://nam.edu/member/?member_id=RIdNu%2BzQASOZIBMH6jeinw%3D%3D
p759
aVhttps://nam.edu/member/?member_id=pgraVf1vbYKQuNlxmov02w%3D%3D
p760
aVhttps://nam.edu/member/?member_id=LlLqck7reWVVbkWmDLlU7Q%3D%3D
p761
aVhttps://nam.edu/member/?member_id=DPTZhNVJr94vwEV5bufsiA%3D%3D
p762
aVhttps://nam.edu/member/?member_id=uh9Q6JiwjxUsHiA7ORK4mg%3D%3D
p763
aVhttps://nam.edu/member/?member_id=ldSsTA%2Fp5XrHKe%2BxKBT7Ew%3D%3D
p764
aVhttps://nam.edu/member/?member_id=UeTKEjYf1Um%2ByHDRcO89%2FA%3D%3D
p765
aVhttps://nam.edu/member/?member_id=Ipap5gWmIfYFnPcse4YpLw%3D%3D
p766
aVhttps://nam.edu/member/?member_id=vHTVtsMynbyornRxVqKJTg%3D%3D
p767
aVhttps://nam.edu/member/?member_id=0x5fT5B0PN6xoojZhuHV0A%3D%3D
p768
aVhttps://nam.edu/member/?member_id=rdf%2BuyLzNE3UCTjFI9qHog%3D%3D
p769
aVhttps://nam.edu/member/?member_id=LxCHk06Y9STbqbfYpD46Vg%3D%3D
p770
aVhttps://nam.edu/member/?member_id=1OoieEQqv8EAugmXUX0EzA%3D%3D
p771
aVhttps://nam.edu/member/?member_id=bm18PN0lPfUMFPX1AIeWJg%3D%3D
p772
aVhttps://nam.edu/member/?member_id=YkGTowW0gw7idTOMWyh5Aw%3D%3D
p773
aVhttps://nam.edu/member/?member_id=yzyBp00pA6ZzUBX02dhl1w%3D%3D
p774
aVhttps://nam.edu/member/?member_id=iyn6v3KrlRXsEXMzUTXwhw%3D%3D
p775
aVhttps://nam.edu/member/?member_id=AyPwaR%2BWWL1pSW9cK8Papg%3D%3D
p776
aVhttps://nam.edu/member/?member_id=FQa%2FbQ1vGpqYk4KfsNOwdw%3D%3D
p777
aVhttps://nam.edu/member/?member_id=fjfF3Xq9Jm1eBNj3715vIA%3D%3D
p778
aVhttps://nam.edu/member/?member_id=blPWQQ7jP4LRrPuQbISM%2BA%3D%3D
p779
aVhttps://nam.edu/member/?member_id=26t1ecHiIEx95L%2F3KnwJTw%3D%3D
p780
aVhttps://nam.edu/member/?member_id=oPGKs18QQHvzSbIEq3QSEg%3D%3D
p781
aVhttps://nam.edu/member/?member_id=VpoGeKjGxEnoBCYAkq97OQ%3D%3D
p782
aVhttps://nam.edu/member/?member_id=Wya7FPyNLsPmXCY2pWvNZw%3D%3D
p783
aVhttps://nam.edu/member/?member_id=G3KvKfKdPbj0s364pw2K8A%3D%3D
p784
aVhttps://nam.edu/member/?member_id=4BQ0KpAevV7QRB65iob8Sg%3D%3D
p785
aVhttps://nam.edu/member/?member_id=OrJh%2Fr9rG2sNlUHmb3iWEw%3D%3D
p786
aVhttps://nam.edu/member/?member_id=nLABKXeUhfnld8YpZbQRaA%3D%3D
p787
aVhttps://nam.edu/member/?member_id=GQLgcYHlhf%2FLPrPHQUAlSw%3D%3D
p788
aVhttps://nam.edu/member/?member_id=hJtY35O2E5uUyh68PUNeEQ%3D%3D
p789
aVhttps://nam.edu/member/?member_id=ye2wYxy01NQRQqWSl5474Q%3D%3D
p790
aVhttps://nam.edu/member/?member_id=w6zbCKIiQ0YIregRirGZuQ%3D%3D
p791
aVhttps://nam.edu/member/?member_id=g9W1BfVaXtYSMGePfX7wpw%3D%3D
p792
aVhttps://nam.edu/member/?member_id=PZ1amWoJaaBkKkwoYePENQ%3D%3D
p793
aVhttps://nam.edu/member/?member_id=RKMa6eaXFoRakWNNcZF2eQ%3D%3D
p794
aVhttps://nam.edu/member/?member_id=38%2F5kurO3iFN8o39cV%2Fvig%3D%3D
p795
aVhttps://nam.edu/member/?member_id=qR8Eg%2B087CUxMiDhcP5AQA%3D%3D
p796
aVhttps://nam.edu/member/?member_id=lOkupIAfYkjGG4pNnCepOg%3D%3D
p797
aVhttps://nam.edu/member/?member_id=ed2d3nj9bDEAz8kgDBQIkg%3D%3D
p798
aVhttps://nam.edu/member/?member_id=nO225iu6IHGiuwNPq9Uktw%3D%3D
p799
aVhttps://nam.edu/member/?member_id=Ap31MG5ariiuUSye7AUKiQ%3D%3D
p800
aVhttps://nam.edu/member/?member_id=kiZiKgxQW46tPyGKJ28fMw%3D%3D
p801
aVhttps://nam.edu/member/?member_id=ktQQvm99fpbwTAVd8DASTg%3D%3D
p802
aVhttps://nam.edu/member/?member_id=pqfuYE19gnrzNxWWzzBjpA%3D%3D
p803
aVhttps://nam.edu/member/?member_id=MoJpFCtGUC%2FrxBTo%2Bblxrw%3D%3D
p804
aVhttps://nam.edu/member/?member_id=zbaC7cQFsjNF%2Bani%2Bb33sQ%3D%3D
p805
aVhttps://nam.edu/member/?member_id=%2FLQpW8ESQ%2BI4UgDuKJuoQA%3D%3D
p806
aVhttps://nam.edu/member/?member_id=IFWkVMhjSB7EHBg7MYFXNA%3D%3D
p807
aVhttps://nam.edu/member/?member_id=xKU01j7YX%2BPgHoemyQZ4dA%3D%3D
p808
aVhttps://nam.edu/member/?member_id=tHoP9%2Be0BLhEJaD%2FD5z06Q%3D%3D
p809
aVhttps://nam.edu/member/?member_id=Qk9EXF9vzjIAFvFrf%2F9z%2FA%3D%3D
p810
aVhttps://nam.edu/member/?member_id=O5fOekDhQOvC1aNRa%2BP0Lg%3D%3D
p811
aVhttps://nam.edu/member/?member_id=jH5auFnFYJYZGW1aVpbPoA%3D%3D
p812
aVhttps://nam.edu/member/?member_id=t8bDCWjhjsrOUpIfDRm%2FGw%3D%3D
p813
aVhttps://nam.edu/member/?member_id=GcxsaUrT2NUy0km8TGhJJg%3D%3D
p814
aVhttps://nam.edu/member/?member_id=YnR%2BfksueVgzO1OH%2FM35Rw%3D%3D
p815
aVhttps://nam.edu/member/?member_id=RdfrLTqxlQzZ9rtOpQwBWQ%3D%3D
p816
aVhttps://nam.edu/member/?member_id=BiJxhs5EW5SlCoixfWVSqA%3D%3D
p817
aVhttps://nam.edu/member/?member_id=EJ7KStpngcOsjaFvAe0nag%3D%3D
p818
aVhttps://nam.edu/member/?member_id=6NdqtjNIodpYOhhDlWcUog%3D%3D
p819
aVhttps://nam.edu/member/?member_id=0W8s5mo2LjN21me27VK2Qw%3D%3D
p820
aVhttps://nam.edu/member/?member_id=Y7X3QGr7SOXsxAg2kYItmA%3D%3D
p821
aVhttps://nam.edu/member/?member_id=UapcjzcCViNlKgSRyJcttg%3D%3D
p822
aVhttps://nam.edu/member/?member_id=A427gwuSOBUNW86XzVEivg%3D%3D
p823
aVhttps://nam.edu/member/?member_id=C9%2FpO3gdZa41Vo0b6Y1oQw%3D%3D
p824
aVhttps://nam.edu/member/?member_id=fgxpwb0ImVMIlwnd4Itajg%3D%3D
p825
aVhttps://nam.edu/member/?member_id=k4QlxXEf1Oc9wM4QRnycrw%3D%3D
p826
aVhttps://nam.edu/member/?member_id=ynsFQQCT1L1JGeJVxTorSQ%3D%3D
p827
aVhttps://nam.edu/member/?member_id=JV9ZY%2B2YIt5nsQaIzXGaIQ%3D%3D
p828
aVhttps://nam.edu/member/?member_id=aVSIK8vqv6OrjdqtuXZnjQ%3D%3D
p829
aVhttps://nam.edu/member/?member_id=ROVPwj7qOvkAV%2FSbNoCGmA%3D%3D
p830
aVhttps://nam.edu/member/?member_id=p4I%2Ftfnc9kGBMTTXk9hnqw%3D%3D
p831
aVhttps://nam.edu/member/?member_id=l8rCYaVqdpEzvToUVEJcQQ%3D%3D
p832
aVhttps://nam.edu/member/?member_id=AY275UBrUoa2RVa5HubSKw%3D%3D
p833
aVhttps://nam.edu/member/?member_id=JaJJ%2FvooRrN9s9cX0vi95g%3D%3D
p834
aVhttps://nam.edu/member/?member_id=qDPOhKhdW9H00rOxXmFAIg%3D%3D
p835
aVhttps://nam.edu/member/?member_id=nhyKz6E5XS7g%2BqMYAUmwhQ%3D%3D
p836
aVhttps://nam.edu/member/?member_id=sVO%2FUxm6npPKHw7WBWzrwA%3D%3D
p837
aVhttps://nam.edu/member/?member_id=hVfJRmzXdt8LT%2B0ze5eJPg%3D%3D
p838
aVhttps://nam.edu/member/?member_id=AIMFNYEKcXwCmkaiV4Byfw%3D%3D
p839
aVhttps://nam.edu/member/?member_id=CCvTWlEyCnx4uXTF9%2BD4Tw%3D%3D
p840
aVhttps://nam.edu/member/?member_id=8UyWQxWt0cldBrlWOfAvOA%3D%3D
p841
aVhttps://nam.edu/member/?member_id=8310ppvcKQ9afSlitBTSow%3D%3D
p842
aVhttps://nam.edu/member/?member_id=LZYFvEcmOwmUxOtxb4k3hA%3D%3D
p843
aVhttps://nam.edu/member/?member_id=C8GhL7WsdNTFIOGDI76voQ%3D%3D
p844
aVhttps://nam.edu/member/?member_id=FjurHjBeY%2FuivQGfUX6B7A%3D%3D
p845
aVhttps://nam.edu/member/?member_id=4rmHRsli1pNoFo23NFEI6Q%3D%3D
p846
aVhttps://nam.edu/member/?member_id=DjZJDiqhvGtr4MlmRAYatw%3D%3D
p847
aVhttps://nam.edu/member/?member_id=u5ySgMcaFWrMquGh7t7HlQ%3D%3D
p848
aVhttps://nam.edu/member/?member_id=AG5xEHVqrjvdnoKLFIHXwA%3D%3D
p849
aVhttps://nam.edu/member/?member_id=NlcT3CvPhhm8qgVwGZcLzQ%3D%3D
p850
aVhttps://nam.edu/member/?member_id=nJC0NBBaaz9rJiZZeleOag%3D%3D
p851
aVhttps://nam.edu/member/?member_id=aw2nV9E4SdeBTNLq33aUSw%3D%3D
p852
aVhttps://nam.edu/member/?member_id=4y0wyTUcbY1JGKfatnPTkQ%3D%3D
p853
aVhttps://nam.edu/member/?member_id=6UWOrbX%2BYebnnovn97Ggzw%3D%3D
p854
aVhttps://nam.edu/member/?member_id=sliIQTkHRI%2FNF7TgSuPtiQ%3D%3D
p855
aVhttps://nam.edu/member/?member_id=JoCvROukl7Ozqnq7nbyAcQ%3D%3D
p856
aVhttps://nam.edu/member/?member_id=2A4vY7IQ7TjaDspNN6JjOg%3D%3D
p857
aVhttps://nam.edu/member/?member_id=Z%2FHpQuepBVGMzxrsDpzDmQ%3D%3D
p858
aVhttps://nam.edu/member/?member_id=a63hPtGq62YQdX0pToSRmw%3D%3D
p859
aVhttps://nam.edu/member/?member_id=Jj4dS7iIZT9fal9TEvyxQw%3D%3D
p860
aVhttps://nam.edu/member/?member_id=OPZeNRtbw2WWBvybUrVHZg%3D%3D
p861
aVhttps://nam.edu/member/?member_id=Bpw1Xw9hF8Y8gfRLIobEOQ%3D%3D
p862
aVhttps://nam.edu/member/?member_id=lwFbHGG2E8BJqJR5qzwHmw%3D%3D
p863
aVhttps://nam.edu/member/?member_id=iinb47R1Hm1qtrN4FutdJg%3D%3D
p864
aVhttps://nam.edu/member/?member_id=nQVE258lgjT8zRatBskHtQ%3D%3D
p865
aVhttps://nam.edu/member/?member_id=y5VAScEx3TqtrXiyEy1JKg%3D%3D
p866
aVhttps://nam.edu/member/?member_id=hPNv2QMl2Dndp4zgrp3paQ%3D%3D
p867
aVhttps://nam.edu/member/?member_id=eqPQoWGFJwS1SooX5V%2B2gA%3D%3D
p868
aVhttps://nam.edu/member/?member_id=D9QrHg561dNcvpxcqAYdpw%3D%3D
p869
aVhttps://nam.edu/member/?member_id=2Ndp63JGi0%2FhUUVCpqP2Qw%3D%3D
p870
aVhttps://nam.edu/member/?member_id=8gAZwYfbFgmEv49QhfaVLQ%3D%3D
p871
aVhttps://nam.edu/member/?member_id=Y2%2FQpnqnaFRoI950A1dz9A%3D%3D
p872
aVhttps://nam.edu/member/?member_id=D%2FEWKiNfycUz44kmb8ihfQ%3D%3D
p873
aVhttps://nam.edu/member/?member_id=r8mxrYXQCBBQBCcCWeamfA%3D%3D
p874
aVhttps://nam.edu/member/?member_id=c0BdChfZOClbQ7oNKvbXCA%3D%3D
p875
aVhttps://nam.edu/member/?member_id=2QbhM1UCAiO79ZKd4JHzNQ%3D%3D
p876
aVhttps://nam.edu/member/?member_id=bpcQ8mGazt5pJwAP3X2J2Q%3D%3D
p877
aVhttps://nam.edu/member/?member_id=kOlzo%2FrYHNWSyfOC9%2B0DKQ%3D%3D
p878
aVhttps://nam.edu/member/?member_id=8aSQbiPS%2FZS2nGl91V9Pjw%3D%3D
p879
aVhttps://nam.edu/member/?member_id=58aUKeyU2YjhO%2BJgoINTVA%3D%3D
p880
aVhttps://nam.edu/member/?member_id=xqKyaZfHYN%2F0XJlMXgN6ag%3D%3D
p881
aVhttps://nam.edu/member/?member_id=fchteNSew1d%2Bm8x7%2FVzCSA%3D%3D
p882
aVhttps://nam.edu/member/?member_id=Pp9TAHPL1p5c5Dow542blg%3D%3D
p883
aVhttps://nam.edu/member/?member_id=jtuSBlptZcOG%2Bt0f%2BgMFiQ%3D%3D
p884
aVhttps://nam.edu/member/?member_id=Mg3IMyFxgrcE13r2%2B4evQw%3D%3D
p885
aVhttps://nam.edu/member/?member_id=aYtFjMsSFyYpNm%2BKeTveMw%3D%3D
p886
aVhttps://nam.edu/member/?member_id=Mj8UGs14SJKCdpbnkCuKoA%3D%3D
p887
aVhttps://nam.edu/member/?member_id=IJoMSNIYyfNk%2FGO2Zayw%2FQ%3D%3D
p888
aVhttps://nam.edu/member/?member_id=5MBnTKoYVUq2OGdrRez%2Blg%3D%3D
p889
aVhttps://nam.edu/member/?member_id=9%2FhUESy%2FdYwOaMMNUhlDwg%3D%3D
p890
aVhttps://nam.edu/member/?member_id=J6hGGHPXhkwhW8B2EkfErA%3D%3D
p891
aVhttps://nam.edu/member/?member_id=1JXLgGOiOHQaY98tT5suYg%3D%3D
p892
aVhttps://nam.edu/member/?member_id=6REzAQWD%2F9DRFvXhYWFARw%3D%3D
p893
aVhttps://nam.edu/member/?member_id=CNnF9ohos9TuArsB0OdSOA%3D%3D
p894
aVhttps://nam.edu/member/?member_id=SK8Ga6NKR0zJdqxTPBSL%2BQ%3D%3D
p895
aVhttps://nam.edu/member/?member_id=qF4NOXsFKna%2Fxiup%2BoJfZA%3D%3D
p896
aVhttps://nam.edu/member/?member_id=3GWabWHRcmVnPlhXqYLnjw%3D%3D
p897
aVhttps://nam.edu/member/?member_id=rjSHIjYh7vc9kfGpXrGnVQ%3D%3D
p898
aVhttps://nam.edu/member/?member_id=%2FdgwzlKHVY4fZ0nwsMT7xw%3D%3D
p899
aVhttps://nam.edu/member/?member_id=1Q34pibgy9C%2BvAkKurUvRA%3D%3D
p900
aVhttps://nam.edu/member/?member_id=406HpfY0JFLq983ZxmQvYA%3D%3D
p901
aVhttps://nam.edu/member/?member_id=K88SOWC%2F1GDX3htfNH%2Bt4w%3D%3D
p902
aVhttps://nam.edu/member/?member_id=L%2FIhFYqLEHQWUj%2F2s3xRJg%3D%3D
p903
aVhttps://nam.edu/member/?member_id=Da7J3yvQoyTQCsVl%2F2A2hQ%3D%3D
p904
aVhttps://nam.edu/member/?member_id=y2OD8R1MsnkBl0gFIpYWBg%3D%3D
p905
aVhttps://nam.edu/member/?member_id=lrapMKwSNnAk9Hxqcd7Bwg%3D%3D
p906
aVhttps://nam.edu/member/?member_id=FFsLHxt9LMLJYZZ0IYvmJw%3D%3D
p907
aVhttps://nam.edu/member/?member_id=5Kk%2FQ4wlvZ%2BipWTNGkrXfA%3D%3D
p908
aVhttps://nam.edu/member/?member_id=vctpW9seHVkrXSFhKwbq6Q%3D%3D
p909
aVhttps://nam.edu/member/?member_id=pOzYkO6zq5ABzZw%2BQs60sA%3D%3D
p910
aVhttps://nam.edu/member/?member_id=PMA4u33dYDxAEDUm0zraUw%3D%3D
p911
aVhttps://nam.edu/member/?member_id=XtJpO1JlQgQX%2FIuHuJsqgA%3D%3D
p912
aVhttps://nam.edu/member/?member_id=%2FMKQ5UjngNgpqRRzbdSULQ%3D%3D
p913
aVhttps://nam.edu/member/?member_id=DwYMmBOpMNkyrpRUYsJ%2F8A%3D%3D
p914
aVhttps://nam.edu/member/?member_id=INLrM2ljL%2BrpIs25aLHMow%3D%3D
p915
aVhttps://nam.edu/member/?member_id=uNWsZ%2Fc4ZfTHlXhowHL2Ew%3D%3D
p916
aVhttps://nam.edu/member/?member_id=ChbI%2FQQQaxOtRzXd2liE6w%3D%3D
p917
aVhttps://nam.edu/member/?member_id=3mw%2FF%2BJtQ%2BblY7kfqzsPOw%3D%3D
p918
aVhttps://nam.edu/member/?member_id=FJJgPeebfeklC7LfeZnD%2Fg%3D%3D
p919
aVhttps://nam.edu/member/?member_id=VIJZQ8fJBIjgMxkjLAziOg%3D%3D
p920
aVhttps://nam.edu/member/?member_id=WcqbWJP%2B7FWSNNJPZt1BSg%3D%3D
p921
aVhttps://nam.edu/member/?member_id=eyBzLGcVQH6xEkVi9Qrh%2BQ%3D%3D
p922
aVhttps://nam.edu/member/?member_id=sxhJQW83kkEeRi0cBtMrDw%3D%3D
p923
aVhttps://nam.edu/member/?member_id=bgRp%2FKPpmVNtl%2Ft3H5bU5A%3D%3D
p924
aVhttps://nam.edu/member/?member_id=qSkV4pJzW924SPKv8KH6WQ%3D%3D
p925
aVhttps://nam.edu/member/?member_id=CS444CmoRZVAKTHF2AjGPg%3D%3D
p926
aVhttps://nam.edu/member/?member_id=oOCiIEBXqmtfVNqC9EITAw%3D%3D
p927
aVhttps://nam.edu/member/?member_id=qOq0D2SeV9fVDJAw%2F1Gh1Q%3D%3D
p928
aVhttps://nam.edu/member/?member_id=5D1SRBewoi8jS7jkWi%2Bcew%3D%3D
p929
aVhttps://nam.edu/member/?member_id=YTkJuzbqEu4IIRNR5CS5UA%3D%3D
p930
aVhttps://nam.edu/member/?member_id=Nkm6FNcJaNu1cnbin58%2B%2Bg%3D%3D
p931
aVhttps://nam.edu/member/?member_id=eSK9qyYoxE9Ax4zd8nwMjw%3D%3D
p932
aVhttps://nam.edu/member/?member_id=nMT6qYvL6VpByCIWoSoUrA%3D%3D
p933
aVhttps://nam.edu/member/?member_id=wSBAbTVvipGiFfgXEWPp7Q%3D%3D
p934
aVhttps://nam.edu/member/?member_id=QMH1KeAwTpSil10SV1Jnkg%3D%3D
p935
aVhttps://nam.edu/member/?member_id=59zNyjWUg8Uo4FgWCJPnFw%3D%3D
p936
aVhttps://nam.edu/member/?member_id=bwBzxP5fObwKnyTFeglaeg%3D%3D
p937
aVhttps://nam.edu/member/?member_id=veszBUQTD%2FMfEA303OhiMg%3D%3D
p938
aVhttps://nam.edu/member/?member_id=ts7d%2FRzmmOJBfbHVlimELw%3D%3D
p939
aVhttps://nam.edu/member/?member_id=AtteFl65Zr4nUBNjG0Vm%2BQ%3D%3D
p940
aVhttps://nam.edu/member/?member_id=PcY5t71kEPWKg%2B%2Be2s2rNA%3D%3D
p941
aVhttps://nam.edu/member/?member_id=gFy0cp89MXmAzv9BD%2BwT8A%3D%3D
p942
aVhttps://nam.edu/member/?member_id=ts0YsttqPx9DMSRl7Ym93A%3D%3D
p943
aVhttps://nam.edu/member/?member_id=cMTDr%2FrOKHpT70sVpDyRJA%3D%3D
p944
aVhttps://nam.edu/member/?member_id=8UGXJgHCY%2BbMtXR5e5IoIQ%3D%3D
p945
aVhttps://nam.edu/member/?member_id=c5CL%2BK6JBJ3zoYDsGg9yjg%3D%3D
p946
aVhttps://nam.edu/member/?member_id=OhRRWkK5idiFsiTGdob1wQ%3D%3D
p947
aVhttps://nam.edu/member/?member_id=WhxsTlPgTGNxGFG3mJL6Bw%3D%3D
p948
aVhttps://nam.edu/member/?member_id=pC53n4tvQkElQpIme5fBxw%3D%3D
p949
aVhttps://nam.edu/member/?member_id=uqaR%2FhcNmMp8BCvXUA6gKg%3D%3D
p950
aVhttps://nam.edu/member/?member_id=%2BRrJGUyUeyWxT6Xk0CqJeg%3D%3D
p951
aVhttps://nam.edu/member/?member_id=DOhGNab7a4X3jXfiVl9FMQ%3D%3D
p952
aVhttps://nam.edu/member/?member_id=DPSA1rzzUt3SqWEzHtu1vw%3D%3D
p953
aVhttps://nam.edu/member/?member_id=mW6ifaQZ2%2BgbLE9tcB36CA%3D%3D
p954
aVhttps://nam.edu/member/?member_id=tQxtEcIYYu1%2Bkqy7D4OS0g%3D%3D
p955
aVhttps://nam.edu/member/?member_id=p5UT72pavZ6iPybqC%2FlqwQ%3D%3D
p956
aVhttps://nam.edu/member/?member_id=a%2BsyG6T3q%2FZQ4zZdvcp3Tg%3D%3D
p957
aVhttps://nam.edu/member/?member_id=W5Gz8MU%2FaA8P4oO7dULAew%3D%3D
p958
aVhttps://nam.edu/member/?member_id=Lxr8wZaGTLXaaKLsXIO3Og%3D%3D
p959
aVhttps://nam.edu/member/?member_id=vldtB5t2jy3ablABrU3nqQ%3D%3D
p960
aVhttps://nam.edu/member/?member_id=b5OTHaVbACHCj8IAHCs16w%3D%3D
p961
aVhttps://nam.edu/member/?member_id=Wux9Eo9OH5H4AcCL407GxQ%3D%3D
p962
aVhttps://nam.edu/member/?member_id=Hs8p9ThsWGHaSmOFSPRy6w%3D%3D
p963
aVhttps://nam.edu/member/?member_id=oAWyiBReXc%2Bawpi1cKTQIw%3D%3D
p964
aVhttps://nam.edu/member/?member_id=9B8htP5T2HICrxoMc0%2F4NQ%3D%3D
p965
aVhttps://nam.edu/member/?member_id=bo0mEbLlmdQCCUga7DtWpA%3D%3D
p966
aVhttps://nam.edu/member/?member_id=FtkH5pfdVfmkfgRe%2Bbp1hg%3D%3D
p967
aVhttps://nam.edu/member/?member_id=%2BOViDCPcXw9PHHsjNnYLoQ%3D%3D
p968
aVhttps://nam.edu/member/?member_id=7kaLIahTpkd4VJd%2BXJOU3g%3D%3D
p969
aVhttps://nam.edu/member/?member_id=2%2FQ%2BeSQ2GNnXjT4nmL%2BXOg%3D%3D
p970
aVhttps://nam.edu/member/?member_id=wfc8qmmgzdJ%2Be7EROf1yZg%3D%3D
p971
aVhttps://nam.edu/member/?member_id=SvTi8M8NCMVoGrD8SkkbTQ%3D%3D
p972
aVhttps://nam.edu/member/?member_id=fxr9m3U2GmVf5gpVifejyQ%3D%3D
p973
aVhttps://nam.edu/member/?member_id=hjjDSCA5ZDt3w6eAxaZZNw%3D%3D
p974
aVhttps://nam.edu/member/?member_id=aNDqaePNi9C4eEtaQ1scHw%3D%3D
p975
aVhttps://nam.edu/member/?member_id=WeFy9sgfC7YSbWdVYZQ6ww%3D%3D
p976
aVhttps://nam.edu/member/?member_id=AAKS6d5gUUBvp9jaUP3YZg%3D%3D
p977
aVhttps://nam.edu/member/?member_id=Op5ipCD0GIeQ2qeGypBUxQ%3D%3D
p978
aVhttps://nam.edu/member/?member_id=EFPXBs%2FDfcTASc9b1UuN3w%3D%3D
p979
aVhttps://nam.edu/member/?member_id=K8hsaIbPCX57FjcuJSqg5g%3D%3D
p980
aVhttps://nam.edu/member/?member_id=WssyiqAkKFHaEpuv3zPx3w%3D%3D
p981
aVhttps://nam.edu/member/?member_id=Z9G04rvUkrlLMscOoWN7eQ%3D%3D
p982
aVhttps://nam.edu/member/?member_id=RUApMzUiFOdA6VHubOi6fg%3D%3D
p983
aVhttps://nam.edu/member/?member_id=8aGe%2Fd85uI42cl6p2RWiVw%3D%3D
p984
aVhttps://nam.edu/member/?member_id=8uWqVo%2Bf6d9G7imp9IUhKw%3D%3D
p985
aVhttps://nam.edu/member/?member_id=TRRgRXW%2Fqwv1tg12zLm%2BMg%3D%3D
p986
aVhttps://nam.edu/member/?member_id=P5UEotblqO%2Fg7SB3CeECxg%3D%3D
p987
aVhttps://nam.edu/member/?member_id=gyqj%2FV6aG7FlfovUYYVF9A%3D%3D
p988
aVhttps://nam.edu/member/?member_id=vrhbAAQ13n%2BWaHDsLy2jLw%3D%3D
p989
aVhttps://nam.edu/member/?member_id=a7sjkRcCB4QiMWGkvwQVRw%3D%3D
p990
aVhttps://nam.edu/member/?member_id=JixkKNXBcULLkF9xQxTcgw%3D%3D
p991
aVhttps://nam.edu/member/?member_id=QwHL7ckZ%2Bl3i7rqthgSYxQ%3D%3D
p992
aVhttps://nam.edu/member/?member_id=QBQ4ksBFVS58H4A4dkBOuA%3D%3D
p993
aVhttps://nam.edu/member/?member_id=LT1wito64Xuuj9bRyjkH1A%3D%3D
p994
aVhttps://nam.edu/member/?member_id=NP3ptfav%2B8k4jyT%2FGIg9WQ%3D%3D
p995
aVhttps://nam.edu/member/?member_id=VkfhuUNBl35fN2Qu0I0NCQ%3D%3D
p996
aVhttps://nam.edu/member/?member_id=lTo2oamVTarUTie7m7t8wQ%3D%3D
p997
aVhttps://nam.edu/member/?member_id=wsRRlZtpmP5rvk7BFjSVQw%3D%3D
p998
aVhttps://nam.edu/member/?member_id=%2B6A0Rqyy9ICz6ome1qyscw%3D%3D
p999
aVhttps://nam.edu/member/?member_id=yA%2B4Ss1F%2FR9qfsUj1ftXnw%3D%3D
p1000
aVhttps://nam.edu/member/?member_id=2oSNUGB7WLYc1dU4xPdFxQ%3D%3D
p1001
aVhttps://nam.edu/member/?member_id=WsKJzCGxtJRDW6l3R1Xv9Q%3D%3D
p1002
aVhttps://nam.edu/member/?member_id=CXs6SrVllRjRgr6N00eynQ%3D%3D
p1003
aVhttps://nam.edu/member/?member_id=kRZi1Iz1mFUGXbJb6aaZTA%3D%3D
p1004
aVhttps://nam.edu/member/?member_id=yI%2FqL9z8lcKc8mkQ2%2FOdRA%3D%3D
p1005
aVhttps://nam.edu/member/?member_id=MfdOdAwuFbzfIeVfXqsanA%3D%3D
p1006
aVhttps://nam.edu/member/?member_id=m6qAfrnmkoPBpXLAb%2B0tZg%3D%3D
p1007
aVhttps://nam.edu/member/?member_id=tfGx654s%2FoSdVUDe6oynwQ%3D%3D
p1008
aVhttps://nam.edu/member/?member_id=wW8k0b5%2FxYzbe3JqdorQ1Q%3D%3D
p1009
aVhttps://nam.edu/member/?member_id=kjrnKPxWQJWVEAZ8e1tmug%3D%3D
p1010
aVhttps://nam.edu/member/?member_id=AhVTbhzLI%2BT2txwPdh30dQ%3D%3D
p1011
aVhttps://nam.edu/member/?member_id=kU3K08%2FCNWnXzV5mOYeKvQ%3D%3D
p1012
aVhttps://nam.edu/member/?member_id=V8X8L%2FQtui9C90fPIUel8Q%3D%3D
p1013
aVhttps://nam.edu/member/?member_id=eQWiwbq76%2FnE5KW%2FN%2FDVig%3D%3D
p1014
aVhttps://nam.edu/member/?member_id=J9Y2v2l5W1K9ypNsSNZ0bQ%3D%3D
p1015
aVhttps://nam.edu/member/?member_id=tuRaqRzed4tLqLZmuAiwMg%3D%3D
p1016
aVhttps://nam.edu/member/?member_id=3aTeegG%2FSuHSq6TnIp%2BxrA%3D%3D
p1017
aVhttps://nam.edu/member/?member_id=WKYW66nEcruMiWFMCH1KEQ%3D%3D
p1018
aVhttps://nam.edu/member/?member_id=brcBaF1siIy8KYdo23aufw%3D%3D
p1019
aVhttps://nam.edu/member/?member_id=A5%2F5822lQtgYqKS8geJT9g%3D%3D
p1020
aVhttps://nam.edu/member/?member_id=XgHaxn2L8bPRvPuQ2bkSTg%3D%3D
p1021
aVhttps://nam.edu/member/?member_id=YjunAa7DuZ101XgCJT6j8A%3D%3D
p1022
aVhttps://nam.edu/member/?member_id=FH11iLrwKcq5%2BPKOIQ0ZVA%3D%3D
p1023
aVhttps://nam.edu/member/?member_id=V5MbFN%2BWW409ddbto0eIvw%3D%3D
p1024
aVhttps://nam.edu/member/?member_id=Sr6myfgwZjOF2Nn%2BcKm%2B7g%3D%3D
p1025
aVhttps://nam.edu/member/?member_id=we54qI8Y0J5V60mRTr3oHA%3D%3D
p1026
aVhttps://nam.edu/member/?member_id=mE4u7LjN0EwwKNLKOIguCA%3D%3D
p1027
aVhttps://nam.edu/member/?member_id=JP1eKTyq76AMw6O1JhUgow%3D%3D
p1028
aVhttps://nam.edu/member/?member_id=ThL6QtY7fNA44v%2Bs%2Bpqipw%3D%3D
p1029
aVhttps://nam.edu/member/?member_id=NYP2d3Wi4oyxOVkE7AEa%2FQ%3D%3D
p1030
aVhttps://nam.edu/member/?member_id=R3lk%2BQqUOlTYxh5VOH3uFw%3D%3D
p1031
aVhttps://nam.edu/member/?member_id=BsOASiOt%2Fo6G9v9TK%2BiURA%3D%3D
p1032
aVhttps://nam.edu/member/?member_id=o1j6M6SzUUbEmYqRdA73CQ%3D%3D
p1033
aVhttps://nam.edu/member/?member_id=6H6MAbEhwk8D%2FNTo6laq4w%3D%3D
p1034
aVhttps://nam.edu/member/?member_id=E11geWAlLQZzXCyQAs2bXw%3D%3D
p1035
aVhttps://nam.edu/member/?member_id=i9qIN9xBP2InkeOmAeaZyg%3D%3D
p1036
aVhttps://nam.edu/member/?member_id=9rYl4InEvQfI44cjgH8hFg%3D%3D
p1037
aVhttps://nam.edu/member/?member_id=x9OYO%2B7DM1HxqRrLY27Jow%3D%3D
p1038
aVhttps://nam.edu/member/?member_id=APksUyF6FZKSyqQoxGx9kQ%3D%3D
p1039
aVhttps://nam.edu/member/?member_id=SqzEW8XmyivcRYfYfsjqzQ%3D%3D
p1040
aVhttps://nam.edu/member/?member_id=GyYCgZIPrjGWJLfPYmwkxA%3D%3D
p1041
aVhttps://nam.edu/member/?member_id=xSOWCNtBAw5KakMTgfTxtw%3D%3D
p1042
aVhttps://nam.edu/member/?member_id=6G%2B7%2FvZPXw9VEDR5YVpx%2Fw%3D%3D
p1043
aVhttps://nam.edu/member/?member_id=XiM5yzUsnMROW%2BGlHfTzwQ%3D%3D
p1044
aVhttps://nam.edu/member/?member_id=%2BanM9dXggcOQMGSN0j34%2BA%3D%3D
p1045
aVhttps://nam.edu/member/?member_id=JpUuI3flrR4iq3p%2F6NGIuw%3D%3D
p1046
aVhttps://nam.edu/member/?member_id=tAc%2F3lO3ivpMtwmdhNOJhA%3D%3D
p1047
aVhttps://nam.edu/member/?member_id=v0ZoipKBvyW1IpLNbHNLRA%3D%3D
p1048
aVhttps://nam.edu/member/?member_id=8hWKaaTTEbv%2FvuF5PSFePg%3D%3D
p1049
aVhttps://nam.edu/member/?member_id=uBbbXj2k5ERLJYe102oKvw%3D%3D
p1050
aVhttps://nam.edu/member/?member_id=BeIQt1i%2BDj%2Bd9TUF0nIyYA%3D%3D
p1051
aVhttps://nam.edu/member/?member_id=GX6YywBvq4VSN5jRNqhtJQ%3D%3D
p1052
aVhttps://nam.edu/member/?member_id=rZF4DOANS5buk6Bz2POAKw%3D%3D
p1053
aVhttps://nam.edu/member/?member_id=4Fe4MH2l8NmzlxFLgOAiww%3D%3D
p1054
aVhttps://nam.edu/member/?member_id=wK4%2Bs99sc2F7Cr2usIs6ag%3D%3D
p1055
aVhttps://nam.edu/member/?member_id=DPL3SygSJ9ykne%2BxoWO5Pw%3D%3D
p1056
aVhttps://nam.edu/member/?member_id=ah5trOcIoSld0sS1eZQVxA%3D%3D
p1057
aVhttps://nam.edu/member/?member_id=jSyPkG066Z1w62UYJuRbYQ%3D%3D
p1058
aVhttps://nam.edu/member/?member_id=FnE2EdteJUd1D1StIRDRIA%3D%3D
p1059
aVhttps://nam.edu/member/?member_id=%2BVxWjZHi7aIkNPcaskFjLw%3D%3D
p1060
aVhttps://nam.edu/member/?member_id=2EXNjGQvqCXt0IuB8%2FHKWA%3D%3D
p1061
aVhttps://nam.edu/member/?member_id=KpDYXXfzSoUrZfWw1wwj2A%3D%3D
p1062
aVhttps://nam.edu/member/?member_id=aZWuhhTgCF2NqJ1Thr6ndg%3D%3D
p1063
aVhttps://nam.edu/member/?member_id=8wYHLxJHxvjU5UUnlNc12w%3D%3D
p1064
aVhttps://nam.edu/member/?member_id=atlCVRqK1Gk2VPER5KRvPg%3D%3D
p1065
aVhttps://nam.edu/member/?member_id=Ngx1noawhZe8jZUys%2B6MNw%3D%3D
p1066
aVhttps://nam.edu/member/?member_id=NoOjy7C8qSS0dY2F7FtLmw%3D%3D
p1067
aVhttps://nam.edu/member/?member_id=8EP7FDt0XeB3NCd2q4VR8g%3D%3D
p1068
aVhttps://nam.edu/member/?member_id=bzyEzFT9oR6tAXUZkd%2FSeA%3D%3D
p1069
aVhttps://nam.edu/member/?member_id=CARcQiGgQOvpvASWX3DNsA%3D%3D
p1070
aVhttps://nam.edu/member/?member_id=7yyO0lkLBHa7alAZkpxe5A%3D%3D
p1071
aVhttps://nam.edu/member/?member_id=kj8zDsKj1RAyrHWyoLJ%2ByQ%3D%3D
p1072
aVhttps://nam.edu/member/?member_id=7lwFOmWq8vd8RzbRdUpxKw%3D%3D
p1073
aVhttps://nam.edu/member/?member_id=qhYeqvAcaBrUuHrqM5FpdQ%3D%3D
p1074
aVhttps://nam.edu/member/?member_id=%2FOxX0QMEWBwMgdGJJGnWIA%3D%3D
p1075
aVhttps://nam.edu/member/?member_id=nsbY3y8gA9sNjGp7SPvUyQ%3D%3D
p1076
aVhttps://nam.edu/member/?member_id=nZCVvbuQvABMRoPbUhxMZw%3D%3D
p1077
aVhttps://nam.edu/member/?member_id=TxQ5ovvxkZaZRtq6QTExIg%3D%3D
p1078
aVhttps://nam.edu/member/?member_id=v2NHG7QnQYJ81tV6bt%2F6BA%3D%3D
p1079
aVhttps://nam.edu/member/?member_id=q66GzXM5%2BqUfPZAUWaCEzA%3D%3D
p1080
aVhttps://nam.edu/member/?member_id=rXfNAkRtYm6mc4hGmGfysA%3D%3D
p1081
aVhttps://nam.edu/member/?member_id=IwOfLlAPy24q9eYb10ICFA%3D%3D
p1082
aVhttps://nam.edu/member/?member_id=49zJ0iSQUjNVxkIssqqtvQ%3D%3D
p1083
aVhttps://nam.edu/member/?member_id=6pD6s5Ogd%2BzE2YkvM%2F%2FNlQ%3D%3D
p1084
aVhttps://nam.edu/member/?member_id=RsvvgtOZEduXYoIysJAN8g%3D%3D
p1085
aVhttps://nam.edu/member/?member_id=VbJpdfwuYEcUaBbtZvGlZg%3D%3D
p1086
aVhttps://nam.edu/member/?member_id=m76gdiJVxH5qOPtAAfgiag%3D%3D
p1087
aVhttps://nam.edu/member/?member_id=wVynLQMuV5K4E9s%2FZ2N84g%3D%3D
p1088
aVhttps://nam.edu/member/?member_id=J02dRotBh9zJci2VvJY8%2FA%3D%3D
p1089
aVhttps://nam.edu/member/?member_id=cGSLgvEcFzRnRI9Jq9NSsA%3D%3D
p1090
aVhttps://nam.edu/member/?member_id=EcXCkN%2FQE44Y%2F2QCkq%2F3TQ%3D%3D
p1091
aVhttps://nam.edu/member/?member_id=XrfyMVSDChtNXOM1vFKQZA%3D%3D
p1092
aVhttps://nam.edu/member/?member_id=HK8E2X5SGpUlGJHsGRh01w%3D%3D
p1093
aVhttps://nam.edu/member/?member_id=of57OCAHmeTy7O7pei2kNQ%3D%3D
p1094
aVhttps://nam.edu/member/?member_id=XyvfS1TxONe93PsLW2fIaQ%3D%3D
p1095
aVhttps://nam.edu/member/?member_id=9odluto0jTl79QvqHp%2FvMg%3D%3D
p1096
aVhttps://nam.edu/member/?member_id=ldk5otIkFC6fre67lD8dCA%3D%3D
p1097
aVhttps://nam.edu/member/?member_id=ZUzwlt09l79HI%2FpRN3Ga8g%3D%3D
p1098
aVhttps://nam.edu/member/?member_id=%2BLHOYPxznMYCujgzCExHqA%3D%3D
p1099
aVhttps://nam.edu/member/?member_id=eb3BHnXxPzUgoVWVV92KNA%3D%3D
p1100
aVhttps://nam.edu/member/?member_id=AOAqCfy2KQCYp%2BCvcZAmBw%3D%3D
p1101
aVhttps://nam.edu/member/?member_id=wjqthII45POQlCTP6TvUPg%3D%3D
p1102
aVhttps://nam.edu/member/?member_id=kPH6HTtqTljwskrNHr8lJg%3D%3D
p1103
aVhttps://nam.edu/member/?member_id=7N7llGXv6sE0jZX0Sx906g%3D%3D
p1104
aVhttps://nam.edu/member/?member_id=Wc6Bklxbooo1%2FztYW5F4dQ%3D%3D
p1105
aVhttps://nam.edu/member/?member_id=KEaIsvRzYfHCzgQ5o4apLQ%3D%3D
p1106
aVhttps://nam.edu/member/?member_id=sbHqVNEuKr4BjyjbT%2BwY5w%3D%3D
p1107
aVhttps://nam.edu/member/?member_id=i%2FhQjDB%2BiwBeDWsv0v5Log%3D%3D
p1108
aVhttps://nam.edu/member/?member_id=EtG%2FPLghcg9NN74eJTB7Rg%3D%3D
p1109
aVhttps://nam.edu/member/?member_id=YKPq%2B0D2sY6542Oyrv6YiQ%3D%3D
p1110
aVhttps://nam.edu/member/?member_id=lv3wDCPJMpBV5IbbJC3UOw%3D%3D
p1111
aVhttps://nam.edu/member/?member_id=%2Bw%2Fx9TURXQ794%2FErPHAyBA%3D%3D
p1112
aVhttps://nam.edu/member/?member_id=3mhfPnP0ziisiPYvTyPRzA%3D%3D
p1113
aVhttps://nam.edu/member/?member_id=FJubK%2BO%2FnBq5dZzVjdh3wQ%3D%3D
p1114
aVhttps://nam.edu/member/?member_id=GLRCav08VIHAdPpqJH3OQQ%3D%3D
p1115
aVhttps://nam.edu/member/?member_id=9ru5Ul5tHNFWbFO6OLerOg%3D%3D
p1116
aVhttps://nam.edu/member/?member_id=B%2Fv17MuyHYRR0O5cpnyiXw%3D%3D
p1117
aVhttps://nam.edu/member/?member_id=FyAvy9mbueRHMfkwaBrvJw%3D%3D
p1118
aVhttps://nam.edu/member/?member_id=fpx4t1IgCAH5gxmuVyruxg%3D%3D
p1119
aVhttps://nam.edu/member/?member_id=WU4pgYY8kHTJYgRetIx%2FTA%3D%3D
p1120
aVhttps://nam.edu/member/?member_id=oAOhorXt5JV0Rmz9a%2B3How%3D%3D
p1121
aVhttps://nam.edu/member/?member_id=ENDj9T%2F0PMwk7RnDEXpjsA%3D%3D
p1122
aVhttps://nam.edu/member/?member_id=%2BZyuWmGvFsezrpMSvGwSHQ%3D%3D
p1123
aVhttps://nam.edu/member/?member_id=Oc%2BpzLJdNEiF5r2BHwZviA%3D%3D
p1124
aVhttps://nam.edu/member/?member_id=brnL9v9YnfVjgDt4%2F2I8LQ%3D%3D
p1125
aVhttps://nam.edu/member/?member_id=BErLdUUnRLhNi%2ByDUW6xxw%3D%3D
p1126
aVhttps://nam.edu/member/?member_id=B6g7U0opet3nuxfKRyabLg%3D%3D
p1127
aVhttps://nam.edu/member/?member_id=1MbDkclnH2eOEQ83zHVq1w%3D%3D
p1128
aVhttps://nam.edu/member/?member_id=BdzKCuH15soo%2FE6fS04tUA%3D%3D
p1129
aVhttps://nam.edu/member/?member_id=D4ZWLGXpx7M3LDs%2B0%2Fn04g%3D%3D
p1130
aVhttps://nam.edu/member/?member_id=RND3ed1%2F3vmj6DqefxR5Mg%3D%3D
p1131
aVhttps://nam.edu/member/?member_id=yaTTTDmEk0GNA%2B1BEShSAw%3D%3D
p1132
aVhttps://nam.edu/member/?member_id=4skk5cHha52jlhCii4DWLA%3D%3D
p1133
aVhttps://nam.edu/member/?member_id=Vx67nZvYYJMzeXTZt%2BYjmw%3D%3D
p1134
aVhttps://nam.edu/member/?member_id=AUpLVaZGXmDE%2BBe19sfL6g%3D%3D
p1135
aVhttps://nam.edu/member/?member_id=vN5CTyICJPI%2B0Urk6pFQ3A%3D%3D
p1136
aVhttps://nam.edu/member/?member_id=30ZoF73ReJOzzgk1zbiWoA%3D%3D
p1137
aVhttps://nam.edu/member/?member_id=UbjDILU%2Bv1Nv0EYeNdYdCQ%3D%3D
p1138
aVhttps://nam.edu/member/?member_id=KBAqHNw8ePr7Hj7UA%2BZnOA%3D%3D
p1139
aVhttps://nam.edu/member/?member_id=gDdzx%2BwON2G757mFk1xlyw%3D%3D
p1140
aVhttps://nam.edu/member/?member_id=OCUq3kMHx5s9pLuvnmhC%2FQ%3D%3D
p1141
aVhttps://nam.edu/member/?member_id=NI2pyM81BRe814NmLODEkg%3D%3D
p1142
aVhttps://nam.edu/member/?member_id=gVQ5YHXhW8%2BRk1ieTHbU%2BA%3D%3D
p1143
aVhttps://nam.edu/member/?member_id=aLoUc%2FRAs0C%2BshXy3CA1Rw%3D%3D
p1144
aVhttps://nam.edu/member/?member_id=aaWZfLHoks1DiYUM69h6tg%3D%3D
p1145
aVhttps://nam.edu/member/?member_id=pHXcYNP7KUDgqHPd07V03w%3D%3D
p1146
aVhttps://nam.edu/member/?member_id=sDeeqShvo6zrU4I3mzVgKw%3D%3D
p1147
aVhttps://nam.edu/member/?member_id=PoctKeH8z%2BH9FuVcYPSvBw%3D%3D
p1148
aVhttps://nam.edu/member/?member_id=m0OUjRQ6lN1L%2F3to3EC2jg%3D%3D
p1149
aVhttps://nam.edu/member/?member_id=VA3QKscNyDwXnnNd9wLaZA%3D%3D
p1150
aVhttps://nam.edu/member/?member_id=G7h7HzW4CkeE8IJpByTtbA%3D%3D
p1151
aVhttps://nam.edu/member/?member_id=cmqkXv%2FB1ErkO50e6rAvCA%3D%3D
p1152
aVhttps://nam.edu/member/?member_id=zjqspu%2BMxYgGo0Anwo8t1w%3D%3D
p1153
aVhttps://nam.edu/member/?member_id=pzwveG8Nwqoo8LuZ%2BDZSaQ%3D%3D
p1154
aVhttps://nam.edu/member/?member_id=Ws6Izz8TaBvZqE%2F9LljnOA%3D%3D
p1155
aVhttps://nam.edu/member/?member_id=iBmWLfTX1O5pjw1xMEPfAQ%3D%3D
p1156
aVhttps://nam.edu/member/?member_id=8GqOEZNHlaAemuzIU9HTqw%3D%3D
p1157
aVhttps://nam.edu/member/?member_id=IzTaIocv%2BdHk%2Bd1KkJ90wA%3D%3D
p1158
aVhttps://nam.edu/member/?member_id=Ye5eLbjIP2ahem0uOB%2FeKQ%3D%3D
p1159
aVhttps://nam.edu/member/?member_id=KlEt3zULmNde4Pykwc6q7A%3D%3D
p1160
aVhttps://nam.edu/member/?member_id=qldZHqu0UerV9xMQWrUFdQ%3D%3D
p1161
aVhttps://nam.edu/member/?member_id=YvQBmCgFql2SaV47w48agg%3D%3D
p1162
aVhttps://nam.edu/member/?member_id=Poy5c6DzY8WGutXGs9dhuw%3D%3D
p1163
aVhttps://nam.edu/member/?member_id=Dl%2BN1RIhrYFSEq%2FxScJcxA%3D%3D
p1164
aVhttps://nam.edu/member/?member_id=fR2RIs1bqbvvK4ppFipzOQ%3D%3D
p1165
aVhttps://nam.edu/member/?member_id=ScUcVw6hdMaKDlFQSenjxg%3D%3D
p1166
aVhttps://nam.edu/member/?member_id=oeaYiiexlWFtz5NcGEnWkA%3D%3D
p1167
aVhttps://nam.edu/member/?member_id=1CrcwjQK8FuDXxeG%2F02ohw%3D%3D
p1168
aVhttps://nam.edu/member/?member_id=iD3NI8WuRKdgKUbZh9Sx5g%3D%3D
p1169
aVhttps://nam.edu/member/?member_id=S8Fjh3pLpjPxXjOhLRRDTw%3D%3D
p1170
aVhttps://nam.edu/member/?member_id=I3zh0v%2FerBguF2rVXJYFBQ%3D%3D
p1171
aVhttps://nam.edu/member/?member_id=NHRHsnxbSAzUp74GiMIpEw%3D%3D
p1172
aVhttps://nam.edu/member/?member_id=umHy%2Fmcygolfi1bEOfzhGA%3D%3D
p1173
aVhttps://nam.edu/member/?member_id=gRg4r3RspkhWEkI8kwsX6A%3D%3D
p1174
aVhttps://nam.edu/member/?member_id=h2EvMjWbUU7EtvICNvGIVg%3D%3D
p1175
aVhttps://nam.edu/member/?member_id=S%2FjpPu6P4NzTir%2Bkyeu4qA%3D%3D
p1176
aVhttps://nam.edu/member/?member_id=7dyIw8AeqU%2FSmPm6LA2noQ%3D%3D
p1177
aVhttps://nam.edu/member/?member_id=D7e2KCNHJa23n9GAkyO0ew%3D%3D
p1178
aVhttps://nam.edu/member/?member_id=%2FHbNP9YlrChA%2BxEiaOQflQ%3D%3D
p1179
aVhttps://nam.edu/member/?member_id=2NH7qal7ZF88qZfaoNMoMg%3D%3D
p1180
aVhttps://nam.edu/member/?member_id=H2hL20Wbz8Pgf9IZESwFyg%3D%3D
p1181
aVhttps://nam.edu/member/?member_id=WKES68xoXt2yO5CkYjdhOQ%3D%3D
p1182
aVhttps://nam.edu/member/?member_id=HmIMilci3Sj5eX6uOA7TNQ%3D%3D
p1183
aVhttps://nam.edu/member/?member_id=nDiYZN%2BoPJlls7FTWwkBFQ%3D%3D
p1184
aVhttps://nam.edu/member/?member_id=T38UoQjI8nqvmuWf%2FCbCPQ%3D%3D
p1185
aVhttps://nam.edu/member/?member_id=VAoJcsmP%2Bi2sUv%2F1Euxb3Q%3D%3D
p1186
aVhttps://nam.edu/member/?member_id=zKTqPr46KOwfUWBk1UJrCg%3D%3D
p1187
aVhttps://nam.edu/member/?member_id=3LGQCakY6MuCVG7cNFtMVw%3D%3D
p1188
aVhttps://nam.edu/member/?member_id=GdOa6DBwqlr%2Bo0MPMAAMBg%3D%3D
p1189
aVhttps://nam.edu/member/?member_id=vbk4TNM9Cu7Vx8mpd4EdzA%3D%3D
p1190
aVhttps://nam.edu/member/?member_id=XYcP%2FDTYe6fkWTwQ68bluw%3D%3D
p1191
aVhttps://nam.edu/member/?member_id=tk5Y5NgrzDBVpxY7GDJHpA%3D%3D
p1192
aVhttps://nam.edu/member/?member_id=Qdp%2FOdrwg7JSKSqNVIYJXg%3D%3D
p1193
aVhttps://nam.edu/member/?member_id=YKNV5R%2FgAo94CumYlMG3ag%3D%3D
p1194
aVhttps://nam.edu/member/?member_id=fN8rcAdCKDaSPKLyESjIKA%3D%3D
p1195
aVhttps://nam.edu/member/?member_id=%2FHZ2Jbdd%2BEG8CzUMVSq7rg%3D%3D
p1196
aVhttps://nam.edu/member/?member_id=w2QicCx%2BQLU%2B9R6D7vS46A%3D%3D
p1197
aVhttps://nam.edu/member/?member_id=hZbVbRghTlBQ39qcrbPW2A%3D%3D
p1198
aVhttps://nam.edu/member/?member_id=0cfGmEfP%2FMZ1iNSL95q7jg%3D%3D
p1199
aVhttps://nam.edu/member/?member_id=l16Vm%2FCRklWTR64kY%2Fm69Q%3D%3D
p1200
aVhttps://nam.edu/member/?member_id=RDpzGYmvA30P8Bk8X0bgtQ%3D%3D
p1201
aVhttps://nam.edu/member/?member_id=vv3GngU%2FKXEmmzSWJ9X%2BJw%3D%3D
p1202
aVhttps://nam.edu/member/?member_id=eyrNOy7Pa%2Be1EniS62iU2g%3D%3D
p1203
aVhttps://nam.edu/member/?member_id=gXpcCq30gf6t3fydOllDXQ%3D%3D
p1204
aVhttps://nam.edu/member/?member_id=BUAXYrnSwtlcb20HFP39og%3D%3D
p1205
aVhttps://nam.edu/member/?member_id=6gaAtP1nrDxBo%2Bt5NbWEPg%3D%3D
p1206
aVhttps://nam.edu/member/?member_id=0aBNfu25I20YlQSgmEP1xA%3D%3D
p1207
aVhttps://nam.edu/member/?member_id=%2FoWERJI1TFTMQFCe2mHidQ%3D%3D
p1208
aVhttps://nam.edu/member/?member_id=v6kU40%2Fv%2FLfp1pNdr6NbTw%3D%3D
p1209
aVhttps://nam.edu/member/?member_id=varC5vfxclV0T0MXA%2BpqPw%3D%3D
p1210
aVhttps://nam.edu/member/?member_id=dBtto03aHDVDBGTLiHlw0A%3D%3D
p1211
aVhttps://nam.edu/member/?member_id=YNWikzfyAcbQlUoI1GKYYw%3D%3D
p1212
aVhttps://nam.edu/member/?member_id=Ze7tMKFUdBLfUqjruqQOxg%3D%3D
p1213
aVhttps://nam.edu/member/?member_id=AlJPHoWL5yndoopioHOd7g%3D%3D
p1214
aVhttps://nam.edu/member/?member_id=cwEW1hYtnSozbx7Uq%2FJCew%3D%3D
p1215
aVhttps://nam.edu/member/?member_id=wQvXQWR21ncdItoVBIl9Qg%3D%3D
p1216
aVhttps://nam.edu/member/?member_id=S5Y99hY50rKrmlkY2gl5Ow%3D%3D
p1217
aVhttps://nam.edu/member/?member_id=tE9%2BCtz3B0%2BKynvu1b3vSg%3D%3D
p1218
aVhttps://nam.edu/member/?member_id=cj1DdGyajoUZAAVE8L1f8w%3D%3D
p1219
aVhttps://nam.edu/member/?member_id=yRJhejHHg1YUWFL4H7OhnA%3D%3D
p1220
aVhttps://nam.edu/member/?member_id=SzwW47FTIU4xLot007oq1w%3D%3D
p1221
aVhttps://nam.edu/member/?member_id=usy9yTVjkWeYdTY4boq5LQ%3D%3D
p1222
aVhttps://nam.edu/member/?member_id=Prex7j4wrkvGAnprz1rqrw%3D%3D
p1223
aVhttps://nam.edu/member/?member_id=4Fg8Qi1mkH7ZDIQGJMCheQ%3D%3D
p1224
aVhttps://nam.edu/member/?member_id=6j%2Bq46HGltW1%2F3mxXb%2BNvQ%3D%3D
p1225
aVhttps://nam.edu/member/?member_id=1Hnf%2BiYalN0FL%2Fp%2Bcx8aWg%3D%3D
p1226
aVhttps://nam.edu/member/?member_id=M%2BJtz3rR7WQdJsDOLRrfuA%3D%3D
p1227
aVhttps://nam.edu/member/?member_id=x1FgLmuHaqwhrbRZa4IsWQ%3D%3D
p1228
aVhttps://nam.edu/member/?member_id=O5E7lBvnJQCwFj%2Fq90d5SA%3D%3D
p1229
aVhttps://nam.edu/member/?member_id=pWvnkSCmROjd7PR9Jdk6XQ%3D%3D
p1230
aVhttps://nam.edu/member/?member_id=UMCKEQ1Nph5%2F5IwGPpnjvg%3D%3D
p1231
aVhttps://nam.edu/member/?member_id=8%2BkrfZCvx%2FxdR9b%2BV3o%2B1w%3D%3D
p1232
aVhttps://nam.edu/member/?member_id=QNno0sAmKOS0F5rOMTJvDw%3D%3D
p1233
aVhttps://nam.edu/member/?member_id=HMBi9fLw7oanz4Gd6oCM6A%3D%3D
p1234
aVhttps://nam.edu/member/?member_id=ggXpG19kF2e0VvoB%2FqRiUQ%3D%3D
p1235
aVhttps://nam.edu/member/?member_id=oDWvvrmSv4Oax69GcEiLOQ%3D%3D
p1236
aVhttps://nam.edu/member/?member_id=AnQs5wDyp60KwJuqoXyBKA%3D%3D
p1237
aVhttps://nam.edu/member/?member_id=%2BNNYPs0vI6Xsm7zQOCyEew%3D%3D
p1238
aVhttps://nam.edu/member/?member_id=kclp5Py%2Ba%2FM6OZkroSI8Bw%3D%3D
p1239
aVhttps://nam.edu/member/?member_id=EgJZPToN6t24OjgAyj8d2g%3D%3D
p1240
aVhttps://nam.edu/member/?member_id=rax5QqVv8jamAO2Ab%2B%2FDkA%3D%3D
p1241
aVhttps://nam.edu/member/?member_id=bXu7Fxqwusrrn2GrvSb6OQ%3D%3D
p1242
aVhttps://nam.edu/member/?member_id=nKktcnDizmZ%2FPJzBEnexUA%3D%3D
p1243
aVhttps://nam.edu/member/?member_id=1Fh%2FJix4UKwXVMHS7Bh0cw%3D%3D
p1244
aVhttps://nam.edu/member/?member_id=Q3uS1ZyqBZ9dWqYd9EI0Dg%3D%3D
p1245
aVhttps://nam.edu/member/?member_id=S%2F%2F8fxs9WDuK4WJ8opgZtw%3D%3D
p1246
aVhttps://nam.edu/member/?member_id=3M7zmoBVFNiqH%2BHG7cVY%2FA%3D%3D
p1247
aVhttps://nam.edu/member/?member_id=%2BQc%2BUR92vWAew1Ja1pZPiQ%3D%3D
p1248
aVhttps://nam.edu/member/?member_id=kJiGtZwVFVLu4XAwRm%2Fw9w%3D%3D
p1249
aVhttps://nam.edu/member/?member_id=Jo3ZyixXtBXOVN%2Fp80Vpog%3D%3D
p1250
aVhttps://nam.edu/member/?member_id=i114dK9jWUID9Q7OY8YVug%3D%3D
p1251
aVhttps://nam.edu/member/?member_id=70%2F2eCuYP1qmdOVQEanMMg%3D%3D
p1252
aVhttps://nam.edu/member/?member_id=cJGFn5Yv1PPD%2BW9ogLkn6A%3D%3D
p1253
aVhttps://nam.edu/member/?member_id=i%2FcrJQgZtG1nN05CfZZEyQ%3D%3D
p1254
aVhttps://nam.edu/member/?member_id=ldBhRXfJtk%2BRvaIk6%2FDigw%3D%3D
p1255
aVhttps://nam.edu/member/?member_id=v6cyD8C2MDGhWzA6bEtIww%3D%3D
p1256
aVhttps://nam.edu/member/?member_id=0BC87jvPLgYc31j80hEjjw%3D%3D
p1257
aVhttps://nam.edu/member/?member_id=SeAf66GCpWpXyr0BAWmIQQ%3D%3D
p1258
aVhttps://nam.edu/member/?member_id=nJSweh%2B8VLGMQQ7rVDl88Q%3D%3D
p1259
aVhttps://nam.edu/member/?member_id=8y4bmkdvQZEidMpgx6O3AA%3D%3D
p1260
aVhttps://nam.edu/member/?member_id=4kLe%2BWMebf6IomQ3C4CIkw%3D%3D
p1261
aVhttps://nam.edu/member/?member_id=aohozh7iuI1QHWYRKX2cuQ%3D%3D
p1262
aVhttps://nam.edu/member/?member_id=xY4r1ogxZOZYRqOc9Rc1Tg%3D%3D
p1263
aVhttps://nam.edu/member/?member_id=1lpmG7Cr%2F78YzcXeCClqMg%3D%3D
p1264
aVhttps://nam.edu/member/?member_id=L4suUN562MJRLXaOa41DVA%3D%3D
p1265
aVhttps://nam.edu/member/?member_id=GT93uxleTYnSDtUsCMR5gA%3D%3D
p1266
aVhttps://nam.edu/member/?member_id=wbdJc3DatpEwUZZClkIizA%3D%3D
p1267
aVhttps://nam.edu/member/?member_id=EnM5gJQ0Bg7FGYcGIoObsQ%3D%3D
p1268
aVhttps://nam.edu/member/?member_id=KXn6dZKr%2BjydFW3%2BJNyuZA%3D%3D
p1269
aVhttps://nam.edu/member/?member_id=Uq%2B7Szf0VmD1DYLqbo8oqw%3D%3D
p1270
aVhttps://nam.edu/member/?member_id=XWxEyO2c8aKCG8bqYHquDg%3D%3D
p1271
aVhttps://nam.edu/member/?member_id=Us8NYUPzx1uSGXWJajYkHQ%3D%3D
p1272
aVhttps://nam.edu/member/?member_id=F4q0%2BW%2F4LBUmj9puNT9j%2BQ%3D%3D
p1273
aVhttps://nam.edu/member/?member_id=Dni%2F9EGU8lZIpMvp35uG7g%3D%3D
p1274
aVhttps://nam.edu/member/?member_id=sQv7ytrgu%2BYQDX%2BzGHIyaA%3D%3D
p1275
aVhttps://nam.edu/member/?member_id=Bp9wIzdFmdOEy8KR4EeZsA%3D%3D
p1276
aVhttps://nam.edu/member/?member_id=pHKCz%2FqMzSE1k%2F9GoLS04Q%3D%3D
p1277
aVhttps://nam.edu/member/?member_id=V3XDIEtkCL6CrTu4FIWAcw%3D%3D
p1278
aVhttps://nam.edu/member/?member_id=n5ttuC5kb%2F3U3buM90zXbg%3D%3D
p1279
aVhttps://nam.edu/member/?member_id=h54HUoFT%2FYVznZ%2BwwkNFCQ%3D%3D
p1280
aVhttps://nam.edu/member/?member_id=k07zVJB9fQL7VGdAdqhTxA%3D%3D
p1281
aVhttps://nam.edu/member/?member_id=UXMgbPk6zGVQLycSj1LEPA%3D%3D
p1282
aVhttps://nam.edu/member/?member_id=Ue2hjyd9O%2Bpt%2Feu7WEEUWw%3D%3D
p1283
aVhttps://nam.edu/member/?member_id=iAWPrqcb3kJdDX7iCogeMg%3D%3D
p1284
aVhttps://nam.edu/member/?member_id=%2FkGQNvcEvMF5iT5LbgOKeA%3D%3D
p1285
aVhttps://nam.edu/member/?member_id=WogycA4I573ESVnt4KNNaQ%3D%3D
p1286
aVhttps://nam.edu/member/?member_id=e8FQIbS85S4wc5Zragiawg%3D%3D
p1287
aVhttps://nam.edu/member/?member_id=2zgZIja%2Flel8M2BcGq9%2FTQ%3D%3D
p1288
aVhttps://nam.edu/member/?member_id=ihh7X6%2BMEz0lECsGQnRgDA%3D%3D
p1289
aVhttps://nam.edu/member/?member_id=JD9ZEawGObsUhpRZCkgKLA%3D%3D
p1290
aVhttps://nam.edu/member/?member_id=DrT9nuJDGZvoU6h73KCWmg%3D%3D
p1291
aVhttps://nam.edu/member/?member_id=2JsMhTdT3kW4T6pr1ns97Q%3D%3D
p1292
aVhttps://nam.edu/member/?member_id=UQdUIWTIAZx5%2BJLOynsUZA%3D%3D
p1293
aVhttps://nam.edu/member/?member_id=nfgT6Shm6wYkKziqiwdJCw%3D%3D
p1294
aVhttps://nam.edu/member/?member_id=slwdkw0JNXrZlOctZYa%2BWQ%3D%3D
p1295
aVhttps://nam.edu/member/?member_id=enN9IEbZRyH2yRy2w8%2B%2BYA%3D%3D
p1296
aVhttps://nam.edu/member/?member_id=OMkWYMhQmtbl2jUQRskxJA%3D%3D
p1297
aVhttps://nam.edu/member/?member_id=iekD5RWQUJXStGbEuNQ4rA%3D%3D
p1298
aVhttps://nam.edu/member/?member_id=R3qzyjCEj9s3ZEfW184Xpg%3D%3D
p1299
aVhttps://nam.edu/member/?member_id=D38yFL9VD%2BD%2BB%2B%2BO%2BJNdgQ%3D%3D
p1300
aVhttps://nam.edu/member/?member_id=cnw%2F%2F3N1eIgEX%2FytG3%2F95g%3D%3D
p1301
aVhttps://nam.edu/member/?member_id=bynRU6hn3SfjQYIWrnztHQ%3D%3D
p1302
aVhttps://nam.edu/member/?member_id=ySRtikxk8%2Bvsid%2F8BJVBcg%3D%3D
p1303
aVhttps://nam.edu/member/?member_id=vweJOU0iSJpvD5%2BEKZj%2FnQ%3D%3D
p1304
aVhttps://nam.edu/member/?member_id=rJZxvv%2FUSgeR822kxNE3Rg%3D%3D
p1305
aVhttps://nam.edu/member/?member_id=qYGlr%2Bf9fsTDm9gotJywtQ%3D%3D
p1306
aVhttps://nam.edu/member/?member_id=y%2FVpfKWTDcZV05wMcnQ%2FBw%3D%3D
p1307
aVhttps://nam.edu/member/?member_id=edKVECBydQXLRiM98W5hJA%3D%3D
p1308
aVhttps://nam.edu/member/?member_id=Jgokq0SQ6Ie%2BqJImO8SYQA%3D%3D
p1309
aVhttps://nam.edu/member/?member_id=XIsgEJW1jj73k48p%2FTFJ8g%3D%3D
p1310
aVhttps://nam.edu/member/?member_id=dmzZ1HeWFXBDIHiyCTihPQ%3D%3D
p1311
aVhttps://nam.edu/member/?member_id=FiGtmFAk5vAPfGDH00lh4g%3D%3D
p1312
aVhttps://nam.edu/member/?member_id=Jtt5nbYM9z1ybPPLUrybbQ%3D%3D
p1313
aVhttps://nam.edu/member/?member_id=VjGpfaY1UK1tnfhMpYVaRQ%3D%3D
p1314
aVhttps://nam.edu/member/?member_id=aO9uO8imJU4w%2Bsr4EtgWVg%3D%3D
p1315
aVhttps://nam.edu/member/?member_id=8U%2F7VsXfUtbX2Fin%2BRCoAg%3D%3D
p1316
aVhttps://nam.edu/member/?member_id=HvMV%2Ba9pOfIjZSDG%2FZLPgg%3D%3D
p1317
aVhttps://nam.edu/member/?member_id=aXut%2BrqIjKBfh3S2maP0Xg%3D%3D
p1318
aVhttps://nam.edu/member/?member_id=4B364GkQgDexoXgCwIWpUg%3D%3D
p1319
aVhttps://nam.edu/member/?member_id=34gxAwCV5q57%2F41JNHW7gA%3D%3D
p1320
aVhttps://nam.edu/member/?member_id=bnQOpy%2B3GZYTKnnfEPvjjQ%3D%3D
p1321
aVhttps://nam.edu/member/?member_id=rPe%2B%2F4YeEDNEf78%2F6Lu%2BwA%3D%3D
p1322
aVhttps://nam.edu/member/?member_id=IZOJMk9tFgT8tCJiVBeJcQ%3D%3D
p1323
aVhttps://nam.edu/member/?member_id=chrP7g5GgwXx6PbdHBDkdQ%3D%3D
p1324
aVhttps://nam.edu/member/?member_id=CycVfpG2vnZ2dPj0FdDbYw%3D%3D
p1325
aVhttps://nam.edu/member/?member_id=iEPPs%2FWykTZ0wiogkl8PVw%3D%3D
p1326
aVhttps://nam.edu/member/?member_id=Gsht49Ux9rlsdmVkmNy9vw%3D%3D
p1327
aVhttps://nam.edu/member/?member_id=tP%2Ftj4nYowGJADRDa%2F6hFg%3D%3D
p1328
aVhttps://nam.edu/member/?member_id=7fcaNt%2B0O4SeICK7ulWFGA%3D%3D
p1329
aVhttps://nam.edu/member/?member_id=dCggTp11rJ5cCuZTqQbSTg%3D%3D
p1330
aVhttps://nam.edu/member/?member_id=%2BnpXN0ZVoksn5RYRGvrQvg%3D%3D
p1331
aVhttps://nam.edu/member/?member_id=BfjK5FrKsnffrHloH01Ogg%3D%3D
p1332
aVhttps://nam.edu/member/?member_id=kF8N7pfxG0Sc7oeefcDNog%3D%3D
p1333
aVhttps://nam.edu/member/?member_id=VN6IDTuRr1hFHiMOn6ShAg%3D%3D
p1334
aVhttps://nam.edu/member/?member_id=pItgTUW%2FsKLdqpwPLVQELQ%3D%3D
p1335
aVhttps://nam.edu/member/?member_id=6KpjGBFzZm3v30J6QzT2Bg%3D%3D
p1336
aVhttps://nam.edu/member/?member_id=7Ga3gL54doOUN436iHJPcg%3D%3D
p1337
aVhttps://nam.edu/member/?member_id=7G%2FI%2BzLddpc9CRxmi%2B2cXQ%3D%3D
p1338
aVhttps://nam.edu/member/?member_id=TLRBmlBgHA8PJY8IgBdFaw%3D%3D
p1339
aVhttps://nam.edu/member/?member_id=jIbHNc0kpAQ%2Fsj8TCZwiyw%3D%3D
p1340
aVhttps://nam.edu/member/?member_id=4KnEDL7O13ahAWGWs1mlVA%3D%3D
p1341
aVhttps://nam.edu/member/?member_id=vQRjfkk0u8ViFro%2B512pKQ%3D%3D
p1342
aVhttps://nam.edu/member/?member_id=OcBs9gJ0PutV%2B9uQttFpxA%3D%3D
p1343
aVhttps://nam.edu/member/?member_id=ZNiKyCnO2%2FXLxj6Pwpogsw%3D%3D
p1344
aVhttps://nam.edu/member/?member_id=FcGzo1FoBAdh99wqC%2FNtiw%3D%3D
p1345
aVhttps://nam.edu/member/?member_id=pwbb5rsnLn9VxBx8KEtf5g%3D%3D
p1346
aVhttps://nam.edu/member/?member_id=WvKd50CjkAWJJJbek0PhOQ%3D%3D
p1347
aVhttps://nam.edu/member/?member_id=8cm58RZyByq7PGMKc8SjKA%3D%3D
p1348
aVhttps://nam.edu/member/?member_id=8kG7KP5%2BaGwI9q%2FmJTSZqg%3D%3D
p1349
aVhttps://nam.edu/member/?member_id=z2F%2B5JKuzthxumZ5NQrEUA%3D%3D
p1350
aVhttps://nam.edu/member/?member_id=at30I%2FD%2Fh0pro4BhqlYQ5Q%3D%3D
p1351
aVhttps://nam.edu/member/?member_id=K8o%2BWZMAbB9Kj%2FvrOre%2B9Q%3D%3D
p1352
aVhttps://nam.edu/member/?member_id=PUjeNE92h6oHCEc3FFa2sQ%3D%3D
p1353
aVhttps://nam.edu/member/?member_id=8xFIxTYTcR7Vo%2FgkgyNa0Q%3D%3D
p1354
aVhttps://nam.edu/member/?member_id=rET5wmgG2b6b5RVRAZI4Qg%3D%3D
p1355
aVhttps://nam.edu/member/?member_id=PmM7cw2%2B6pPeGM3uEHbN%2BQ%3D%3D
p1356
aVhttps://nam.edu/member/?member_id=5dFlq%2B51UVb1SxqzQaWLGw%3D%3D
p1357
aVhttps://nam.edu/member/?member_id=p%2B5JzUanY31puP7Vh1qcVg%3D%3D
p1358
aVhttps://nam.edu/member/?member_id=3XBRhVrST1dFhWQVClxR%2FA%3D%3D
p1359
aVhttps://nam.edu/member/?member_id=0sswbRchYAPsSIHrirKwQQ%3D%3D
p1360
aVhttps://nam.edu/member/?member_id=YYJeZA9y8zmzCohzLjJ55g%3D%3D
p1361
aVhttps://nam.edu/member/?member_id=rvEAfSapavrbIakE1kurrA%3D%3D
p1362
aVhttps://nam.edu/member/?member_id=Q%2FNUVJ%2FKffNwFplZ2ro%2BqA%3D%3D
p1363
aVhttps://nam.edu/member/?member_id=aKmLPCE0bgXzJmfFfsTHsw%3D%3D
p1364
aVhttps://nam.edu/member/?member_id=u73k%2FzpBOZm3%2Fkx7HVuzyQ%3D%3D
p1365
aVhttps://nam.edu/member/?member_id=L9ukI0BhbdA68MAwzC04dA%3D%3D
p1366
aVhttps://nam.edu/member/?member_id=%2BGgv4mcSS%2BvgOyvHrDelZQ%3D%3D
p1367
aVhttps://nam.edu/member/?member_id=r35d1FUREvGjt%2Fe%2B54b%2FhQ%3D%3D
p1368
aVhttps://nam.edu/member/?member_id=MKJi4By1Dih%2FPq2bPf%2BxuA%3D%3D
p1369
aVhttps://nam.edu/member/?member_id=Yg0BLqaJ%2BcML1g6k%2B2%2F1Nw%3D%3D
p1370
aVhttps://nam.edu/member/?member_id=Cs3tiiGxBiRroVmhMGR%2Bnw%3D%3D
p1371
aVhttps://nam.edu/member/?member_id=7ZJXjxiVLirs4fljI5oYKA%3D%3D
p1372
aVhttps://nam.edu/member/?member_id=Wq%2FcE%2Ft%2FMuOKrAu%2BsN0kfQ%3D%3D
p1373
aVhttps://nam.edu/member/?member_id=4p7T%2FZ3Uqc6EDyLnV3S7SA%3D%3D
p1374
aVhttps://nam.edu/member/?member_id=Qa07w8eF%2FmMV1ETTitGUTQ%3D%3D
p1375
aVhttps://nam.edu/member/?member_id=H7qGqOKwhyMP4IqT4o8BIg%3D%3D
p1376
aVhttps://nam.edu/member/?member_id=pUuCRRY4APeRtUvEAIwJTg%3D%3D
p1377
aVhttps://nam.edu/member/?member_id=EFhdxpz4mY4XBxWzYwZurw%3D%3D
p1378
aVhttps://nam.edu/member/?member_id=AOinwWwMvOhS9PeXqWp3oQ%3D%3D
p1379
aVhttps://nam.edu/member/?member_id=hrnQ6Xk6xO2IfxxDs2afhg%3D%3D
p1380
aVhttps://nam.edu/member/?member_id=8RL7KDNyKZxxoeyjwGTdEA%3D%3D
p1381
aVhttps://nam.edu/member/?member_id=f%2Fp607K2lSUs2tMXOhhImA%3D%3D
p1382
aVhttps://nam.edu/member/?member_id=GKQ5%2F5XwtBL%2FWgXY%2FRDq1Q%3D%3D
p1383
aVhttps://nam.edu/member/?member_id=SG%2BFFPHxWgH%2Bd3nV6NcHXg%3D%3D
p1384
aVhttps://nam.edu/member/?member_id=lBda%2BvatcGr8VHjwgGr5Bg%3D%3D
p1385
aVhttps://nam.edu/member/?member_id=nqIYKGs3v6pumAKWVXwTIA%3D%3D
p1386
aVhttps://nam.edu/member/?member_id=X%2FGUKVZzwfSNu0JZ2oOgYA%3D%3D
p1387
aVhttps://nam.edu/member/?member_id=HmhO1XJvLgH5uS4IZDacpg%3D%3D
p1388
aVhttps://nam.edu/member/?member_id=NnR%2Bqoci5MHSkHY2zLPBSw%3D%3D
p1389
aVhttps://nam.edu/member/?member_id=l8Yk6IjXfrp%2FhLhrrNvtuA%3D%3D
p1390
aVhttps://nam.edu/member/?member_id=5z5IpIoj8ZgG7O4KQDD1ow%3D%3D
p1391
aVhttps://nam.edu/member/?member_id=njTtDiBXB2eoiw8YGv8ZuA%3D%3D
p1392
aVhttps://nam.edu/member/?member_id=dmFyCh4d36X2gOqn6n9nJQ%3D%3D
p1393
aVhttps://nam.edu/member/?member_id=zWEKj5FhqABTW9mzAEf%2BjA%3D%3D
p1394
aVhttps://nam.edu/member/?member_id=QvJdqZ3qytiSLfZdNFmlng%3D%3D
p1395
aVhttps://nam.edu/member/?member_id=RIJ4PzANlwQtbrkn8FKKnA%3D%3D
p1396
aVhttps://nam.edu/member/?member_id=3uqG7Pe2lFfxRa31WuZLjA%3D%3D
p1397
aVhttps://nam.edu/member/?member_id=b%2Fq%2BrZJX5uwGdzYcq6RKcA%3D%3D
p1398
aVhttps://nam.edu/member/?member_id=kMp3FACk1zxJS%2FaEkfzBIQ%3D%3D
p1399
aVhttps://nam.edu/member/?member_id=J%2BTTC8Vf%2FzV91BojQToICw%3D%3D
p1400
aVhttps://nam.edu/member/?member_id=OsVbjG4%2B5jj8SO0tfbiT%2FA%3D%3D
p1401
aVhttps://nam.edu/member/?member_id=OVLjWDY%2FQhV2gbG4wzlc9g%3D%3D
p1402
aVhttps://nam.edu/member/?member_id=R4ilQvgmBL76QZM8AN5T9g%3D%3D
p1403
aVhttps://nam.edu/member/?member_id=qb2nXmTX%2FufChUgGtnlTcw%3D%3D
p1404
aVhttps://nam.edu/member/?member_id=S9qkYFHt1FtFzsTNFdXqCQ%3D%3D
p1405
aVhttps://nam.edu/member/?member_id=E7IY%2BWpMIQuXHnHa2slXRQ%3D%3D
p1406
aVhttps://nam.edu/member/?member_id=ciKmfvanUfFpkMy6OWsXRg%3D%3D
p1407
aVhttps://nam.edu/member/?member_id=ExDZUGBnIdAMBi4lnmRPAw%3D%3D
p1408
aVhttps://nam.edu/member/?member_id=h4p3gMWhdCDQGdMB70xEmA%3D%3D
p1409
aVhttps://nam.edu/member/?member_id=xpIy%2Fxn476rgLljH%2B2mBXw%3D%3D
p1410
aVhttps://nam.edu/member/?member_id=Xm%2BEQTQOXDC7ccam37bPXQ%3D%3D
p1411
aVhttps://nam.edu/member/?member_id=atU%2F0d6uxWPf7fX1Mf9khw%3D%3D
p1412
aVhttps://nam.edu/member/?member_id=jQSLhinSmFDoFeLbNCtXWQ%3D%3D
p1413
aVhttps://nam.edu/member/?member_id=kzj2YxRbHbXSrSbdD5K%2FbQ%3D%3D
p1414
aVhttps://nam.edu/member/?member_id=JqH3oR5Zyi1SvLRIae8cOA%3D%3D
p1415
aVhttps://nam.edu/member/?member_id=lzg6k3TsOuWWfVpynKzjUQ%3D%3D
p1416
aVhttps://nam.edu/member/?member_id=PwrsGfgb62HM%2BUh%2BlosdrQ%3D%3D
p1417
aVhttps://nam.edu/member/?member_id=f2aGXsJyl7WpyCfiHxaerQ%3D%3D
p1418
aVhttps://nam.edu/member/?member_id=J1TijDkDldB4%2FaENZNEsuQ%3D%3D
p1419
aVhttps://nam.edu/member/?member_id=Lncnqr5cc83vx6ymHQcpGA%3D%3D
p1420
aVhttps://nam.edu/member/?member_id=jeuiiI43T225uPQ2TsyVGg%3D%3D
p1421
aVhttps://nam.edu/member/?member_id=sg3Am3%2FH6GNu8Qs7jsaj7A%3D%3D
p1422
aVhttps://nam.edu/member/?member_id=FludIZBJNkPZMaZrz84Klg%3D%3D
p1423
aVhttps://nam.edu/member/?member_id=wqoUtsCNl9wuXEr0ESSwlw%3D%3D
p1424
aVhttps://nam.edu/member/?member_id=KKnGVCU%2F2FqKv%2F6Xq8Sl2A%3D%3D
p1425
aVhttps://nam.edu/member/?member_id=6uXZrEvn6op2QsmxGl24%2Fg%3D%3D
p1426
aVhttps://nam.edu/member/?member_id=GpPGPvJCljuLNYtunznKAg%3D%3D
p1427
aVhttps://nam.edu/member/?member_id=c1xlzgPzauiSRoweCIUQ%2FA%3D%3D
p1428
aVhttps://nam.edu/member/?member_id=hBBhpXInOY6bS0I0oKXveg%3D%3D
p1429
aVhttps://nam.edu/member/?member_id=ENYCYJUBLyT%2By5OCwFKDMg%3D%3D
p1430
aVhttps://nam.edu/member/?member_id=c06BfxMvLwwU40Lsv6MjBQ%3D%3D
p1431
aVhttps://nam.edu/member/?member_id=lDX3SvRd7CV5oluFeKerIA%3D%3D
p1432
aVhttps://nam.edu/member/?member_id=aZKS8dC80gXlWFr2DfKb1Q%3D%3D
p1433
aVhttps://nam.edu/member/?member_id=OdsKjKg6FsrqqpAmtDdNrA%3D%3D
p1434
aVhttps://nam.edu/member/?member_id=r%2BicATGbNOp4BAwrFXcmWg%3D%3D
p1435
aVhttps://nam.edu/member/?member_id=EEjbNeRrf%2FVdv7%2FmMFTTlw%3D%3D
p1436
aVhttps://nam.edu/member/?member_id=B1vlEiBQC7JkTjDjuAUKXw%3D%3D
p1437
aVhttps://nam.edu/member/?member_id=kHCTNyAPh6Oc8YR9QufJaw%3D%3D
p1438
aVhttps://nam.edu/member/?member_id=G7wpvjrbdXgiEE4HQr1JfQ%3D%3D
p1439
aVhttps://nam.edu/member/?member_id=0t104Sev4%2Bv7S9muWpq5dA%3D%3D
p1440
aVhttps://nam.edu/member/?member_id=TWoErPWyWLPmFHmiGbi%2Big%3D%3D
p1441
aVhttps://nam.edu/member/?member_id=1FgzwBI2hjp%2FFYLibxTB7Q%3D%3D
p1442
aVhttps://nam.edu/member/?member_id=VM%2BSsQyDK3JSf%2BiFvHUAvQ%3D%3D
p1443
aVhttps://nam.edu/member/?member_id=u7dpbNUjClu50M4cfPC5Cg%3D%3D
p1444
aVhttps://nam.edu/member/?member_id=utMWd5QdQaYSJpQBicE5mw%3D%3D
p1445
aVhttps://nam.edu/member/?member_id=r2yh99MmHesjgPNXzcJyuQ%3D%3D
p1446
aVhttps://nam.edu/member/?member_id=AKQLEBfKViuZxty9sTuWAA%3D%3D
p1447
aVhttps://nam.edu/member/?member_id=Vx3A3zI%2FxcVIY3N4k%2FtY3Q%3D%3D
p1448
aVhttps://nam.edu/member/?member_id=xs4ZohN%2BW0xzsJna7o804g%3D%3D
p1449
aVhttps://nam.edu/member/?member_id=cb2l33ZnVaimgLAPPHAVDg%3D%3D
p1450
aVhttps://nam.edu/member/?member_id=FNDGhfCMJADsyaWZD3vknw%3D%3D
p1451
aVhttps://nam.edu/member/?member_id=XH4PVHlWHlFS3bkK5EBvaQ%3D%3D
p1452
aVhttps://nam.edu/member/?member_id=Scxkd%2B8eLU3BX5fZ4mCHGA%3D%3D
p1453
aVhttps://nam.edu/member/?member_id=y4312lbnpnVUOLWaFaon%2Fg%3D%3D
p1454
aVhttps://nam.edu/member/?member_id=ytmGV7O7aamEqIoMxabBmw%3D%3D
p1455
aVhttps://nam.edu/member/?member_id=8Vpgq%2BhjoEFofIqgaT4tmw%3D%3D
p1456
aVhttps://nam.edu/member/?member_id=PsTO%2BnN0f0XLkqI0AHurvQ%3D%3D
p1457
aVhttps://nam.edu/member/?member_id=1gMcCKXD%2FmRopOTDiHubaQ%3D%3D
p1458
aVhttps://nam.edu/member/?member_id=QC1z7WN%2BmFnIA%2BC%2FiM%2BxiA%3D%3D
p1459
aVhttps://nam.edu/member/?member_id=tYM87Z1r%2BLkGnHKfLPLqRQ%3D%3D
p1460
aVhttps://nam.edu/member/?member_id=ipd%2B%2F3R3IsUeMzK4YMr%2FJg%3D%3D
p1461
aVhttps://nam.edu/member/?member_id=%2FarHjcilxpMlkd2OQONbHQ%3D%3D
p1462
aVhttps://nam.edu/member/?member_id=oQq%2FQ87B0mv%2BLJUo3Vf2HA%3D%3D
p1463
aVhttps://nam.edu/member/?member_id=be0OrTTBpSBbHD5xW0PIKA%3D%3D
p1464
aVhttps://nam.edu/member/?member_id=xrZ4yVSLQlDxgk7xOuUhHg%3D%3D
p1465
aVhttps://nam.edu/member/?member_id=qFufPh0A0bh5xt0VIJx5%2Bg%3D%3D
p1466
aVhttps://nam.edu/member/?member_id=%2Bs4LGpPSALufH9HJ0Pg35A%3D%3D
p1467
aVhttps://nam.edu/member/?member_id=ueKhKaqVfh4SK88HVnLuPg%3D%3D
p1468
aVhttps://nam.edu/member/?member_id=v9xK0Eq%2FGXeWRAEb6ACk3Q%3D%3D
p1469
aVhttps://nam.edu/member/?member_id=hv8s%2FrFKYccenmBIoPFJhg%3D%3D
p1470
aVhttps://nam.edu/member/?member_id=kRBg8Qe7o6VtQ%2BXWi5i7tg%3D%3D
p1471
aVhttps://nam.edu/member/?member_id=K6B8ri5%2F3WH4v4mS21PWVg%3D%3D
p1472
aVhttps://nam.edu/member/?member_id=dIPYSVPwdi8Ieiqeblf8Tw%3D%3D
p1473
aVhttps://nam.edu/member/?member_id=yOQH13WfKnCQRXCAM3KMaw%3D%3D
p1474
aVhttps://nam.edu/member/?member_id=FFL7SrYExPojdkmETypXuw%3D%3D
p1475
aVhttps://nam.edu/member/?member_id=Fh5NkrV0XiwiF2xaPT9BLQ%3D%3D
p1476
aVhttps://nam.edu/member/?member_id=2D81GPngK4wFpSR1cNSn6w%3D%3D
p1477
aVhttps://nam.edu/member/?member_id=svaAvo4THL31H%2BGs4P81GA%3D%3D
p1478
aVhttps://nam.edu/member/?member_id=V192DXALcS5S5BXqD5jO1Q%3D%3D
p1479
aVhttps://nam.edu/member/?member_id=i3AYRF6whuzyiAHRm%2B6R2A%3D%3D
p1480
aVhttps://nam.edu/member/?member_id=lQXJJhpn%2BlGrYI7ZGyLdfw%3D%3D
p1481
aVhttps://nam.edu/member/?member_id=vEqmYbDbgWVeRZSXC9XT3g%3D%3D
p1482
aVhttps://nam.edu/member/?member_id=g1eVPJajB8AG3SXTqbleng%3D%3D
p1483
aVhttps://nam.edu/member/?member_id=YWuXBidAXjrEBMidEx75oQ%3D%3D
p1484
aVhttps://nam.edu/member/?member_id=j5UqmnhWdQVfZZ%2FhTIJoIg%3D%3D
p1485
aVhttps://nam.edu/member/?member_id=EiSQ9pECpoeKUWcJKHh2Fg%3D%3D
p1486
aVhttps://nam.edu/member/?member_id=o1veGinHwnuOQwSd7F0mMw%3D%3D
p1487
aVhttps://nam.edu/member/?member_id=Uq1fdWFM3fZBpspzW%2Bt3kw%3D%3D
p1488
aVhttps://nam.edu/member/?member_id=yRpFFDHqKGCINgTy4ak%2BBA%3D%3D
p1489
aVhttps://nam.edu/member/?member_id=crCAOuBm1i04zf1NPVnC5g%3D%3D
p1490
aVhttps://nam.edu/member/?member_id=54k%2BRLHyCisqSGL0j2sHvQ%3D%3D
p1491
aVhttps://nam.edu/member/?member_id=wYHbi5SzpsN5TexzVODDlQ%3D%3D
p1492
aVhttps://nam.edu/member/?member_id=JWeLdczHDUJamAKOhzPoUQ%3D%3D
p1493
aVhttps://nam.edu/member/?member_id=wQaXgnwZvMLKN6HIgDt6fg%3D%3D
p1494
aVhttps://nam.edu/member/?member_id=FWt4iuWxh59Nasg0VveYYw%3D%3D
p1495
aVhttps://nam.edu/member/?member_id=y4lopasoCg%2F3ndW58H23mQ%3D%3D
p1496
aVhttps://nam.edu/member/?member_id=t1Zjtp%2Bf4m6OX%2FYK433QmA%3D%3D
p1497
aVhttps://nam.edu/member/?member_id=%2FvoEEmCshF0FnVtqhfmDOQ%3D%3D
p1498
aVhttps://nam.edu/member/?member_id=AP7jY7DYEWfid563MbSZjw%3D%3D
p1499
aVhttps://nam.edu/member/?member_id=vXG9wdR71uMN6ee3u6ttPA%3D%3D
p1500
aVhttps://nam.edu/member/?member_id=Zha1UGMT6oBBMEdKgF8hfA%3D%3D
p1501
aVhttps://nam.edu/member/?member_id=mmZ3H4HFJPgTKAqTOu%2Ftaw%3D%3D
p1502
aVhttps://nam.edu/member/?member_id=1F1djt7W4WSRgxkSyU%2BqoQ%3D%3D
p1503
aVhttps://nam.edu/member/?member_id=Ge5bfeDYViQ5XR84CwQHQQ%3D%3D
p1504
aVhttps://nam.edu/member/?member_id=yAjkF4ERQsSeufLzvWC5cQ%3D%3D
p1505
aVhttps://nam.edu/member/?member_id=klqQOrFt7RBnOSrU8N3%2FCw%3D%3D
p1506
aVhttps://nam.edu/member/?member_id=Zl7NNQ%2F4ZpNRJ%2Baj4s01Lg%3D%3D
p1507
aVhttps://nam.edu/member/?member_id=kQ8%2Fz53GwhcysnEs%2BBXsoQ%3D%3D
p1508
aVhttps://nam.edu/member/?member_id=%2BzRr6Ama6FBE8pts5T1qiQ%3D%3D
p1509
aVhttps://nam.edu/member/?member_id=x9rtwyCRbP%2BDfYMxazQH1g%3D%3D
p1510
aVhttps://nam.edu/member/?member_id=aI5Uyyt2h7PC2ourDB6b5g%3D%3D
p1511
aVhttps://nam.edu/member/?member_id=OCiliRthNKGOekCfHlyFLQ%3D%3D
p1512
aVhttps://nam.edu/member/?member_id=OMrMPgi7gctBeYtAqFCSZA%3D%3D
p1513
aVhttps://nam.edu/member/?member_id=eEidsuhoffeUjm7TOwonrg%3D%3D
p1514
aVhttps://nam.edu/member/?member_id=XqV1U20QnfukL23%2Ff5u4AQ%3D%3D
p1515
aVhttps://nam.edu/member/?member_id=OPTQgg5MgL4Yp0d2cifasQ%3D%3D
p1516
aVhttps://nam.edu/member/?member_id=maXHlV0q8cQHfeA3J6Sojg%3D%3D
p1517
aVhttps://nam.edu/member/?member_id=dqciMpWfaV%2BUIsQS4h9qVg%3D%3D
p1518
aVhttps://nam.edu/member/?member_id=m%2Bq6E216m7xl%2FGIHl2Ug0Q%3D%3D
p1519
aVhttps://nam.edu/member/?member_id=NlfauKjoInjdC0%2BxVZ%2BnaA%3D%3D
p1520
aVhttps://nam.edu/member/?member_id=34knA%2F670y10AQCRfQ1nvA%3D%3D
p1521
aVhttps://nam.edu/member/?member_id=odEQnAQ158%2BpUCVozSWBIQ%3D%3D
p1522
aVhttps://nam.edu/member/?member_id=niHLm6PLKmXcmvKdlRGIjQ%3D%3D
p1523
aVhttps://nam.edu/member/?member_id=MS6TlRaqmN8%2Be957Np%2FBOw%3D%3D
p1524
aVhttps://nam.edu/member/?member_id=UEnYbk1zyemWxkh655lUag%3D%3D
p1525
aVhttps://nam.edu/member/?member_id=IF8VwYwxHId8wTT%2FVzjdwQ%3D%3D
p1526
aVhttps://nam.edu/member/?member_id=Wpx5quNF3afigNkgMNWIIQ%3D%3D
p1527
aVhttps://nam.edu/member/?member_id=t35fVqdihno3QcUkWKosKQ%3D%3D
p1528
aVhttps://nam.edu/member/?member_id=DZh%2FpmmWDoJ0t%2B6od0dR5w%3D%3D
p1529
aVhttps://nam.edu/member/?member_id=CTVE3qQlHlxkc%2FvB2ZFmZg%3D%3D
p1530
aVhttps://nam.edu/member/?member_id=Ttx2KxKUeG%2FKN61ddHGrxQ%3D%3D
p1531
aVhttps://nam.edu/member/?member_id=G0WAsCw%2B9L7nxmDG555fbw%3D%3D
p1532
aVhttps://nam.edu/member/?member_id=6VySM5BaBWhvNCs5pTCN9g%3D%3D
p1533
aVhttps://nam.edu/member/?member_id=Q5GBw0u%2Bof7EpKU1eYL1YA%3D%3D
p1534
aVhttps://nam.edu/member/?member_id=V84T%2Bmy93l%2FxPeBvYWAlPw%3D%3D
p1535
aVhttps://nam.edu/member/?member_id=rkOrLiaTifE17cLO%2B3b9Ug%3D%3D
p1536
aVhttps://nam.edu/member/?member_id=DUoiE70p8Vams%2FSsZO0egA%3D%3D
p1537
aVhttps://nam.edu/member/?member_id=GG0FFOxDhYW%2BaBI62ypDFA%3D%3D
p1538
aVhttps://nam.edu/member/?member_id=lbrftigXM8V6kaywy2PlkA%3D%3D
p1539
aVhttps://nam.edu/member/?member_id=%2BQbHK1UBrHRmAlMucNkqDg%3D%3D
p1540
aVhttps://nam.edu/member/?member_id=xPnWaijBl1RT8wg6S1018w%3D%3D
p1541
aVhttps://nam.edu/member/?member_id=EvRT%2FmkNiI70zqEW56M1%2BQ%3D%3D
p1542
aVhttps://nam.edu/member/?member_id=NNRU2BUWNH47m4GMbkoyLg%3D%3D
p1543
aVhttps://nam.edu/member/?member_id=Pk4RE4wxTEjKQz5vTcK48A%3D%3D
p1544
aVhttps://nam.edu/member/?member_id=6YNiIVefzT8WoA7vK5DUfQ%3D%3D
p1545
aVhttps://nam.edu/member/?member_id=Wia06cw51hrkaeTMFGVzcA%3D%3D
p1546
aVhttps://nam.edu/member/?member_id=j6vDr6ykgoaqk4DPb%2BQgZA%3D%3D
p1547
aVhttps://nam.edu/member/?member_id=Tr9WMHyQ%2FKYUBGw7S1KQiA%3D%3D
p1548
aVhttps://nam.edu/member/?member_id=kSdn5T0c40GyUVtDDyFc%2BQ%3D%3D
p1549
aVhttps://nam.edu/member/?member_id=Mvz%2F0mJaJwVfKYWQqwPnBw%3D%3D
p1550
aVhttps://nam.edu/member/?member_id=NWze6x5fSXlvS0tkQSY8iw%3D%3D
p1551
aVhttps://nam.edu/member/?member_id=0OWRjm%2BXhW2zOet%2FHEeHTA%3D%3D
p1552
aVhttps://nam.edu/member/?member_id=gWNx1EnA5l82tx3Z%2BQ9k0Q%3D%3D
p1553
aVhttps://nam.edu/member/?member_id=IZkMIcY6SLOJce3Znqb6WQ%3D%3D
p1554
aVhttps://nam.edu/member/?member_id=Jk63kMy85VpkMl7yLWC37Q%3D%3D
p1555
aVhttps://nam.edu/member/?member_id=OCDuRgFRLBVfqhvKZcq0nw%3D%3D
p1556
aVhttps://nam.edu/member/?member_id=klvrYT1NyRNZZJ200t4vZQ%3D%3D
p1557
aVhttps://nam.edu/member/?member_id=W2hujDqBbzcYcNyRlvF1yQ%3D%3D
p1558
aVhttps://nam.edu/member/?member_id=osSDsGKbDInjmgix7HFZ2g%3D%3D
p1559
aVhttps://nam.edu/member/?member_id=PjdzViw%2BwayD2Dx8kJDVQg%3D%3D
p1560
aVhttps://nam.edu/member/?member_id=ngZW4Efu4I4EDfyex4MBDA%3D%3D
p1561
aVhttps://nam.edu/member/?member_id=5%2BSuZDuhozjnNR7z7m%2F9mA%3D%3D
p1562
aVhttps://nam.edu/member/?member_id=yLOJUoFF5GtHZZtdggXnRg%3D%3D
p1563
aVhttps://nam.edu/member/?member_id=QA5MQy5hS6dVmvm8N9LdCA%3D%3D
p1564
aVhttps://nam.edu/member/?member_id=5DxCP2wIzouEcfK6BY1SDQ%3D%3D
p1565
aVhttps://nam.edu/member/?member_id=Sw%2F5Ct5jCI6WZSZXKiV5mA%3D%3D
p1566
aVhttps://nam.edu/member/?member_id=KrRjurcq2vykqRZdSIv3%2Fw%3D%3D
p1567
aVhttps://nam.edu/member/?member_id=r534O%2FVRar7gRPe%2F9WW%2Bdg%3D%3D
p1568
aVhttps://nam.edu/member/?member_id=F2prNIvt7%2FGMk59fbmupnQ%3D%3D
p1569
aVhttps://nam.edu/member/?member_id=1LXEOIP85QnT2JlG6NsIoA%3D%3D
p1570
aVhttps://nam.edu/member/?member_id=8XhGohbtU7ogaAF%2BFTSo7w%3D%3D
p1571
aVhttps://nam.edu/member/?member_id=kYdLW3DkeJiCWbil9qr6RQ%3D%3D
p1572
aVhttps://nam.edu/member/?member_id=36SbywGxIb%2FfIzGzSxcAmA%3D%3D
p1573
aVhttps://nam.edu/member/?member_id=P2XDCYReEQohEnhcCkWPBQ%3D%3D
p1574
aVhttps://nam.edu/member/?member_id=D%2FT4hqd33F9TvSB6DNdoAg%3D%3D
p1575
aVhttps://nam.edu/member/?member_id=WnwWlLvq9FolBph%2ByyVHsA%3D%3D
p1576
aVhttps://nam.edu/member/?member_id=JvJef4DpS%2FEM0sRRs0zpLQ%3D%3D
p1577
aVhttps://nam.edu/member/?member_id=CjUNfaBSiQWJlLc135vlOg%3D%3D
p1578
aVhttps://nam.edu/member/?member_id=6pfkhbjaVXpeQ3l6tqB8IQ%3D%3D
p1579
aVhttps://nam.edu/member/?member_id=Nh25o7jV9GK8e%2B1N7qsrRw%3D%3D
p1580
aVhttps://nam.edu/member/?member_id=8YlUR4Tvc41RX1Uj9fK0og%3D%3D
p1581
aVhttps://nam.edu/member/?member_id=DhvZi8VAjn51LCL%2BLtqhsA%3D%3D
p1582
aVhttps://nam.edu/member/?member_id=zzVhLIKc5e2BK3FXTxL05w%3D%3D
p1583
aVhttps://nam.edu/member/?member_id=nHXRzZOyWbtnoPRKZ%2FSl9Q%3D%3D
p1584
aVhttps://nam.edu/member/?member_id=OUOhbQh0gPOa%2BqtA7LAYyg%3D%3D
p1585
aVhttps://nam.edu/member/?member_id=GUbuiPu1jIdUS6o28zqWIQ%3D%3D
p1586
aVhttps://nam.edu/member/?member_id=1My0uEkTXWp%2B76%2F8GtLcZQ%3D%3D
p1587
aVhttps://nam.edu/member/?member_id=vQ%2BcHkDmi5K1v2jzYhULBQ%3D%3D
p1588
aVhttps://nam.edu/member/?member_id=lennYoRala6p8F162iGEFw%3D%3D
p1589
aVhttps://nam.edu/member/?member_id=YfDZNKnIBkRi76mzvcRsTw%3D%3D
p1590
aVhttps://nam.edu/member/?member_id=cRS7TIkjVwIzf6AMdMDmHg%3D%3D
p1591
aVhttps://nam.edu/member/?member_id=OFRQiCyKefACxCOP1UlVkg%3D%3D
p1592
aVhttps://nam.edu/member/?member_id=4Rru7es%2BhpTkILtPvr%2Fwlw%3D%3D
p1593
aVhttps://nam.edu/member/?member_id=Q3%2F3C%2FamDcGF5XChfh%2BQZQ%3D%3D
p1594
aVhttps://nam.edu/member/?member_id=X7ZuwrnTGws8GC1bPr1jfA%3D%3D
p1595
aVhttps://nam.edu/member/?member_id=HH22BmII2rBcmHj1oemu9A%3D%3D
p1596
aVhttps://nam.edu/member/?member_id=MO9xVa8LNRpnRzrbz7IB7A%3D%3D
p1597
aVhttps://nam.edu/member/?member_id=jte3JnlEHFzOW7gM5G10Gg%3D%3D
p1598
aVhttps://nam.edu/member/?member_id=lm5n9BL2anE2B8T%2FVhOn1g%3D%3D
p1599
aVhttps://nam.edu/member/?member_id=7BSezBLK3DEVeg7Mh2KrYA%3D%3D
p1600
aVhttps://nam.edu/member/?member_id=amzei4hB3NopgkP1h6o3Bg%3D%3D
p1601
aVhttps://nam.edu/member/?member_id=KJkp7HuSEU0CXj7KT4klsA%3D%3D
p1602
aVhttps://nam.edu/member/?member_id=0JxAYqFZwu%2BFc6CsMi1miQ%3D%3D
p1603
aVhttps://nam.edu/member/?member_id=wwuq8Q%2B1KHOgwyk8UptP7A%3D%3D
p1604
aVhttps://nam.edu/member/?member_id=P3yb%2B50hgEUxQFyOfTRmtw%3D%3D
p1605
aVhttps://nam.edu/member/?member_id=Nak9adXv%2B%2FQEjT6lopyWaA%3D%3D
p1606
aVhttps://nam.edu/member/?member_id=LMmAK8Mf1iCt3AK2Wn5VRA%3D%3D
p1607
aVhttps://nam.edu/member/?member_id=V1TRnS8b2HLmBN4JFiyAKw%3D%3D
p1608
aVhttps://nam.edu/member/?member_id=DzLJFfWNudnxnGXzKggieg%3D%3D
p1609
aVhttps://nam.edu/member/?member_id=zbzRHKgA6ud7NNlM4DVbyw%3D%3D
p1610
aVhttps://nam.edu/member/?member_id=nuwdHr%2FkIccAZfXCRqbxMQ%3D%3D
p1611
aVhttps://nam.edu/member/?member_id=663%2F%2BRinbtuJ0Ug3To0clQ%3D%3D
p1612
aVhttps://nam.edu/member/?member_id=XfzlD%2BcjwCqJ%2FBkrzl6HRw%3D%3D
p1613
aVhttps://nam.edu/member/?member_id=HqCLuVp0a1TRw6hbecPnNA%3D%3D
p1614
aVhttps://nam.edu/member/?member_id=ORKmehZvhSDfR87Awc3uvw%3D%3D
p1615
aVhttps://nam.edu/member/?member_id=56pfJ5PbX4HK5avFpBliIw%3D%3D
p1616
aVhttps://nam.edu/member/?member_id=wCUR95z5yd%2BE6D8iyvko0Q%3D%3D
p1617
aVhttps://nam.edu/member/?member_id=BeMcAf5EaxgvZ3af3NSzkw%3D%3D
p1618
aVhttps://nam.edu/member/?member_id=VqDb9CDuqNLVG8EtPOz4nA%3D%3D
p1619
aVhttps://nam.edu/member/?member_id=hVB3oByaXSHIQW3a6R8GvA%3D%3D
p1620
aVhttps://nam.edu/member/?member_id=V8U7J8RTFk1PPUi3dADKwA%3D%3D
p1621
aVhttps://nam.edu/member/?member_id=m5FwGrQgedfQW%2FQMTDzF6Q%3D%3D
p1622
aVhttps://nam.edu/member/?member_id=hW8nrUnjdudCXelRaC5i%2BQ%3D%3D
p1623
aVhttps://nam.edu/member/?member_id=teHTFr9s2h54%2FaW1LWAFHA%3D%3D
p1624
aVhttps://nam.edu/member/?member_id=d7ewBldOGIUcF0uk8AM9qA%3D%3D
p1625
aVhttps://nam.edu/member/?member_id=SmB4NE1ccJUBR39Ehk0CWw%3D%3D
p1626
aVhttps://nam.edu/member/?member_id=nKcKbAVVaZIGZYJDAl0mbg%3D%3D
p1627
aVhttps://nam.edu/member/?member_id=wAz3QzV%2Bz%2B7jdJQVDoaYRg%3D%3D
p1628
aVhttps://nam.edu/member/?member_id=yamJ7jklyRjFDz%2F9ASpNLA%3D%3D
p1629
aVhttps://nam.edu/member/?member_id=hMm%2Faj9l3utfEzPBdFD8Rg%3D%3D
p1630
aVhttps://nam.edu/member/?member_id=icdTLS7OfI8ABtC8YzkO0Q%3D%3D
p1631
aVhttps://nam.edu/member/?member_id=yxk2%2FNeTHedzrQLjTN5Idg%3D%3D
p1632
aVhttps://nam.edu/member/?member_id=rRFZi1UTzg05QVMK6pDZ7w%3D%3D
p1633
aVhttps://nam.edu/member/?member_id=Wf4TvfQvNIWPS0Yj9cPrKA%3D%3D
p1634
aVhttps://nam.edu/member/?member_id=39RuuZM7ZK9MqYqt87tkug%3D%3D
p1635
aVhttps://nam.edu/member/?member_id=l6%2BxB0N537mQ%2FoD1jYurKw%3D%3D
p1636
aVhttps://nam.edu/member/?member_id=ADtVx1ZrAviZDCVES332IA%3D%3D
p1637
aVhttps://nam.edu/member/?member_id=38ANsCxLWbAiGe62KMwbxQ%3D%3D
p1638
aVhttps://nam.edu/member/?member_id=4MYebMw46Cc14lhuN%2BrNbg%3D%3D
p1639
aVhttps://nam.edu/member/?member_id=dljaNI3KDbAE4UdqSYAyoA%3D%3D
p1640
aVhttps://nam.edu/member/?member_id=XjfuBNbth20u6ootbSkNAg%3D%3D
p1641
aVhttps://nam.edu/member/?member_id=kOBcwh4pZJnLpwntINhzCQ%3D%3D
p1642
aVhttps://nam.edu/member/?member_id=B%2BXiSpjFguogJPc5MkySsQ%3D%3D
p1643
aVhttps://nam.edu/member/?member_id=4hsx9qleKgq7SKg%2Fb5Oe%2FQ%3D%3D
p1644
aVhttps://nam.edu/member/?member_id=XK8qdu21hsrvT6%2FZjCWiyg%3D%3D
p1645
aVhttps://nam.edu/member/?member_id=ISrw04y7mWnweacs1fVlyg%3D%3D
p1646
aVhttps://nam.edu/member/?member_id=1WRszG851MQ6z77duOZIkA%3D%3D
p1647
aVhttps://nam.edu/member/?member_id=dhguhZwElmBAdVx7nRbAcg%3D%3D
p1648
aVhttps://nam.edu/member/?member_id=qa9RfE9YJHrhh3J3fAwtIw%3D%3D
p1649
aVhttps://nam.edu/member/?member_id=h%2BhY0QVM7nXBF0GUen3b5Q%3D%3D
p1650
aVhttps://nam.edu/member/?member_id=szymQL3eRvloSkifQXcDtA%3D%3D
p1651
aVhttps://nam.edu/member/?member_id=WBMHjCKWbWLxqCxHmygspw%3D%3D
p1652
aVhttps://nam.edu/member/?member_id=CnmM9PeGkRNo7y%2FMNIH%2Fag%3D%3D
p1653
aVhttps://nam.edu/member/?member_id=L4tPtpojujoru6NwHCtx%2Fw%3D%3D
p1654
aVhttps://nam.edu/member/?member_id=019yCNfKd4c2%2BfKjgj4tNA%3D%3D
p1655
aVhttps://nam.edu/member/?member_id=BCR1oYza167z7KcI15hEYQ%3D%3D
p1656
aVhttps://nam.edu/member/?member_id=CMf0rvsSTYLAXezlhHQWwA%3D%3D
p1657
aVhttps://nam.edu/member/?member_id=b9%2FqPzgla5z%2FTZwKEp3TDw%3D%3D
p1658
aVhttps://nam.edu/member/?member_id=QtA4%2FLMKG7sfyLJPJH%2BR9g%3D%3D
p1659
aVhttps://nam.edu/member/?member_id=fGS89USn62u53s3C8oG%2B9A%3D%3D
p1660
aVhttps://nam.edu/member/?member_id=vqX2tdxb7AzXkFjR3iaLUw%3D%3D
p1661
aVhttps://nam.edu/member/?member_id=%2FeQxhLBXCGigCU8PubeITA%3D%3D
p1662
aVhttps://nam.edu/member/?member_id=1WNEXP3rhdT8SG3ZYIZKxA%3D%3D
p1663
aVhttps://nam.edu/member/?member_id=gyx%2BznxbMxCqkP3qRNU94g%3D%3D
p1664
aVhttps://nam.edu/member/?member_id=onYycFcAG3hY55b60qqNsw%3D%3D
p1665
aVhttps://nam.edu/member/?member_id=Srcyoxy0btQiwnVm6KfHDg%3D%3D
p1666
aVhttps://nam.edu/member/?member_id=f5xR1Lhaaz3RESTNPjkbeg%3D%3D
p1667
aVhttps://nam.edu/member/?member_id=kdTOoutNqK7jbX4rDxz5EQ%3D%3D
p1668
aVhttps://nam.edu/member/?member_id=tzbVUur1cmWuD80%2BvcxVPw%3D%3D
p1669
aVhttps://nam.edu/member/?member_id=N%2Btm3IXa1kShZ51maC80Lg%3D%3D
p1670
aVhttps://nam.edu/member/?member_id=jq0x%2F6Pry3ypbMuvUAWNOw%3D%3D
p1671
aVhttps://nam.edu/member/?member_id=IGlI2n2rbX7mDi2u7cAbww%3D%3D
p1672
aVhttps://nam.edu/member/?member_id=jNmZ2atDx9bXYcwA70IBOQ%3D%3D
p1673
aVhttps://nam.edu/member/?member_id=%2FuSdwp7Gm%2FGbi%2F%2FjJIn5DQ%3D%3D
p1674
aVhttps://nam.edu/member/?member_id=hKoa2nHH6q60dNEswPurgw%3D%3D
p1675
aVhttps://nam.edu/member/?member_id=44cGdupfqdGiuxovebXyUw%3D%3D
p1676
aVhttps://nam.edu/member/?member_id=QxLcNk9rLv22scT81adLCw%3D%3D
p1677
aVhttps://nam.edu/member/?member_id=0T0xjo%2FnEHaB7mWOin8AmQ%3D%3D
p1678
aVhttps://nam.edu/member/?member_id=6c6K3EaPG3CeSciBXK4FCA%3D%3D
p1679
aVhttps://nam.edu/member/?member_id=ppMiy549UigHfEJi9Jb0iA%3D%3D
p1680
aVhttps://nam.edu/member/?member_id=%2FBP%2Bef2A5sI%2BWmfZvxPFJQ%3D%3D
p1681
aVhttps://nam.edu/member/?member_id=RU2tA%2B89nKcwQeKl5j5boA%3D%3D
p1682
aVhttps://nam.edu/member/?member_id=RtA4SUmuPsknyWkLHpmt%2Bw%3D%3D
p1683
aVhttps://nam.edu/member/?member_id=Rub2M6cx%2B8Aze%2BgR6F5lrA%3D%3D
p1684
aVhttps://nam.edu/member/?member_id=LwITUGDwdvCmqXDJRv2Drg%3D%3D
p1685
aVhttps://nam.edu/member/?member_id=R5gusCBphr4M7R5L2gYGBA%3D%3D
p1686
aVhttps://nam.edu/member/?member_id=u2qCjztiSubmN4I4hMz3XA%3D%3D
p1687
aVhttps://nam.edu/member/?member_id=7wDh%2FlkoaXy%2F%2BlvGfLf5SA%3D%3D
p1688
aVhttps://nam.edu/member/?member_id=cFJSfdzG8toygF%2Bv3WHUtw%3D%3D
p1689
aVhttps://nam.edu/member/?member_id=%2F6wWQ4GKDfngge5yftet2A%3D%3D
p1690
aVhttps://nam.edu/member/?member_id=ZRtdiFE0I4ohrzGDKOaNBg%3D%3D
p1691
aVhttps://nam.edu/member/?member_id=51SvaJaA%2Fo%2F%2BOsob8%2FxpMA%3D%3D
p1692
aVhttps://nam.edu/member/?member_id=ltppyYH340v0ahaPeOZPZg%3D%3D
p1693
aVhttps://nam.edu/member/?member_id=NCsacS9AO1pRCVwBXfHe3g%3D%3D
p1694
aVhttps://nam.edu/member/?member_id=Z7fGFRMsHMMs84zGqxDBuw%3D%3D
p1695
aVhttps://nam.edu/member/?member_id=8FTWXQ6wAY4nw5iIUdzYEw%3D%3D
p1696
aVhttps://nam.edu/member/?member_id=La2ACWFKWex2TvP6TQqEXA%3D%3D
p1697
aVhttps://nam.edu/member/?member_id=r4CXroNuulSINW7pMCY3cw%3D%3D
p1698
aVhttps://nam.edu/member/?member_id=AA0D%2BQNMJX2UPttspgi4XA%3D%3D
p1699
aVhttps://nam.edu/member/?member_id=A3FiG1R7zscZrhI%2B8J7vHQ%3D%3D
p1700
aVhttps://nam.edu/member/?member_id=2O1vJouOzzj3fzZGwFc8mw%3D%3D
p1701
aVhttps://nam.edu/member/?member_id=vbRhZJ0uvGqmJ17FDd%2Bc3w%3D%3D
p1702
aVhttps://nam.edu/member/?member_id=PRjumknK9sVJ41SWEY0R%2Fg%3D%3D
p1703
aVhttps://nam.edu/member/?member_id=aklS%2BsJtHPV1IZUjk9Mvmg%3D%3D
p1704
aVhttps://nam.edu/member/?member_id=OplD3eNz89vLvjdCabyjCg%3D%3D
p1705
aVhttps://nam.edu/member/?member_id=i%2BF67BxNhhsWRvcb0vLG3g%3D%3D
p1706
aVhttps://nam.edu/member/?member_id=NvKf3mO99EZUlymHD9J65A%3D%3D
p1707
aVhttps://nam.edu/member/?member_id=eB2zmSWxqhA0IqMwpXbR5A%3D%3D
p1708
aVhttps://nam.edu/member/?member_id=P4PEOz1aSCEcAS%2FzIBYWJg%3D%3D
p1709
aVhttps://nam.edu/member/?member_id=RWz6WFmZ4otJkc3sNt%2BC4Q%3D%3D
p1710
aVhttps://nam.edu/member/?member_id=uw6gpTuMIKNH0rMbzKNR8g%3D%3D
p1711
aVhttps://nam.edu/member/?member_id=CyJWzACQ45xNdCEkQ2E6YQ%3D%3D
p1712
aVhttps://nam.edu/member/?member_id=0VHqPXG1NwSrCV27Gku6hA%3D%3D
p1713
aVhttps://nam.edu/member/?member_id=Vv6111m48S4ww6woH3%2FcZg%3D%3D
p1714
aVhttps://nam.edu/member/?member_id=Rx6Anj5HFNmQ%2FGndG47tSA%3D%3D
p1715
aVhttps://nam.edu/member/?member_id=SmuNVTNPJGpcDa%2F%2BMya8mw%3D%3D
p1716
aVhttps://nam.edu/member/?member_id=ZCthjfb2ToV2K9WJ6vbPwQ%3D%3D
p1717
aVhttps://nam.edu/member/?member_id=Mo9ATLgliLsY3ZmwqaudaQ%3D%3D
p1718
aVhttps://nam.edu/member/?member_id=BGT47IeOmVnL42gDyrmGMg%3D%3D
p1719
aVhttps://nam.edu/member/?member_id=Zi1qgpCHJNWitqSf9fQGyw%3D%3D
p1720
aVhttps://nam.edu/member/?member_id=is9XAn2WkDacaNIkXjJwoQ%3D%3D
p1721
aVhttps://nam.edu/member/?member_id=JhPCjqC5c3VZb%2Bb8gI94GQ%3D%3D
p1722
aVhttps://nam.edu/member/?member_id=nTfHBjm6gN6mfi6qT0qr4w%3D%3D
p1723
aVhttps://nam.edu/member/?member_id=YwS9cn3PwIAeSQHwFjrFzQ%3D%3D
p1724
aVhttps://nam.edu/member/?member_id=bLqUVjJjk9ZljIYg3yGV2g%3D%3D
p1725
aVhttps://nam.edu/member/?member_id=cjG7xSozk3KFUJWfflOYIw%3D%3D
p1726
aVhttps://nam.edu/member/?member_id=o9PdC9NRhzTztJRI0KMjkQ%3D%3D
p1727
aVhttps://nam.edu/member/?member_id=CaQBMXSsYb0pKHSQIgi9dw%3D%3D
p1728
aVhttps://nam.edu/member/?member_id=e4w4rvEJX8EOyN69iS%2BG5A%3D%3D
p1729
aVhttps://nam.edu/member/?member_id=PF7RKrFg9kzExAeYPZ9SDA%3D%3D
p1730
aVhttps://nam.edu/member/?member_id=hLUqG0aw6lisSSGARx4oZw%3D%3D
p1731
aVhttps://nam.edu/member/?member_id=mmklz6ffW37sPZnD2LuEng%3D%3D
p1732
aVhttps://nam.edu/member/?member_id=V7qaRKKmjs%2BqkYut2r4p1w%3D%3D
p1733
aVhttps://nam.edu/member/?member_id=5ipfjeZ2KMXZ4jxziHFX5w%3D%3D
p1734
aVhttps://nam.edu/member/?member_id=JE4xihmMLRaxyZPXgqtQBw%3D%3D
p1735
aVhttps://nam.edu/member/?member_id=zJKQEqop1wqVGgJ9opOf7g%3D%3D
p1736
aVhttps://nam.edu/member/?member_id=Sf%2BklAAUBb9zcZi3HzWS5A%3D%3D
p1737
aVhttps://nam.edu/member/?member_id=qF0UzlOb88nwxq2dYrUGug%3D%3D
p1738
aVhttps://nam.edu/member/?member_id=bYrdnoidLzrRT%2FIt5f1f4A%3D%3D
p1739
aVhttps://nam.edu/member/?member_id=ZjxAvrK9zX6c9da4xVnGVg%3D%3D
p1740
aVhttps://nam.edu/member/?member_id=a564geiFJaEVOLJYWa719w%3D%3D
p1741
aVhttps://nam.edu/member/?member_id=xpuWMOe4q%2FgvqN86hy0FqQ%3D%3D
p1742
aVhttps://nam.edu/member/?member_id=okz%2FODdnScFFphDHSQD5SQ%3D%3D
p1743
aVhttps://nam.edu/member/?member_id=QTvJiGJDJw3bGwgFjaOWhw%3D%3D
p1744
aVhttps://nam.edu/member/?member_id=6PI1WlrkKXarT6mbVoWV1Q%3D%3D
p1745
aVhttps://nam.edu/member/?member_id=5Klthsu9wGg6ikD38sOFfQ%3D%3D
p1746
aVhttps://nam.edu/member/?member_id=UkCk6y45zT5alqrGsBXXtw%3D%3D
p1747
aVhttps://nam.edu/member/?member_id=84RQ3WDGys%2FNCuhdBZ8jJg%3D%3D
p1748
aVhttps://nam.edu/member/?member_id=NGBIiqDOOYHiq7Q2BdiKjg%3D%3D
p1749
aVhttps://nam.edu/member/?member_id=%2F5fHcrRUc1bVCdcMyWHNlA%3D%3D
p1750
aVhttps://nam.edu/member/?member_id=%2FTt1gOa7Hhh%2FTYqbRtcvoQ%3D%3D
p1751
aVhttps://nam.edu/member/?member_id=Ga2pOS8FP0L%2BFBwQW4Mmhw%3D%3D
p1752
aVhttps://nam.edu/member/?member_id=KelqJxsOm6V3wxTO0PhoQA%3D%3D
p1753
aVhttps://nam.edu/member/?member_id=g%2BmBTS0X66rwSWMMIaBd%2BQ%3D%3D
p1754
aVhttps://nam.edu/member/?member_id=32cpuD%2FyJPwBxr0te2FOdg%3D%3D
p1755
aVhttps://nam.edu/member/?member_id=hd6znjPV6L3t%2BXW0Ijt1IQ%3D%3D
p1756
aVhttps://nam.edu/member/?member_id=OHnHERYjp%2Bef%2B7jaDAIHSQ%3D%3D
p1757
aVhttps://nam.edu/member/?member_id=nBIAs7H4eHRDvfyDGC0j8Q%3D%3D
p1758
aVhttps://nam.edu/member/?member_id=%2FQ8JDlnf6Jk3kU9wxLQLSA%3D%3D
p1759
aVhttps://nam.edu/member/?member_id=4K7%2BnjEg%2FJMNaSBlvfTGnA%3D%3D
p1760
aVhttps://nam.edu/member/?member_id=%2FJf7IDqwTG93esarcKVw5g%3D%3D
p1761
aVhttps://nam.edu/member/?member_id=HA0fSkLZ1USlhybHLC1lhA%3D%3D
p1762
aVhttps://nam.edu/member/?member_id=jT8CeR%2FbmPBHGq6wVOW%2B3w%3D%3D
p1763
aVhttps://nam.edu/member/?member_id=ds9a3elWGdqmPHD2igeu5w%3D%3D
p1764
aVhttps://nam.edu/member/?member_id=yMBHZ099QWGuXzYOj0lsmA%3D%3D
p1765
aVhttps://nam.edu/member/?member_id=3d3TuLtuxi67hF174E5rRw%3D%3D
p1766
aVhttps://nam.edu/member/?member_id=jntgouaoMvJ1XEyLM1jL8g%3D%3D
p1767
aVhttps://nam.edu/member/?member_id=NiQfjglf4GeQB5So61JnwA%3D%3D
p1768
aVhttps://nam.edu/member/?member_id=YbYOyDsdUT7wfH4r6MfMNA%3D%3D
p1769
aVhttps://nam.edu/member/?member_id=4FLllGBGIGcKgXXhpOlJuw%3D%3D
p1770
aVhttps://nam.edu/member/?member_id=XCCSC4fJD0ocX3jUQvRPVw%3D%3D
p1771
aVhttps://nam.edu/member/?member_id=TKXAIoWMjPEDgZ7%2BjhM%2BRg%3D%3D
p1772
aVhttps://nam.edu/member/?member_id=5P%2FRV5HHBPqM27bsiZfmNw%3D%3D
p1773
aVhttps://nam.edu/member/?member_id=3RoopVselX0o8rWcWu9%2FZA%3D%3D
p1774
aVhttps://nam.edu/member/?member_id=U96UQc1woekNWKhYTUOoZw%3D%3D
p1775
aVhttps://nam.edu/member/?member_id=QYyY3y0elxbT0AQyOdMiIQ%3D%3D
p1776
aVhttps://nam.edu/member/?member_id=zJgnDfmKZvgK5%2BEZk%2B0rsw%3D%3D
p1777
aVhttps://nam.edu/member/?member_id=U0tGHeTs0PqZ0VxVvSsl4g%3D%3D
p1778
aVhttps://nam.edu/member/?member_id=gDnsOoVlxkLVQoAUsTvUvg%3D%3D
p1779
aVhttps://nam.edu/member/?member_id=prQMsg1VV6XMXzreLR6Y%2Bw%3D%3D
p1780
aVhttps://nam.edu/member/?member_id=N7JKA1KtmBxIFAAUTpeN1w%3D%3D
p1781
aVhttps://nam.edu/member/?member_id=HJMaVt6F8J%2BRo41Te308qg%3D%3D
p1782
aVhttps://nam.edu/member/?member_id=3haDsOxvVc8Pk5Ef1Enq9g%3D%3D
p1783
aVhttps://nam.edu/member/?member_id=tDteVUjB9GsYYhY8Y7vxlw%3D%3D
p1784
aVhttps://nam.edu/member/?member_id=fAb%2BSKevlAB5XJPLZY09Ag%3D%3D
p1785
aVhttps://nam.edu/member/?member_id=yLsUgH5PPENmj1AWXjEQgg%3D%3D
p1786
aVhttps://nam.edu/member/?member_id=Ndc9KbDdOvDdlPodwzBleA%3D%3D
p1787
aVhttps://nam.edu/member/?member_id=CZLfKqYmxWdrkNeMSpzyag%3D%3D
p1788
aVhttps://nam.edu/member/?member_id=tXo2aF1QFGhLIAmMzwdlpQ%3D%3D
p1789
aVhttps://nam.edu/member/?member_id=vFG36DCXh4UHxykswQraag%3D%3D
p1790
aVhttps://nam.edu/member/?member_id=Aml0evYtffM9cXjwtxBMtA%3D%3D
p1791
aVhttps://nam.edu/member/?member_id=Yi2%2FQ5k22bgFJQy%2FS1fWZg%3D%3D
p1792
aVhttps://nam.edu/member/?member_id=A7kZpV4eNP7receVf1YSgg%3D%3D
p1793
aVhttps://nam.edu/member/?member_id=b1AdU7bXMDrhyP3mBLrAUQ%3D%3D
p1794
aVhttps://nam.edu/member/?member_id=iEKA6PMM%2BMffnvVrTnQtig%3D%3D
p1795
aVhttps://nam.edu/member/?member_id=om20gJb8Ombu6a0mh4slYg%3D%3D
p1796
aVhttps://nam.edu/member/?member_id=988p%2FxhYnFMlEPaPApA6pA%3D%3D
p1797
aVhttps://nam.edu/member/?member_id=Itnv1UTgDiigGob2xVfYtA%3D%3D
p1798
aVhttps://nam.edu/member/?member_id=shqSi8KVBJKnjXigbEf1tQ%3D%3D
p1799
aVhttps://nam.edu/member/?member_id=E0UCVeb0DIiAw7pU5Qcbfw%3D%3D
p1800
aVhttps://nam.edu/member/?member_id=n%2FEKRGnO9WwBnZxn%2FwoBkw%3D%3D
p1801
aVhttps://nam.edu/member/?member_id=YLjw0JWoP3nbc09XRBfomg%3D%3D
p1802
aVhttps://nam.edu/member/?member_id=mqN1y0ePvCYDTujM6INEIg%3D%3D
p1803
aVhttps://nam.edu/member/?member_id=N5AoJd06SnV2KK33p4SjXw%3D%3D
p1804
aVhttps://nam.edu/member/?member_id=GmpD8L1hIiuQ3G5nc54KDw%3D%3D
p1805
aVhttps://nam.edu/member/?member_id=Gx5YQ%2BfstlYDjWw968VfqA%3D%3D
p1806
aVhttps://nam.edu/member/?member_id=fLZK%2Fsyb2tU1BgoAlq0Qrw%3D%3D
p1807
aVhttps://nam.edu/member/?member_id=8VVe3zS2S5nzVnioNrqvEw%3D%3D
p1808
aVhttps://nam.edu/member/?member_id=E9UIt%2BV%2FtjPtl76dbMKwwQ%3D%3D
p1809
aVhttps://nam.edu/member/?member_id=xR%2BFLfCUferuO2W%2FVl7C1g%3D%3D
p1810
aVhttps://nam.edu/member/?member_id=uVwdnnuZ0bEXCIytL0BRDg%3D%3D
p1811
aVhttps://nam.edu/member/?member_id=mCh5uyjqPspOHOHrMV5y1A%3D%3D
p1812
aVhttps://nam.edu/member/?member_id=GU6sgpDf7JlNbOJwDpvgLQ%3D%3D
p1813
aVhttps://nam.edu/member/?member_id=IgeVx%2Bc%2BdSx%2BVZk8%2BkEtnA%3D%3D
p1814
aVhttps://nam.edu/member/?member_id=BU8I%2BIQI5cE%2BZs0vltTHbg%3D%3D
p1815
aVhttps://nam.edu/member/?member_id=OLZ8t8aofURTCkaXX53%2FxQ%3D%3D
p1816
aVhttps://nam.edu/member/?member_id=oY6KaXFGQbUwYTexly%2FxzA%3D%3D
p1817
aVhttps://nam.edu/member/?member_id=Fk33dw1utj6cu5XtDyvL9Q%3D%3D
p1818
aVhttps://nam.edu/member/?member_id=SGoH1Yhus7IGeVhRvbreLw%3D%3D
p1819
aVhttps://nam.edu/member/?member_id=798nV2EBmbqWUSFC%2Fp9Hsg%3D%3D
p1820
aVhttps://nam.edu/member/?member_id=XV9w0Mg66Hbyx3jxUFjXPQ%3D%3D
p1821
aVhttps://nam.edu/member/?member_id=Jfumq42FRpd%2B99FAMIP9dQ%3D%3D
p1822
aVhttps://nam.edu/member/?member_id=dVD26YtHRuNpZW9sUJj0bQ%3D%3D
p1823
aVhttps://nam.edu/member/?member_id=aFSPZiA%2BhRIXYsFbJ9mA7w%3D%3D
p1824
aVhttps://nam.edu/member/?member_id=a%2F34bKG3%2F4LLgewJaDcm%2Fw%3D%3D
p1825
aVhttps://nam.edu/member/?member_id=bpV1CQrLOoP7mIhhctplHQ%3D%3D
p1826
aVhttps://nam.edu/member/?member_id=TXjt1vlyv07gd3bc9KiUuA%3D%3D
p1827
aVhttps://nam.edu/member/?member_id=P4zhGKj9nvOGRd4rhclO7w%3D%3D
p1828
aVhttps://nam.edu/member/?member_id=%2F3j0gElY%2BgAKMNTGvsKBvg%3D%3D
p1829
aVhttps://nam.edu/member/?member_id=0YuXjOawk4w0mFDoH%2FBIJA%3D%3D
p1830
aVhttps://nam.edu/member/?member_id=2TZVxwYwhN%2BgOHWQWXVpkA%3D%3D
p1831
aVhttps://nam.edu/member/?member_id=hK5sA4i1mcjNwS55L9BIsw%3D%3D
p1832
aVhttps://nam.edu/member/?member_id=XPIDVodEJlLAs5%2BaLNwKDQ%3D%3D
p1833
aVhttps://nam.edu/member/?member_id=3e9nhm5T9Rhy0MDL3tmFGg%3D%3D
p1834
aVhttps://nam.edu/member/?member_id=%2Bheld%2FhbYYEWBzmy0Wxh%2Fg%3D%3D
p1835
aVhttps://nam.edu/member/?member_id=n9uIrGz0OBscmGyj%2B%2BsVwQ%3D%3D
p1836
aVhttps://nam.edu/member/?member_id=xYLrrwQu4XhV31gLXXuOhg%3D%3D
p1837
aVhttps://nam.edu/member/?member_id=Fn7MHUyrnashn4gmoilQbw%3D%3D
p1838
aVhttps://nam.edu/member/?member_id=XjOY7AUk8abtRKjx6LZItA%3D%3D
p1839
aVhttps://nam.edu/member/?member_id=U3muediGW0VD1GmLWodQDA%3D%3D
p1840
aVhttps://nam.edu/member/?member_id=zSt9xWyHwu6%2BIE%2BSkpLL5w%3D%3D
p1841
aVhttps://nam.edu/member/?member_id=aaHvWJ%2BPoAY7%2F4%2BKQ%2FriRA%3D%3D
p1842
aVhttps://nam.edu/member/?member_id=TN%2B1tWMDC6oGCzESN5AVLg%3D%3D
p1843
aVhttps://nam.edu/member/?member_id=n3jkb5lYuJXxCGzvQTUfAg%3D%3D
p1844
aVhttps://nam.edu/member/?member_id=G5n8oeAb%2BYQW0BZZfrj%2BYg%3D%3D
p1845
aVhttps://nam.edu/member/?member_id=OfAdgci3JE0AamyA26pDWw%3D%3D
p1846
aVhttps://nam.edu/member/?member_id=6fM2rvZ0mF0PUrLHggYyAg%3D%3D
p1847
aVhttps://nam.edu/member/?member_id=5mMVi5hFTsKax7pdEC9ePA%3D%3D
p1848
aVhttps://nam.edu/member/?member_id=WW61tTHpRde856DFoJAu9g%3D%3D
p1849
aVhttps://nam.edu/member/?member_id=K3LJ4K5Ewwb03132%2F40j6w%3D%3D
p1850
aVhttps://nam.edu/member/?member_id=8AORXYCLopooo9ZQ%2FznZdA%3D%3D
p1851
aVhttps://nam.edu/member/?member_id=Jwhbf%2B7e4ipl1jHfb5r%2BiQ%3D%3D
p1852
aVhttps://nam.edu/member/?member_id=wQwai1%2FpNpkQreP6xMEIqw%3D%3D
p1853
aVhttps://nam.edu/member/?member_id=adzcbLLsdUsZc8nmoI%2FcKg%3D%3D
p1854
aVhttps://nam.edu/member/?member_id=2Ph0%2BCnZqI90kBp7DpHcJw%3D%3D
p1855
aVhttps://nam.edu/member/?member_id=h7p%2B5bSMYxBd4EMzM%2BmW9g%3D%3D
p1856
aVhttps://nam.edu/member/?member_id=uE5yhGhScMNTSMgI30hMPg%3D%3D
p1857
aVhttps://nam.edu/member/?member_id=pWZYhFwAI8rW8Bohq9Eb7g%3D%3D
p1858
aVhttps://nam.edu/member/?member_id=WWEKXGqGWDBK%2Bbc2e99kTw%3D%3D
p1859
aVhttps://nam.edu/member/?member_id=%2FH0O2YAB3LXmOWy%2Br5GjSg%3D%3D
p1860
aVhttps://nam.edu/member/?member_id=TMse5aHh%2B%2Bt2BNzxRoDlOg%3D%3D
p1861
aVhttps://nam.edu/member/?member_id=JihO%2Bd6onE7fReb63fGsSg%3D%3D
p1862
aVhttps://nam.edu/member/?member_id=rXHEWK3pvCyZ4zSVqonqiA%3D%3D
p1863
aVhttps://nam.edu/member/?member_id=oi38juClugLyMBvv26jN5g%3D%3D
p1864
aVhttps://nam.edu/member/?member_id=45%2BOma5KFdVAmwXcWrUk9g%3D%3D
p1865
aVhttps://nam.edu/member/?member_id=bHS%2Ft7ELXFw1qe4XNoL2Xg%3D%3D
p1866
aVhttps://nam.edu/member/?member_id=DRFN38xeIsCnETbrkg7Dag%3D%3D
p1867
aVhttps://nam.edu/member/?member_id=2vGFle9MFYW9RcUtk%2BMsYA%3D%3D
p1868
aVhttps://nam.edu/member/?member_id=vnCiFf7xehyIcvqKWlRbSg%3D%3D
p1869
aVhttps://nam.edu/member/?member_id=cKZBF%2B%2FMjLdmmeZ%2BWIa9mA%3D%3D
p1870
aVhttps://nam.edu/member/?member_id=GRlZiWqy1ONmxuAygBGxtg%3D%3D
p1871
aVhttps://nam.edu/member/?member_id=NFayxGCJWqDsaLJWqbLiVQ%3D%3D
p1872
aVhttps://nam.edu/member/?member_id=Rhx27pAZlQZhHIU8OqyVYQ%3D%3D
p1873
aVhttps://nam.edu/member/?member_id=7BcvwUmVXtyjr%2FjXrgMoVw%3D%3D
p1874
aVhttps://nam.edu/member/?member_id=otLwxWOlvAO4gseNW0kyLA%3D%3D
p1875
aVhttps://nam.edu/member/?member_id=A8D0jOc8EHSsjb%2BGbOamLQ%3D%3D
p1876
aVhttps://nam.edu/member/?member_id=Qu8PKBJ%2BNhE7uRSPuvnEhg%3D%3D
p1877
aVhttps://nam.edu/member/?member_id=yz7L6SveJXzOwQ%2FSStnL6w%3D%3D
p1878
aVhttps://nam.edu/member/?member_id=0VLDcdk9bOcP5TJO9%2BFITQ%3D%3D
p1879
aVhttps://nam.edu/member/?member_id=dHO4kQMO1ucJJPIRCwUvZA%3D%3D
p1880
aVhttps://nam.edu/member/?member_id=20WEjq9qB2nGpRVv9WSFZw%3D%3D
p1881
aVhttps://nam.edu/member/?member_id=9O3wDc0L4AcngwO5xgvDJA%3D%3D
p1882
aVhttps://nam.edu/member/?member_id=Mb4%2BQgBuBTsrJExjrPnIKg%3D%3D
p1883
aVhttps://nam.edu/member/?member_id=c3tIrhPYt%2FO7D%2Fz6nYqPuQ%3D%3D
p1884
aVhttps://nam.edu/member/?member_id=FlhFmTfGwViTv3UJMHnQuA%3D%3D
p1885
aVhttps://nam.edu/member/?member_id=dhh9LBqb7rZI6fp14sEcZA%3D%3D
p1886
aVhttps://nam.edu/member/?member_id=dtLY5%2F6udbLIHcDhl7Jhrg%3D%3D
p1887
aVhttps://nam.edu/member/?member_id=a3%2BKtz60BJx61iVb6kCM%2BQ%3D%3D
p1888
aVhttps://nam.edu/member/?member_id=vCHCkxMsRiPxP3FOJTD5oQ%3D%3D
p1889
aVhttps://nam.edu/member/?member_id=sNsUoiJmZ0kj0oFtn63fAQ%3D%3D
p1890
aVhttps://nam.edu/member/?member_id=UYPPBE6zAIkbyPioK%2BrN5w%3D%3D
p1891
aVhttps://nam.edu/member/?member_id=gdKtnQOUeJxFXDhoAwJGwQ%3D%3D
p1892
aVhttps://nam.edu/member/?member_id=80c6HqxB5sk3TRzjJTkqnQ%3D%3D
p1893
aVhttps://nam.edu/member/?member_id=LKQYnUbPyOkU6gTpnKEbFA%3D%3D
p1894
aVhttps://nam.edu/member/?member_id=em6gX83Adm62xk4aoBHF2w%3D%3D
p1895
aVhttps://nam.edu/member/?member_id=M5YTBcF9meHyGGzhapP8tg%3D%3D
p1896
aVhttps://nam.edu/member/?member_id=DyUbhNi8A79x%2BAMaEJElKg%3D%3D
p1897
aVhttps://nam.edu/member/?member_id=eATa9NriUhu0KaTgrx1RVQ%3D%3D
p1898
aVhttps://nam.edu/member/?member_id=RBBTBBNckeT3E51c5jPdJA%3D%3D
p1899
aVhttps://nam.edu/member/?member_id=%2F%2B08BTTFhR01E30%2F7jVnMg%3D%3D
p1900
aVhttps://nam.edu/member/?member_id=aWfnARkPm9q7IDAFZScXPA%3D%3D
p1901
aVhttps://nam.edu/member/?member_id=uSn2vALr5hOZXG7LXqlS7g%3D%3D
p1902
aVhttps://nam.edu/member/?member_id=WHsSTIBEnZEWz1t1QSPMog%3D%3D
p1903
aVhttps://nam.edu/member/?member_id=YF8Ex8wYUzCzk9yqhk4HxA%3D%3D
p1904
aVhttps://nam.edu/member/?member_id=qWiSbmuQFkJbmxh3M9FadQ%3D%3D
p1905
aVhttps://nam.edu/member/?member_id=LF8sNVK2Q2s%2BJJTnTx3IYQ%3D%3D
p1906
aVhttps://nam.edu/member/?member_id=9t8oAL%2FIdU5xnXbpoOWogg%3D%3D
p1907
aVhttps://nam.edu/member/?member_id=N%2FKJoX2KZO9x2MniMo0Vaw%3D%3D
p1908
aVhttps://nam.edu/member/?member_id=%2FSrhJDrHD3Z5atskvwe4Cg%3D%3D
p1909
aVhttps://nam.edu/member/?member_id=Vj6td7UQXzs9qpaGNqPMqQ%3D%3D
p1910
aVhttps://nam.edu/member/?member_id=gQ2REuhILhu4%2FPmNbot0xg%3D%3D
p1911
aVhttps://nam.edu/member/?member_id=QRSAw4l7LV9QQJ8iwCJuZA%3D%3D
p1912
aVhttps://nam.edu/member/?member_id=q1CzQwR4KW0U6KWwclJOpA%3D%3D
p1913
aVhttps://nam.edu/member/?member_id=PzNk%2Bku%2BVNudf8hELpJhFg%3D%3D
p1914
aVhttps://nam.edu/member/?member_id=xHn8sSbJZBJs2gVy3V3p6Q%3D%3D
p1915
aVhttps://nam.edu/member/?member_id=2we9t%2F2gqptYcSfKxJstYQ%3D%3D
p1916
aVhttps://nam.edu/member/?member_id=KjUu2XNhhVYTkFD55j33jQ%3D%3D
p1917
aVhttps://nam.edu/member/?member_id=1YQq6CVHw65ZNqqpUE9zmA%3D%3D
p1918
aVhttps://nam.edu/member/?member_id=U5dOz5aqhlXO2vvbJ8t%2BaQ%3D%3D
p1919
aVhttps://nam.edu/member/?member_id=eePJwwlQuuVwSyiyRczVOg%3D%3D
p1920
aVhttps://nam.edu/member/?member_id=gRV83goqCHFbctjto%2BrExg%3D%3D
p1921
aVhttps://nam.edu/member/?member_id=BM4g%2FQg94y4aKUPYywIh4A%3D%3D
p1922
aVhttps://nam.edu/member/?member_id=AHf44L36RAqlPUe20E%2BBOg%3D%3D
p1923
aVhttps://nam.edu/member/?member_id=rzsIP1w%2FgeLWk6yLaiSrbg%3D%3D
p1924
aVhttps://nam.edu/member/?member_id=m%2Bu6Ru7Cn0OkTMf1UHwzng%3D%3D
p1925
aVhttps://nam.edu/member/?member_id=PHqKQQ1xOXkr7q86V8ID1g%3D%3D
p1926
aVhttps://nam.edu/member/?member_id=1C62Pn%2BY1A%2FouwDW60grKg%3D%3D
p1927
aVhttps://nam.edu/member/?member_id=AtfHkNK4qQBcvSgEGB0Fog%3D%3D
p1928
aVhttps://nam.edu/member/?member_id=mkSNEVevDA2iTfL%2Fi6F7Gg%3D%3D
p1929
aVhttps://nam.edu/member/?member_id=zERHGsA5u41XpjMqMPNMnw%3D%3D
p1930
aVhttps://nam.edu/member/?member_id=Kody%2FRQRJ9M6uyHBHc1a0g%3D%3D
p1931
aVhttps://nam.edu/member/?member_id=lNFQt0aIe%2FjSIf8TTU68sQ%3D%3D
p1932
aVhttps://nam.edu/member/?member_id=TFIxW1p8qyuw1Pp6sY5Asg%3D%3D
p1933
aVhttps://nam.edu/member/?member_id=d6MGcbf%2BWemdsPOXi8QxGA%3D%3D
p1934
aVhttps://nam.edu/member/?member_id=QXIbcwT4gkN5s35oIb2aUg%3D%3D
p1935
aVhttps://nam.edu/member/?member_id=E9KAPgBRS7tD0QoQQIrHeg%3D%3D
p1936
aVhttps://nam.edu/member/?member_id=nKK%2Bce6RgInTn6CyA12W4A%3D%3D
p1937
aVhttps://nam.edu/member/?member_id=DzItz2ZYsr8kF4e6AJ7f9g%3D%3D
p1938
aVhttps://nam.edu/member/?member_id=ymQwOaL5I9rTwqG%2BGB9rvA%3D%3D
p1939
aVhttps://nam.edu/member/?member_id=oxFowSJlHc1xv%2B%2BDj7yjdQ%3D%3D
p1940
aVhttps://nam.edu/member/?member_id=SEKRIzmfTyuGfjDhHPSG8w%3D%3D
p1941
aVhttps://nam.edu/member/?member_id=1TohMPEGE%2FBY0St5iDIUGw%3D%3D
p1942
aVhttps://nam.edu/member/?member_id=vHHwT%2FL%2BhinjRc%2FP0f1%2FTg%3D%3D
p1943
aVhttps://nam.edu/member/?member_id=EJqDfx4NCH%2FONFhd2W6bkw%3D%3D
p1944
aVhttps://nam.edu/member/?member_id=gIZF%2Fw8HzNNilqq2z%2FuCRA%3D%3D
p1945
aVhttps://nam.edu/member/?member_id=iz8zOLOGa1LHRN0XzzRC1A%3D%3D
p1946
aVhttps://nam.edu/member/?member_id=UAEljocX2Jp85Qvo1y%2FMpw%3D%3D
p1947
aVhttps://nam.edu/member/?member_id=4n3ERNKy1RVpsOQSfMUBJQ%3D%3D
p1948
aVhttps://nam.edu/member/?member_id=5cL7pyVKNz6bF44nYck8NA%3D%3D
p1949
aVhttps://nam.edu/member/?member_id=VabdJNGIUh0Rp1eDe%2F%2FO8A%3D%3D
p1950
aVhttps://nam.edu/member/?member_id=UlRF6iiv494HPG%2FN0D4%2BRg%3D%3D
p1951
aVhttps://nam.edu/member/?member_id=u0R8ZcJltnssvyna0GojWA%3D%3D
p1952
aVhttps://nam.edu/member/?member_id=FOMHeogG51VQPdmWS%2Fuc%2Fw%3D%3D
p1953
aVhttps://nam.edu/member/?member_id=4koYTSz0SPauiDVAUIVZSg%3D%3D
p1954
aVhttps://nam.edu/member/?member_id=hoF%2FZa7f%2BqFWJOmZvR2GmA%3D%3D
p1955
aVhttps://nam.edu/member/?member_id=upG9FEeU70wJq%2FoSlc9XkA%3D%3D
p1956
aVhttps://nam.edu/member/?member_id=zIzkUxI0b3O9h0hDNmaWOQ%3D%3D
p1957
aVhttps://nam.edu/member/?member_id=A0AWCqhzdcOxluvgEGN70Q%3D%3D
p1958
aVhttps://nam.edu/member/?member_id=O4tqtBmclPsm0mm0T0u6NA%3D%3D
p1959
aVhttps://nam.edu/member/?member_id=nQz%2Fjgva%2BVHSGAjmf%2BdGYA%3D%3D
p1960
aVhttps://nam.edu/member/?member_id=CwVTl%2B8RcZiM%2BRMO4Fh7Nw%3D%3D
p1961
aVhttps://nam.edu/member/?member_id=VIHYBnNU1%2FPCvb4lERtcEQ%3D%3D
p1962
aVhttps://nam.edu/member/?member_id=kbMq7jEyurj6KNbzqNbPTg%3D%3D
p1963
aVhttps://nam.edu/member/?member_id=9SO5xroQdq3Lsi6ylh58pA%3D%3D
p1964
aVhttps://nam.edu/member/?member_id=MYzLDuQrq0Bf8MwsmcbEcg%3D%3D
p1965
aVhttps://nam.edu/member/?member_id=Q%2BOzogTsZgH6%2FjXm8xELNg%3D%3D
p1966
aVhttps://nam.edu/member/?member_id=uop0PZqM8fQSdAoU9T%2BPQA%3D%3D
p1967
aVhttps://nam.edu/member/?member_id=h0knWpCTAxpLCHhgROZAjQ%3D%3D
p1968
aVhttps://nam.edu/member/?member_id=wFqyQDOhu9lCc2fQ9cJq7g%3D%3D
p1969
aVhttps://nam.edu/member/?member_id=RvHwsGCJu81DFSYdxve%2B9w%3D%3D
p1970
aVhttps://nam.edu/member/?member_id=GuUUjal8ttNVArDQacAHVQ%3D%3D
p1971
aVhttps://nam.edu/member/?member_id=kEVANnkiLw2HrvfT9MyzDg%3D%3D
p1972
aVhttps://nam.edu/member/?member_id=ZIMtra1m7LW%2B6cSujiBCcg%3D%3D
p1973
aVhttps://nam.edu/member/?member_id=HiVY%2F0Uokc2PqebNeOcwpA%3D%3D
p1974
aVhttps://nam.edu/member/?member_id=KMs7oAX%2FJ1hKKwX78mMG4g%3D%3D
p1975
aVhttps://nam.edu/member/?member_id=ppCA7SUgetnDecOoJqyfTA%3D%3D
p1976
aVhttps://nam.edu/member/?member_id=pGKmfrsN9OFsn0BqifqE0A%3D%3D
p1977
aVhttps://nam.edu/member/?member_id=ERyWpAa2CVLQeqpqYSRK1w%3D%3D
p1978
aVhttps://nam.edu/member/?member_id=BLt1yfVN%2FmHP91nmUKZ7kQ%3D%3D
p1979
aVhttps://nam.edu/member/?member_id=tE68pdee5COs1fTxS6QcbA%3D%3D
p1980
aVhttps://nam.edu/member/?member_id=YcXYrfF1joLC6Ny7dV789w%3D%3D
p1981
aVhttps://nam.edu/member/?member_id=neLetvpSl6J9QtMKlDB2dg%3D%3D
p1982
aVhttps://nam.edu/member/?member_id=BTObNoqd66nd7%2FCzrUtqjA%3D%3D
p1983
aVhttps://nam.edu/member/?member_id=wvZGJuiMxBxLvd5lqAZEZQ%3D%3D
p1984
aVhttps://nam.edu/member/?member_id=4mAqPJY4Pl%2BvcKyfqIa6dw%3D%3D
p1985
aVhttps://nam.edu/member/?member_id=IEEQRt8h9z6Jw90NVgKZpw%3D%3D
p1986
aVhttps://nam.edu/member/?member_id=3%2B%2Fdj6UgBHmp5R8MZx8dPQ%3D%3D
p1987
aVhttps://nam.edu/member/?member_id=Cd6gd82MlZ%2BoRP8SYYslZw%3D%3D
p1988
aVhttps://nam.edu/member/?member_id=2zM8rS2zel11iYOuT0ZlXA%3D%3D
p1989
aVhttps://nam.edu/member/?member_id=zs1WFZ1946%2FiOH3aJ63rMw%3D%3D
p1990
aVhttps://nam.edu/member/?member_id=nhYDMgF38vDMbRvI78VHYQ%3D%3D
p1991
aVhttps://nam.edu/member/?member_id=N62TsK82YVC%2FT8GntrPMFg%3D%3D
p1992
aVhttps://nam.edu/member/?member_id=shVYlDakESzi7UrNbvvtLg%3D%3D
p1993
aVhttps://nam.edu/member/?member_id=oDP3aWdX15RUwjNuR3CRVg%3D%3D
p1994
aVhttps://nam.edu/member/?member_id=XkiCV83fLw8xbThNeHGjjg%3D%3D
p1995
aVhttps://nam.edu/member/?member_id=QER74t3bXQv%2BxMB9nIW9kA%3D%3D
p1996
aVhttps://nam.edu/member/?member_id=syQqIIL73m%2Fb7f%2BGb6lFAg%3D%3D
p1997
aVhttps://nam.edu/member/?member_id=WYGU5chwzuuIGcddfoSMug%3D%3D
p1998
aVhttps://nam.edu/member/?member_id=mXW6wveTQO0e%2FPck6dmK3Q%3D%3D
p1999
aVhttps://nam.edu/member/?member_id=b%2BFxxWMmFo0FvXIQBMyHdA%3D%3D
p2000
aVhttps://nam.edu/member/?member_id=wCdYOJJhqnmTwk9AvZPFsw%3D%3D
p2001
aVhttps://nam.edu/member/?member_id=33DPIAwqBhBnZTMcafJwEg%3D%3D
p2002
aVhttps://nam.edu/member/?member_id=f0Yc1B71RUtHfFLHujRZlg%3D%3D
p2003
aVhttps://nam.edu/member/?member_id=VB6lcEEiSgcVJvqovrGr7w%3D%3D
p2004
aVhttps://nam.edu/member/?member_id=qoOkJSuKPdK%2BDP17P5ID1g%3D%3D
p2005
aVhttps://nam.edu/member/?member_id=4sETI8TKKhjqoKVF4U%2FTpA%3D%3D
p2006
aVhttps://nam.edu/member/?member_id=CwrIODZau%2FPYFoCm%2FKwdBw%3D%3D
p2007
aVhttps://nam.edu/member/?member_id=Fdqtzhb57WIfNZo0rZHfKQ%3D%3D
p2008
aVhttps://nam.edu/member/?member_id=k18WK0cXpxBaqWERgX82EQ%3D%3D
p2009
aVhttps://nam.edu/member/?member_id=IP8s3LHBhFsFSrrm0g%2FDrQ%3D%3D
p2010
aVhttps://nam.edu/member/?member_id=3os9qRewqJZjAD83GYy42g%3D%3D
p2011
aVhttps://nam.edu/member/?member_id=P%2FjoVBO4N8xCR8mpc6j%2F%2FQ%3D%3D
p2012
aVhttps://nam.edu/member/?member_id=kSCdB1EAepKydKwKXJhBqA%3D%3D
p2013
aVhttps://nam.edu/member/?member_id=MuxvUrt1sxz08LpW%2BqVIhQ%3D%3D
p2014
aVhttps://nam.edu/member/?member_id=JpU3eyv6W9pwURGK3tDp%2FA%3D%3D
p2015
aVhttps://nam.edu/member/?member_id=JbRYl9bkhvl7g1i7fnQu9Q%3D%3D
p2016
aVhttps://nam.edu/member/?member_id=L1VBYOcbEwq1ScYMTFZcDw%3D%3D
p2017
aVhttps://nam.edu/member/?member_id=iL75SvU4r9RvHwAR9d7K1w%3D%3D
p2018
aVhttps://nam.edu/member/?member_id=hnxvzAcEZln8jjGtiUlTVw%3D%3D
p2019
aVhttps://nam.edu/member/?member_id=T7RBNAm%2B2LUUDQWrxdnpTw%3D%3D
p2020
aVhttps://nam.edu/member/?member_id=FQ71MzCBn8RgB2gobz%2FOsQ%3D%3D
p2021
aVhttps://nam.edu/member/?member_id=FWNqzj0rrLz%2B8K5lEl10Lw%3D%3D
p2022
aVhttps://nam.edu/member/?member_id=DwTNqJnJ1ZZtOWkL0D1unA%3D%3D
p2023
aVhttps://nam.edu/member/?member_id=m%2F0X3hJt5os1LDI8DabLug%3D%3D
p2024
aVhttps://nam.edu/member/?member_id=rOAYfY1IR0KAsrtiEC5FNQ%3D%3D
p2025
aVhttps://nam.edu/member/?member_id=rsUxAdasvPM1CilXoT0Ecg%3D%3D
p2026
aVhttps://nam.edu/member/?member_id=bKAB9NWb0YsOwN6iKAn1Zg%3D%3D
p2027
aVhttps://nam.edu/member/?member_id=eovj%2B3NHl%2FmHVHKQfHqmJw%3D%3D
p2028
aVhttps://nam.edu/member/?member_id=EhBU8A9shKCPD70x7SioOw%3D%3D
p2029
aVhttps://nam.edu/member/?member_id=t%2F993pY9CpflqxuAG%2BZRbA%3D%3D
p2030
aVhttps://nam.edu/member/?member_id=94yCbZbmIzsNY2XJ4vPnPw%3D%3D
p2031
aVhttps://nam.edu/member/?member_id=VOsxPtP4z7UTBBKbB7a3Sw%3D%3D
p2032
aVhttps://nam.edu/member/?member_id=qVVniTrVHAL0o5eHxS5lig%3D%3D
p2033
aVhttps://nam.edu/member/?member_id=mBb8x1p9nYWs0spTBNBLVg%3D%3D
p2034
aVhttps://nam.edu/member/?member_id=Su5bv4Oe430r4suAS7tSLg%3D%3D
p2035
aVhttps://nam.edu/member/?member_id=%2F9zuB93doerNPUWsa901MA%3D%3D
p2036
aVhttps://nam.edu/member/?member_id=O3fEhPXIhH3jSlEBtotxxw%3D%3D
p2037
aVhttps://nam.edu/member/?member_id=pQcVswotk95M2XEqKRYV5w%3D%3D
p2038
aVhttps://nam.edu/member/?member_id=3wEF%2BEYD7J7b6OsloRMe7g%3D%3D
p2039
aVhttps://nam.edu/member/?member_id=QSTiCleXMI2PGQOAnA%2FsRw%3D%3D
p2040
aVhttps://nam.edu/member/?member_id=YXVDEd8BMH2RFJbF5GoXQg%3D%3D
p2041
aVhttps://nam.edu/member/?member_id=W7yeWuLbHI1tZyYsUOrz1Q%3D%3D
p2042
aVhttps://nam.edu/member/?member_id=ZA%2Fvhi38ShFRz%2FNQDk19hw%3D%3D
p2043
aVhttps://nam.edu/member/?member_id=3uGN351YF4r6lYog6foxXQ%3D%3D
p2044
aVhttps://nam.edu/member/?member_id=ecTqIzK8VI1AIZ6%2BTwfgCw%3D%3D
p2045
aVhttps://nam.edu/member/?member_id=MxjB0%2BbM2bFP8VIMhKZWUg%3D%3D
p2046
aVhttps://nam.edu/member/?member_id=Wq5B3VWnbEBDUUqPYC9fdA%3D%3D
p2047
aVhttps://nam.edu/member/?member_id=PJdHgQ7DwDG3xV7wrJsHDg%3D%3D
p2048
aVhttps://nam.edu/member/?member_id=PxhfTtA9bUs4%2Ft5ckQzHxg%3D%3D
p2049
aVhttps://nam.edu/member/?member_id=RvAYj8Baa0QSjFsi%2BJHFCg%3D%3D
p2050
aVhttps://nam.edu/member/?member_id=Eb0klMZ8fjSeH6SBfkgR9Q%3D%3D
p2051
aVhttps://nam.edu/member/?member_id=skQFHoXdbjO%2FgX3VNwgiag%3D%3D
p2052
aVhttps://nam.edu/member/?member_id=0jg7I%2BV5FUjVU6I2OEoL8g%3D%3D
p2053
aVhttps://nam.edu/member/?member_id=QJywB6rRaZL%2FeSeA5ZxGew%3D%3D
p2054
aVhttps://nam.edu/member/?member_id=4E8V94Pp5vEoVL1Ab0IDgQ%3D%3D
p2055
aVhttps://nam.edu/member/?member_id=cq%2B3nY%2BiZSugpomPt0cuAA%3D%3D
p2056
aVhttps://nam.edu/member/?member_id=1MTsoC0X%2FBItBSkx9DV67g%3D%3D
p2057
aVhttps://nam.edu/member/?member_id=ztydYOhjUMMURh0r5uofMQ%3D%3D
p2058
aVhttps://nam.edu/member/?member_id=7OwAlZLtlDNp2%2Fnb1cllBg%3D%3D
p2059
aVhttps://nam.edu/member/?member_id=TBfgkw%2Fjawh8Jt04R3pXyg%3D%3D
p2060
aVhttps://nam.edu/member/?member_id=p4eJriDqACI3FJ1juG9RGg%3D%3D
p2061
aVhttps://nam.edu/member/?member_id=spH3Alxle8dLnBCF3f6IZA%3D%3D
p2062
aVhttps://nam.edu/member/?member_id=sD2OEXgLl0MULorCo75gcA%3D%3D
p2063
aVhttps://nam.edu/member/?member_id=a7HWyKGz4bWex2aprN7yvQ%3D%3D
p2064
aVhttps://nam.edu/member/?member_id=KynNdEoJ2LS9jzBen0n7hA%3D%3D
p2065
aVhttps://nam.edu/member/?member_id=0KTfvcNHhqMNY5ifTYeMDA%3D%3D
p2066
aVhttps://nam.edu/member/?member_id=gS3u%2FRBs%2FppU76dBUowGrg%3D%3D
p2067
aVhttps://nam.edu/member/?member_id=rDM2Q4G51RqpmALHWpXN0Q%3D%3D
p2068
aVhttps://nam.edu/member/?member_id=%2Fat%2FL9c6%2FczpVLJGU8QDRA%3D%3D
p2069
aVhttps://nam.edu/member/?member_id=aZbfapJDFmmrvnFdUqCVqQ%3D%3D
p2070
aVhttps://nam.edu/member/?member_id=xWNs7uedpGsSSsAtlfQhyA%3D%3D
p2071
aVhttps://nam.edu/member/?member_id=SThbIzPmFLaX1M72%2FUQLKg%3D%3D
p2072
aVhttps://nam.edu/member/?member_id=wI3vpkFw1So2KqFXqMe5dQ%3D%3D
p2073
aVhttps://nam.edu/member/?member_id=0L11Ai9uhxLa%2B0otnL2pow%3D%3D
p2074
aVhttps://nam.edu/member/?member_id=asoKQq5AuNl1n8hSvO%2FN4w%3D%3D
p2075
aVhttps://nam.edu/member/?member_id=%2BYcvyFGhvzEwfIvZvgDmRw%3D%3D
p2076
aVhttps://nam.edu/member/?member_id=meZPR4Un%2BuPw9cNMl%2FuRaA%3D%3D
p2077
aVhttps://nam.edu/member/?member_id=DS2kDhjndrPfdkEavu43nw%3D%3D
p2078
aVhttps://nam.edu/member/?member_id=gTM%2Fo7V2ogTos3pziOZCDg%3D%3D
p2079
aVhttps://nam.edu/member/?member_id=HryOB%2Bi%2BMQvTUnlZXKR%2Bng%3D%3D
p2080
aVhttps://nam.edu/member/?member_id=vQ7%2FCLyFE1vjwVvlEf2BaQ%3D%3D
p2081
aVhttps://nam.edu/member/?member_id=I%2BleqlogdCZA%2BLuGO91xFg%3D%3D
p2082
aVhttps://nam.edu/member/?member_id=AobisojT1vfbnnJ6dJO2YA%3D%3D
p2083
aVhttps://nam.edu/member/?member_id=gc3d9TN6wrKo%2BhTRQvuSHw%3D%3D
p2084
aVhttps://nam.edu/member/?member_id=ErFsfgL8v4L3VK%2FPixPmBQ%3D%3D
p2085
aVhttps://nam.edu/member/?member_id=nl3lppDGBNg6EWfkbl6iZw%3D%3D
p2086
aVhttps://nam.edu/member/?member_id=pP4DtzxgADpZvtr2PqpygQ%3D%3D
p2087
aVhttps://nam.edu/member/?member_id=dC%2F7GbmSUVKrb3j8IThdsg%3D%3D
p2088
aVhttps://nam.edu/member/?member_id=DptSCLJ%2BFKftsbK3E6YVYg%3D%3D
p2089
aVhttps://nam.edu/member/?member_id=v2k809xUNT5UbSv0U4jlbw%3D%3D
p2090
aVhttps://nam.edu/member/?member_id=60DyN8qBu8azk9pkDbapDw%3D%3D
p2091
aVhttps://nam.edu/member/?member_id=dREj%2BCwaCgEs6SISEAExXA%3D%3D
p2092
aVhttps://nam.edu/member/?member_id=psUEWgzULvDqeRFr98pKxA%3D%3D
p2093
aVhttps://nam.edu/member/?member_id=cWxPnn4CMMihCLlGB8M48Q%3D%3D
p2094
aVhttps://nam.edu/member/?member_id=huI9NOnnytKkOrHRKyAuiQ%3D%3D
p2095
aVhttps://nam.edu/member/?member_id=EiQS1x96fCcZUbWHiMkVRw%3D%3D
p2096
aVhttps://nam.edu/member/?member_id=3l6UhSw9AxO4L%2FaY4Bvr3A%3D%3D
p2097
aVhttps://nam.edu/member/?member_id=60qxhCgvwtnB%2FFcsExv%2Bvw%3D%3D
p2098
aVhttps://nam.edu/member/?member_id=xbPkOXOpHO52PdzKj8C9LQ%3D%3D
p2099
aVhttps://nam.edu/member/?member_id=GD3zK4e6FuH9SZwODxY8Jg%3D%3D
p2100
aVhttps://nam.edu/member/?member_id=6eI1eul10CX7EbEoAa9mgA%3D%3D
p2101
aVhttps://nam.edu/member/?member_id=HtB3WKyGul2%2BKV7oywFtQQ%3D%3D
p2102
aVhttps://nam.edu/member/?member_id=WGrs9axSNZTPMFgJ1waMaA%3D%3D
p2103
aVhttps://nam.edu/member/?member_id=K5eQ6S5DK7UrbVDIbXg74A%3D%3D
p2104
aVhttps://nam.edu/member/?member_id=iUHH5xCFYGcnoiZw3PIjKw%3D%3D
p2105
aVhttps://nam.edu/member/?member_id=QnM47zbK1Av%2FEkwfpjntGQ%3D%3D
p2106
aVhttps://nam.edu/member/?member_id=xJLlrZLcgLXTp9AJe45WTA%3D%3D
p2107
aVhttps://nam.edu/member/?member_id=fzx8Bsig5DIPT%2BCQOXdhRA%3D%3D
p2108
aVhttps://nam.edu/member/?member_id=NLfCFIoIpSGGSHpC2OZsKg%3D%3D
p2109
aVhttps://nam.edu/member/?member_id=qL6%2Fy0yCQ4w7lQpDg6p6sg%3D%3D
p2110
a.