(lp0
S'/fellowship/fellows/professor-alan-andersen'
p1
aS'/fellowship/fellows/professor-anne-kelso'
p2
aS'/fellowship/fellows/professor-bostjan-kobe'
p3
aS'/fellowship/fellows/professor-christopher-dickman'
p4
aS'/fellowship/fellows/professor-colin-raston'
p5
aS'/fellowship/fellows/professor-dacheng-tao'
p6
aS'/fellowship/fellows/emeritus-professor-david-blair'
p7
aS'/fellowship/fellows/professor-david-bowtell'
p8
aS'/fellowship/fellows/professor-geordie-williamson'
p9
aS'/fellowship/fellows/professor-gregory-goodall'
p10
aS'/fellowship/fellows/professor-jennie-brand-miller'
p11
aS'/fellowship/fellows/professor-joseph-trapani'
p12
aS'/fellowship/fellows/professor-kerrie-mengersen'
p13
aS'/fellowship/fellows/professor-kliti-grice'
p14
aS'/fellowship/fellows/professor-lloyd-hollenberg'
p15
aS'/fellowship/fellows/professor-martina-stenzel'
p16
aS'/fellowship/fellows/professor-noel-cressie'
p17
aS'/fellowship/fellows/professor-peter-cawood'
p18
aS'/fellowship/fellows/professor-rachel-webster'
p19
aS'/fellowship/fellows/professor-richard-bryant'
p20
aS'/fellowship/fellows/professor-veena-sahajwalla'
p21
aS'/fellowship/fellows/dr-anita-hill'
p22
aS'/fellowship/fellows/professor-branka-vucetic'
p23
aS'/fellowship/fellows/professor-cameron-jones'
p24
aS'/fellowship/fellows/professor-david-gardner'
p25
aS'/fellowship/fellows/professor-dietmar-muller'
p26
aS'/fellowship/fellows/dr-evans-lagudah'
p27
aS'/fellowship/fellows/professor-ian-chubb'
p28
aS'/fellowship/fellows/professor-igor-bray'
p29
aS'/fellowship/fellows/associate-professor-jane-elith'
p30
aS'/fellowship/fellows/professor-jennifer-martin'
p31
aS'/fellowship/fellows/professor-john-patrick'
p32
aS'/fellowship/fellows/dr-john-volkman'
p33
aS'/fellowship/fellows/professor-jozef-gecz'
p34
aS'/fellowship/fellows/professor-karl-glazebrook'
p35
aS'/fellowship/fellows/professor-lois-salamonsen'
p36
aS'/fellowship/fellows/professor-mark-smyth'
p37
aS'/fellowship/fellows/professor-melissa-little'
p38
aS'/fellowship/fellows/professor-nicholas-wormald'
p39
aS'/fellowship/fellows/professor-philip-hugenholtz'
p40
aS'/fellowship/fellows/professor-tim-ralph'
p41
aS'/fellowship/fellows/professor-tom-davis'
p42
aS'/fellowship/fellows/dr-alan-simon-finkel'
p43
aS'/fellowship/fellows/professor-alexander-broadfoot-mcbratney'
p44
aS'/fellowship/fellows/dr-anna-mg-koltunow'
p45
aS'/fellowship/fellows/professor-benjamin-john-eggleton'
p46
aS'/fellowship/fellows/dr-daniela-stock'
p47
aS'/fellowship/fellows/professor-david-roy-bellwood'
p48
aS'/fellowship/fellows/professor-fedor-sukochev'
p49
aS'/fellowship/fellows/professor-geoffrey-bruce-fincher'
p50
aS'/fellowship/fellows/professor-geoffrey-john-lindeman'
p51
aS'/fellowship/fellows/professor-halina-rubinsztein-dunlop'
p52
aS'/fellowship/fellows/dr-ian-frederick-allison'
p53
aS'/fellowship/fellows/dr-john-allen-kirkegaard'
p54
aS'/fellowship/fellows/professor-justin-gooding'
p55
aS'/fellowship/fellows/professor-naomi-ruth-wray'
p56
aS'/fellowship/fellows/professor-neville-nicholls'
p57
aS'/fellowship/fellows/professor-patrick-mcgorry'
p58
aS'/fellowship/fellows/professor-sarah-anne-robertson'
p59
aS'/fellowship/fellows/professor-simon-foote'
p60
aS'/fellowship/fellows/professor-stephen-l-nutt'
p61
aS'/fellowship/fellows/professor-susan-scott'
p62
aS'/fellowship/fellows/professor-toby-walsh'
p63
aS'/fellowship/fellows/professor-carola-vinuesa'
p64
aS'/fellowship/fellows/professor-christine-charles'
p65
aS'/fellowship/fellows/professor-christine-anne-beveridge'
p66
aS'/fellowship/fellows/professor-edward-charles-holmes'
p67
aS'/fellowship/fellows/professor-geoffrey-john-mclachlan'
p68
aS'/fellowship/fellows/professor-helene-denise-marsh'
p69
aS'/fellowship/fellows/professor-ian-david-small'
p70
aS'/fellowship/fellows/professor-jenefer-mary-blackwell'
p71
aS'/fellowship/fellows/professor-julian-david-gale'
p72
aS'/fellowship/fellows/professor-linda-jane-richards'
p73
aS'/fellowship/fellows/professor-malcolm-scott-sambridge'
p74
aS'/fellowship/fellows/professor-maria-forsyth'
p75
aS'/fellowship/fellows/professor-martin-asplund'
p76
aS'/fellowship/fellows/professor-michael-john-mclaughlin'
p77
aS'/fellowship/fellows/professor-michael-john-waters'
p78
aS'/fellowship/fellows/professor-peter-leslie-bartlett'
p79
aS'/fellowship/fellows/professor-san-hoa-thang'
p80
aS'/fellowship/fellows/professor-susan-joy-clark'
p81
aS'/fellowship/fellows/professor-wendy-elizabeth-hoy'
p82
aS'/fellowship/fellows/professor-william-frederick-laurance'
p83
aS'/fellowship/fellows/dr-zygmunt-edward-switkowski'
p84
aS'/professor-alan-lawrence-carey'
p85
aS'/fellowship/fellows/professor-angel-francisco-lopez'
p86
aS'/fellowship/fellows/professor-barbara-jane-howlett'
p87
aS'/fellowship/fellows/ms-catherine-brighid-livingstone'
p88
aS'/fellowship/fellows/professor-craig-charles-moritz'
p89
aS'/fellowship/fellows/dr-elizabeth-jean-finnegan'
p90
aS'/fellowship/fellows/professor-george-alver-willis'
p91
aS'/fellowship/fellows/professor-georgia-chenevix-trench'
p92
aS'/fellowship/fellows/professor-hanna-maaria-kokko'
p93
aS'/fellowship/fellows/emeritus-professor-hans-albert-bachor'
p94
aS'/fellowship/fellows/professor-ingrid-eileen-scheffer'
p95
aS'/fellowship/fellows/professor-ivan-marusic'
p96
aS'/fellowship/fellows/professor-jamie-rossjohn'
p97
aS'/fellowship/fellows/professor-john-lincoln-bowman'
p98
aS'/fellowship/fellows/professor-john-oliver-miners'
p99
aS'/fellowship/fellows/professor-lisa-jennifer-kewley'
p100
aS'/fellowship/fellows/professor-margaret-daphne-reid'
p101
aS'/fellowship/fellows/professor-matthew-england'
p102
aS'/fellowship/fellows/professor-michelle-louise-coote'
p103
aS'/fellowship/fellows/professor-peter-gill'
p104
aS'/fellowship/fellows/professor-rose-amal'
p105
aS'/fellowship/fellows/professor-andrew-white'
p106
aS'/fellowship/fellows/professor-andrew-hassell'
p107
aS'/fellowship/fellows/professor-benjamin-andrews'
p108
aS'/fellowship/fellows/professor-boris-martinac'
p109
aS'/fellowship/fellows/dr-brian-walker'
p110
aS'/fellowship/fellows/professor-bryan-williams'
p111
aS'/fellowship/fellows/professor-bryan-gaensler'
p112
aS'/fellowship/fellows/professor-david-craik'
p113
aS'/fellowship/fellows/professor-david-day'
p114
aS'/fellowship/fellows/professor-geoffrey-taylor'
p115
aS'/fellowship/fellows/professor-ian-jackson'
p116
aS'/fellowship/fellows/professor-james-paton'
p117
aS'/fellowship/fellows/professor-john-evans'
p118
aS'/fellowship/fellows/professor-matthew-brown'
p119
aS'/fellowship/fellows/professor-max-lu'
p120
aS'/fellowship/fellows/professor-michael-sandiford'
p121
aS'/fellowship/fellows/professor-ove-hoegh-guldberg'
p122
aS'/fellowship/fellows/dr-richard-richards'
p123
aS'/fellowship/fellows/professor-sharad-kumar'
p124
aS'/fellowship/fellows/professor-yuri-estrin'
p125
aS'/fellowship/fellows/professor-frances-separovic'
p126
aS'/fellowship/fellows/dr-graeme-moad'
p127
aS'/fellowship/fellows/professor-greg-john-stuart'
p128
aS'/fellowship/fellows/professor-james-mccluskey'
p129
aS'/fellowship/fellows/professor-jane-visvader'
p130
aS'/fellowship/fellows/professor-johannes-hans-lambers'
p131
aS'/fellowship/fellows/dr-john-church'
p132
aS'/fellowship/fellows/professor-john-arthur-endler'
p133
aS'/fellowship/fellows/professor-john-edward-norris'
p134
aS'/fellowship/fellows/professor-joss-bland-hawthorn'
p135
aS'/fellowship/fellows/professor-louise-marie-ryan'
p136
aS'/professor-michael-alpers'
p137
aS'/fellowship/fellows/winthrop-professor-michael-edmund-tobar'
p138
aS'/fellowship/fellows/professor-patrick-de-deckker'
p139
aS'/fellowship/fellows/professor-paul-leslie-burn'
p140
aS'/fellowship/fellows/dr-peter-dodds'
p141
aS'/fellowship/fellows/professor-robert-charles-williamson'
p142
aS'/fellowship/fellows/professor-stephen-bruce-powles'
p143
aS'/fellowship/fellows/professor-stephen-william-macmahon'
p144
aS'/fellowship/fellows/professor-tanya-mary-monro'
p145
aS'/fellowship/fellows/professor-timothy-fritjof-flannery'
p146
aS'/fellowship/fellows/professor-aibing-yu'
p147
aS'/fellowship/fellows/professor-david-black'
p148
aS'/fellowship/fellows/professor-emma-whitelaw'
p149
aS'/fellowship/fellows/dr-george-williams'
p150
aS'/fellowship/fellows/professor-ian-petersen'
p151
aS'/professor-john-aitken'
p152
aS'/fellowship/fellows/professor-joseph-monaghan'
p153
aS'/fellowship/fellows/professor-mahananda-dasgupta'
p154
aS'/professor-marilyn-anderson'
p155
aS'/fellowship/fellows/professor-mark-blows'
p156
aS'/fellowship/fellows/professor-mathai-varghese'
p157
aS'/fellowship/fellows/professor-michael-goddard'
p158
aS'/fellowship/fellows/professor-ross-campbell-mcphedran'
p159
aS'/fellowship/fellows/professor-staffan-kjelleberg'
p160
aS'/fellowship/fellows/professor-thomas-maschmeyer'
p161
aS'/fellowship/fellows/professor-trevor-hambley'
p162
aS'/fellowship/fellows/professor-allan-chivas'
p163
aS'/fellowship/fellows/professor-elaine-sadler'
p164
aS'/fellowship/fellows/professor-francis-carbone'
p165
aS'/fellowship/fellows/professor-jeffrey-reimers'
p166
aS'/fellowship/fellows/dr-john-osullivan'
p167
aS'/fellowship/fellows/professor-john-graham-oakeshott'
p168
aS'/fellowship/fellows/dr-marianne-frommer'
p169
aS'/fellowship/fellows/professor-michael-parker'
p170
aS'/fellowship/fellows/professor-peter-visscher'
p171
aS'/fellowship/fellows/professor-raymond-volkas'
p172
aS'/fellowship/fellows/professor-robert-pressey'
p173
aS'/fellowship/fellows/professor-roger-reddel'
p174
aS'/fellowship/fellows/professor-scott-oneill'
p175
aS'/fellowship/fellows/professor-steven-prawer'
p176
aS'/fellowship/fellows/professor-trevor-lithgow'
p177
aS'/fellowship/fellows/professor-vladimir-bazhanov'
p178
aS'/fellowship/fellows/professor-charles-reay-mackay'
p179
aS'/fellowship/fellows/professor-frank-caruso'
p180
aS'/fellowship/fellows/professor-george-paxinos'
p181
aS'/fellowship/fellows/professor-hugh-francis-durrant-whyte'
p182
aS'/fellowship/fellows/professor-john-phillip-carter'
p183
aS'/fellowship/fellows/professor-kong-hong-andy-choo'
p184
aS'/fellowship/fellows/professor-leigh-william-simmons'
p185
aS'/fellowship/fellows/professor-marilyn-crowl-ball'
p186
aS'/fellowship/fellows/professor-mark-westoby'
p187
aS'/fellowship/fellows/professor-paul-mulvaney'
p188
aS'/fellowship/fellows/professor-peter-michael-waterhouse'
p189
aS'/fellowship/fellows/professor-raymond-leslie-withers'
p190
aS'/fellowship/fellows/professor-robert-glenn-parton'
p191
aS'/fellowship/fellows/professor-warrick-john-couch'
p192
aS'/fellowship/fellows/professor-xu-jia-wang'
p193
aS'/fellowship/fellows/professor-antony-bacic'
p194
aS'/fellowship/fellows/professor-brian-paul-schmidt'
p195
aS'/fellowship/fellows/dame-bridget-ogilvie'
p196
aS'/fellowship/fellows/professor-david-bruce-lindenmayer'
p197
aS'/fellowship/fellows/professor-geoffrey-tregear'
p198
aS'/fellowship/fellows/professor-howard-mark-wiseman'
p199
aS'/fellowship/fellows/professor-hugh-oneill'
p200
aS'/fellowship/fellows/professor-john-stanley-mattick'
p201
aS'/fellowship/fellows/professor-matthew-paul-wand'
p202
aS'/fellowship/fellows/professor-murray-ronald-badger'
p203
aS'/fellowship/fellows/professor-nalini-joshi'
p204
aS'/fellowship/fellows/professor-nicholas-martin'
p205
aS'/fellowship/fellows/professor-patrick-ping-leung-tam'
p206
aS'/fellowship/fellows/professor-peter-anthony-koopman'
p207
aS'/fellowship/fellows/professor-roderick-william-boswell'
p208
aS'/fellowship/fellows/professor-sven-ole-warnaar'
p209
aS'/fellowship/fellows/professor-william-ross-heath'
p210
aS'/fellowship/fellows/professor-alan-hepburn-welsh'
p211
aS'/fellowship/fellows/professor-david-ernest-james'
p212
aS'/fellowship/fellows/professor-david-john-hill'
p213
aS'/fellowship/fellows/professor-douglas-robert-macfarlane'
p214
aS'/fellowship/fellows/professor-gordon-george-wallace'
p215
aS'/fellowship/fellows/professor-ian-douglas-hume'
p216
aS'/fellowship/fellows/professor-ian-william-dawes'
p217
aS'/fellowship/fellows/dr-john-joseph-finnigan'
p218
aS'/fellowship/fellows/professor-john-joseph-hopwood'
p219
aS'/fellowship/fellows/professor-min-gu'
p220
aS'/fellowship/fellows/professor-peter-andrew-lay'
p221
aS'/fellowship/fellows/professor-rana-ellen-munns'
p222
aS'/fellowship/fellows/professor-richard-paul-harvey'
p223
aS'/fellowship/fellows/laureate-professor-scott-william-sloan'
p224
aS'/fellowship/fellows/professor-stephen-james-simpson'
p225
aS'/fellowship/fellows/professor-andrew-holmes'
p226
aS'/fellowship/fellows/dr-brian-john-boyle'
p227
aS'/professor-david-grant-allen'
p228
aS'/fellowship/fellows/professor-david-john-hinde'
p229
aS'/fellowship/fellows/professor-david-stephen-celermajer'
p230
aS'/fellowship/fellows/professor-evan-rutherford-simpson'
p231
aS'/fellowship/fellows/professor-igor-shparlinski'
p232
aS'/fellowship/fellows/professor-john-zillman'
p233
aS'/fellowship/fellows/professor-john-barry-egan'
p234
aS'/fellowship/fellows/professor-jonathan-sprent'
p235
aS'/fellowship/fellows/professor-lorenzo-faraone'
p236
aS'/fellowship/fellows/professor-mark-alexander-burgman'
p237
aS'/fellowship/fellows/professor-michelle-yvonne-simmons'
p238
aS'/fellowship/fellows/professor-robin-warren'
p239
aS'/fellowship/fellows/professor-roger-powell'
p240
aS'/fellowship/fellows/dr-stephen-rich-rintoul'
p241
aS'/fellowship/fellows/professor-susanne-von-caemmerer'
p242
aS'/fellowship/fellows/professor-amnon-neeman'
p243
aS'/fellowship/fellows/professor-chennupati-jagadish'
p244
aS'/fellowship/fellows/professor-franz-grieser'
p245
aS'/fellowship/fellows/professor-geoffrey-ian-mcfadden'
p246
aS'/fellowship/fellows/professor-hugh-philip-possingham'
p247
aS'/fellowship/fellows/dr-jeffrey-graham-ellis'
p248
aS'/fellowship/fellows/professor-john-ralston'
p249
aS'/fellowship/fellows/dr-jorgen-segerlund-frederiksen'
p250
aS'/fellowship/fellows/professor-michael-george-eastwood'
p251
aS'/fellowship/fellows/professor-richard-ian-hartley'
p252
aS'/fellowship/fellows/professor-ruth-milne-hall'
p253
aS'/fellowship/fellows/professor-samuel-frank-berkovic'
p254
aS'/fellowship/fellows/professor-stephen-timothy-hyde'
p255
aS'/fellowship/fellows/professor-timothy-mark-harrison'
p256
aS'/fellowship/fellows/professor-trevor-david-lamb'
p257
aS'/fellowship/fellows/professor-ary-hoffmann'
p258
aS'/fellowship/fellows/professor-chris-easton'
p259
aS'/fellowship/fellows/professor-david-smyth'
p260
aS'/fellowship/fellows/professor-david-cook'
p261
aS'/fellowship/fellows/professor-doug-hilton'
p262
aS'/fellowship/fellows/professor-ian-frazer'
p263
aS'/fellowship/fellows/mr-john-ralph'
p264
aS'/fellowship/fellows/professor-malcolm-mcculloch'
p265
aS'/fellowship/fellows/professor-malcolm-walter'
p266
aS'/fellowship/fellows/dr-marelyn-wintour-coghlan'
p267
aS'/fellowship/fellows/professor-martin-banwell'
p268
aS'/fellowship/fellows/professor-matthew-colless'
p269
aS'/fellowship/fellows/professor-paul-haddad'
p270
aS'/fellowship/fellows/professor-peter-forrester'
p271
aS'/fellowship/fellows/professor-rao-kotagiri'
p272
aS'/fellowship/fellows/professor-richard-hobbs'
p273
aS'/fellowship/fellows/professor-rob-baxter'
p274
aS'/fellowship/fellows/professor-robert-bartnik'
p275
aS'/fellowship/fellows/professor-robert-antonia'
p276
aS'/fellowship/fellows/professor-robert-alan-vincent'
p277
aS'/fellowship/fellows/dr-t-j-higgins'
p278
aS'/fellowship/fellows/dr-andreas-strasser'
p279
aS'/fellowship/fellows/professor-bruce-wild'
p280
aS'/fellowship/fellows/professor-david-vaux'
p281
aS'/fellowship/fellows/professor-david-groves'
p282
aS'/fellowship/fellows/professor-frederick-arthur-mendelsohn'
p283
aS'/fellowship/fellows/professor-hyam-rubinstein'
p284
aS'/fellowship/fellows/professor-jim-s-williams'
p285
aS'/fellowship/fellows/professor-maria-orlowska'
p286
aS'/fellowship/fellows/professor-mark-von-itzstein'
p287
aS'/fellowship/fellows/professor-michael-hynes'
p288
aS'/fellowship/fellows/professor-perry-bartlett'
p289
aS'/fellowship/fellows/professor-peter-drummond'
p290
aS'/fellowship/fellows/professor-rick-shine'
p291
aS'/fellowship/fellows/professor-steve-tyerman'
p292
aS'/fellowship/fellows/professor-bob-graham'
p293
aS'/fellowship/fellows/professor-chris-goodnow'
p294
aS'/fellowship/fellows/professor-eugenie-lumbers'
p295
aS'/fellowship/fellows/dr-ezio-rizzardo'
p296
aS'/fellowship/fellows/professor-fiona-stanley'
p297
aS'/fellowship/fellows/dr-jake-jacobsen'
p298
aS'/fellowship/fellows/professor-john-hutchinson'
p299
aS'/fellowship/fellows/professor-michael-archer'
p300
aS'/fellowship/fellows/professor-murray-esler'
p301
aS'/fellowship/fellows/professor-pauline-ladiges'
p302
aS'/fellowship/fellows/professor-rob-evans'
p303
aS'/fellowship/fellows/professor-suzanne-yvette-oreilly'
p304
aS'/fellowship/fellows/professor-tam-sridhar'
p305
aS'/fellowship/fellows/professor-tony-guttmann'
p306
aS'/fellowship/fellows/professor-yuri-kivshar'
p307
aS'/fellowship/fellows/professor-adrian-horridge'
p308
aS'/fellowship/fellows/professor-alan-cowman'
p309
aS'/fellowship/fellows/professor-allan-canty'
p310
aS'/fellowship/fellows/professor-andrew-cockburn'
p311
aS'/fellowship/fellows/professor-bob-clark'
p312
aS'/fellowship/fellows/professor-bob-williamson'
p313
aS'/fellowship/fellows/emeritus-professor-max-coltheart'
p314
aS'/fellowship/fellows/professor-max-crossley'
p315
aS'/fellowship/fellows/professor-patrick-holt'
p316
aS'/fellowship/fellows/dr-paul-mccormick'
p317
aS'/fellowship/fellows/professor-richard-williamson'
p318
aS'/fellowship/fellows/professor-ross-griffiths'
p319
aS'/fellowship/fellows/professor-sally-smith'
p320
aS'/fellowship/fellows/professor-terry-speed'
p321
aS'/fellowship/fellows/professor-vicki-sara'
p322
aS'/fellowship/fellows/professor-yiu-wing-mai'
p323
aS'/fellowship/fellows/professor-adrian-baddeley'
p324
aS'/fellowship/fellows/professor-bruce-kemp'
p325
aS'/fellowship/fellows/professor-bruce-armstrong'
p326
aS'/fellowship/fellows/professor-curt-wentrup'
p327
aS'/fellowship/fellows/professor-joseph-sambrook'
p328
aS'/fellowship/fellows/professor-julie-campbell'
p329
aS'/fellowship/fellows/professor-keith-nugent'
p330
aS'/fellowship/fellows/professor-lesley-rogers'
p331
aS'/fellowship/fellows/professor-mark-randolph'
p332
aS'/fellowship/fellows/professor-peter-reeves'
p333
aS'/fellowship/fellows/professor-richard-robson'
p334
aS'/fellowship/fellows/dr-robin-batterham'
p335
aS'/fellowship/fellows/professor-victor-flambaum'
p336
aS'/fellowship/fellows/professor-andy-gleadow'
p337
aS'/fellowship/fellows/professor-barry-marshall'
p338
aS'/fellowship/fellows/dr-bob-watts'
p339
aS'/fellowship/fellows/professor-colin-rogers'
p340
aS'/fellowship/fellows/professor-colin-masters'
p341
aS'/fellowship/fellows/professor-george-stephenson'
p342
aS'/fellowship/fellows/professor-gerard-milburn'
p343
aS'/fellowship/fellows/professor-jenny-graves'
p344
aS'/fellowship/fellows/professor-john-mckenzie'
p345
aS'/fellowship/fellows/professor-kenneth-shortman'
p346
aS'/fellowship/fellows/professor-michael-paddon-row'
p347
aS'/fellowship/fellows/professor-nhan-phan-thien'
p348
aS'/fellowship/fellows/professor-david-doddrell'
p349
aS'/fellowship/fellows/professor-graeme-clark'
p350
aS'/fellowship/fellows/professor-gustav-lehrer'
p351
aS'/fellowship/fellows/professor-jack-martin'
p352
aS'/fellowship/fellows/dr-jeremy-mould'
p353
aS'/fellowship/fellows/professor-jim-f-williams'
p354
aS'/fellowship/fellows/professor-john-kerr'
p355
aS'/fellowship/fellows/professor-john-andrews'
p356
aS'/fellowship/fellows/professor-rod-tucker'
p357
aS'/fellowship/fellows/dr-roger-everett-summons'
p358
aS'/fellowship/fellows/professor-simon-gandevia'
p359
aS'/fellowship/fellows/professor-adrienne-r-hardham'
p360
aS'/fellowship/fellows/professor-brendan-mckay'
p361
aS'/fellowship/fellows/professor-colin-sullivan'
p362
aS'/fellowship/fellows/professor-elspeth-mary-mclachlan'
p363
aS'/fellowship/fellows/professor-graham-goodwin'
p364
aS'/fellowship/fellows/emeritus-professor-grant-sutherland'
p365
aS'/fellowship/fellows/professor-ian-dance'
p366
aS'/fellowship/fellows/professor-marilyn-renfree'
p367
aS'/fellowship/fellows/professor-philip-kuchel'
p368
aS'/fellowship/fellows/dr-robin-bedding'
p369
aS'/fellowship/fellows/sir-rupert-myers'
p370
aS'/fellowship/fellows/professor-trevor-mcdougall'
p371
aS'/fellowship/fellows/hon-dr-barry-owen-jones'
p372
aS'/fellowship/fellows/professor-cheryl-praeger'
p373
aS'/fellowship/fellows/professor-david-de-kretser'
p374
aS'/fellowship/fellows/professor-graeme-jameson'
p375
aS'/fellowship/fellows/professor-james-angus'
p376
aS'/fellowship/fellows/dr-jeremy-james-burdon'
p377
aS'/fellowship/fellows/professor-leslie-field'
p378
aS'/fellowship/fellows/professor-michael-dopita'
p379
aS'/fellowship/fellows/professor-nick-nicola'
p380
aS'/fellowship/fellows/professor-norman-dancer'
p381
aS'/fellowship/fellows/dr-oliver-mayo'
p382
aS'/fellowship/fellows/dr-phil-mcfadden'
p383
aS'/fellowship/fellows/professor-ashley-dunn'
p384
aS'/fellowship/fellows/professor-colin-thompson'
p385
aS'/fellowship/fellows/professor-david-burke'
p386
aS'/fellowship/fellows/professor-david-pegg'
p387
aS'/fellowship/fellows/professor-frank-larkins'
p388
aS'/fellowship/fellows/professor-john-veevers'
p389
aS'/fellowship/fellows/dr-liz-dennis'
p390
aS'/fellowship/fellows/professor-srini-srinivasan'
p391
aS'/fellowship/fellows/professor-antony-underwood'
p392
aS'/fellowship/fellows/professor-bob-gilbert'
p393
aS'/fellowship/fellows/professor-brian-kennett'
p394
aS'/fellowship/fellows/professor-denis-james-evans'
p395
aS'/fellowship/fellows/professor-henry-george-burger'
p396
aS'/fellowship/fellows/professor-john-shine'
p397
aS'/fellowship/fellows/dr-john-passioura'
p398
aS'/fellowship/fellows/professor-joseph-wiskich'
p399
aS'/fellowship/fellows/professor-tony-klein'
p400
aS'/fellowship/fellows/professor-bill-budd'
p401
aS'/fellowship/fellows/professor-bob-mcintosh'
p402
aS'/fellowship/fellows/professor-david-hirst'
p403
aS'/fellowship/fellows/emeritus-professor-david-boger'
p404
aS'/fellowship/fellows/professor-ian-sloan'
p405
aS'/fellowship/fellows/professor-j\xc3\xb6rg-imberger'
p406
aS'/fellowship/fellows/professor-len-lindoy'
p407
aS'/fellowship/fellows/dr-max-whitten'
p408
aS'/fellowship/fellows/professor-michael-cowling'
p409
aS'/fellowship/fellows/professor-robyn-williams'
p410
aS'/fellowship/fellows/professor-ronald-david-ekers'
p411
aS'/fellowship/fellows/professor-tony-burgess'
p412
aS'/fellowship/fellows/professor-jeremy-pickett-heaps'
p413
aS'/fellowship/fellows/professor-john-chappell'
p414
aS'/fellowship/fellows/professor-michael-barber'
p415
aS'/fellowship/fellows/dr-robert-frater'
p416
aS'/fellowship/fellows/emeritus-professor-robert-dewar'
p417
aS'/fellowship/fellows/professor-sever-sternhell'
p418
aS'/fellowship/fellows/professor-tony-basten'
p419
aS'/fellowship/fellows/professor-adrienne-clarke'
p420
aS'/fellowship/fellows/dr-bruce-hobbs'
p421
aS'/fellowship/fellows/dr-ian-mackay'
p422
aS'/fellowship/fellows/professor-john-white'
p423
aS'/fellowship/fellows/professor-peter-hannaford'
p424
aS'/fellowship/fellows/dr-stjepan-marcelja'
p425
aS'/fellowship/fellows/professor-alan-bond'
p426
aS'/fellowship/fellows/professor-andrew-smith'
p427
aS'/fellowship/fellows/professor-graeme-cox'
p428
aS'/fellowship/fellows/professor-martin-green'
p429
aS'/fellowship/fellows/professor-roger-grimshaw'
p430
aS'/fellowship/fellows/professor-ross-day'
p431
aS'/fellowship/fellows/professor-tony-thomas'
p432
aS'/fellowship/fellows/dr-graeme-pearman'
p433
aS'/fellowship/fellows/professor-john-furness'
p434
aS'/fellowship/fellows/professor-marcello-costa'
p435
aS'/fellowship/fellows/professor-michael-bruce'
p436
aS'/fellowship/fellows/professor-peter-colman'
p437
aS'/fellowship/fellows/dr-richard-n-manchester'
p438
aS'/fellowship/fellows/emeritus-professor-ross-howard-street'
p439
aS'/fellowship/fellows/professor-bob-delbourgo'
p440
aS'/fellowship/fellows/professor-brian-johnstone'
p441
aS'/fellowship/fellows/professor-graham-farquhar'
p442
aS'/fellowship/fellows/professor-graham-mitchell'
p443
aS'/fellowship/fellows/professor-harry-poulos'
p444
aS'/fellowship/fellows/professor-ian-mcdougall'
p445
aS'/fellowship/fellows/professor-leo-radom'
p446
aS'/fellowship/fellows/professor-max-brennan'
p447
aS'/fellowship/fellows/dr-roy-woodall'
p448
aS'/fellowship/fellows/professor-bruce-mckellar'
p449
aS'/fellowship/fellows/professor-bruce-runnegar'
p450
aS'/fellowship/fellows/professor-don-napper'
p451
aS'/fellowship/fellows/professor-jack-pettigrew'
p452
aS'/fellowship/fellows/professor-john-chalmers'
p453
aS'/fellowship/fellows/dr-ken-mccracken'
p454
aS'/fellowship/fellows/associate-professor-bob-hunter'
p455
aS'/fellowship/fellows/professor-don-melrose'
p456
aS'/fellowship/fellows/professor-erich-weigold'
p457
aS'/fellowship/fellows/dr-hugh-tyndale-biscoe'
p458
aS'/fellowship/fellows/professor-jerry-adams'
p459
aS'/fellowship/fellows/professor-suzanne-cory'
p460
aS'/fellowship/fellows/professor-terry-hughes'
p461
aS'/fellowship/fellows/professor-allan-snyder'
p462
aS'/fellowship/fellows/dr-bill-blevin'
p463
aS'/fellowship/fellows/professor-brian-figgis'
p464
aS'/fellowship/fellows/dr-elizabeth-truswell'
p465
aS'/fellowship/fellows/professor-eugene-seneta'
p466
aS'/fellowship/fellows/professor-gerry-wake'
p467
aS'/fellowship/fellows/professor-ian-mccloskey'
p468
aS'/fellowship/fellows/professor-bill-moran'
p469
aS'/fellowship/fellows/dr-cyril-angus-appleby'
p470
aS'/fellowship/fellows/dr-donald-morton'
p471
aS'/fellowship/fellows/professor-jonathan-stone'
p472
aS'/fellowship/fellows/professor-kurt-lambeck'
p473
aS'/fellowship/fellows/professor-roger-short'
p474
aS'/fellowship/fellows/professor-tom-healy'
p475
aS'/fellowship/fellows/dr-david-stuart-letham'
p476
aS'/fellowship/fellows/professor-leon-simon'
p477
aS'/fellowship/fellows/professor-lew-mander'
p478
aS'/fellowship/fellows/professor-michael-osborne'
p479
aS'/fellowship/fellows/professor-peter-charles-doherty'
p480
aS'/fellowship/fellows/professor-steve-redman'
p481
aS'/fellowship/fellows/dr-angus-mcewan'
p482
aS'/fellowship/fellows/jacob-israelachvili'
p483
aS'/fellowship/fellows/professor-john-lovering'
p484
aS'/fellowship/fellows/professor-richard-brent'
p485
aS'/fellowship/fellows/professor-jim-mcleod'
p486
aS'/fellowship/fellows/professor-ken-freeman'
p487
aS'/fellowship/fellows/professor-max-bennett'
p488
aS'/fellowship/fellows/dr-mike-mcelhinny'
p489
aS'/fellowship/fellows/professor-warren-ewens'
p490
aS'/fellowship/fellows/dr-alec-costin'
p491
aS'/fellowship/fellows/professor-derek-robinson'
p492
aS'/fellowship/fellows/dr-garth-paltridge'
p493
aS'/fellowship/fellows/professor-jim-lance'
p494
aS'/fellowship/fellows/professor-john-pate'
p495
aS'/fellowship/fellows/professor-martin-bennett'
p496
aS'/fellowship/fellows/professor-bob-blanden'
p497
aS'/fellowship/fellows/professor-bob-crompton'
p498
aS'/fellowship/fellows/professor-brian-gunning'
p499
aS'/fellowship/fellows/professor-bruce-william-holloway'
p500
aS'/fellowship/fellows/professor-derek-denton'
p501
aS'/fellowship/fellows/professor-roger-tanner'
p502
aS'/fellowship/fellows/professor-stewart-turner'
p503
aS'/fellowship/fellows/professor-allen-kerr'
p504
aS'/fellowship/fellows/professor-barry-osmond'
p505
aS'/fellowship/fellows/professor-barry-ninham'
p506
aS'/fellowship/fellows/dr-bruce-fraser'
p507
aS'/fellowship/fellows/professor-neil-trudinger'
p508
aS'/fellowship/fellows/professor-ross-taylor'
p509
aS'/fellowship/fellows/professor-george-rogers'
p510
aS'/fellowship/fellows/professor-noel-hush'
p511
aS'/fellowship/fellows/professor-rodney-baxter'
p512
aS'/fellowship/fellows/dr-jim-peacock'
p513
aS'/fellowship/fellows/professor-david-solomon'
p514
aS'/fellowship/fellows/dr-hal-hatch'
p515
aS'/fellowship/fellows/professor-richard-stanton'
p516
a.